
LED.elf:     file format elf32-littlearm

Sections:
Idx Name          Size      VMA       LMA       File off  Algn
  0 .isr_vector   00000188  08000000  08000000  00001000  2**0
                  CONTENTS, ALLOC, LOAD, READONLY, DATA
  1 .text         000089b8  08000188  08000188  00001188  2**2
                  CONTENTS, ALLOC, LOAD, READONLY, CODE
  2 .rodata       0000001c  08008b40  08008b40  00009b40  2**2
                  CONTENTS, ALLOC, LOAD, READONLY, DATA
  3 .ARM.extab    00000000  08008b5c  08008b5c  0000a07c  2**0
                  CONTENTS
  4 .ARM          00000008  08008b5c  08008b5c  00009b5c  2**2
                  CONTENTS, ALLOC, LOAD, READONLY, DATA
  5 .preinit_array 00000000  08008b64  08008b64  0000a07c  2**0
                  CONTENTS, ALLOC, LOAD, DATA
  6 .init_array   00000004  08008b64  08008b64  00009b64  2**2
                  CONTENTS, ALLOC, LOAD, READONLY, DATA
  7 .fini_array   00000004  08008b68  08008b68  00009b68  2**2
                  CONTENTS, ALLOC, LOAD, READONLY, DATA
  8 .data         0000007c  20000000  08008b6c  0000a000  2**2
                  CONTENTS, ALLOC, LOAD, DATA
  9 .ccmram       00000000  10000000  10000000  0000a07c  2**0
                  CONTENTS
 10 .bss          00000a1c  2000007c  2000007c  0000a07c  2**2
                  ALLOC
 11 ._user_heap_stack 00000600  20000a98  20000a98  0000a07c  2**0
                  ALLOC
 12 .ARM.attributes 00000030  00000000  00000000  0000a07c  2**0
                  CONTENTS, READONLY
 13 .debug_info   00014a93  00000000  00000000  0000a0ac  2**0
                  CONTENTS, READONLY, DEBUGGING, OCTETS
 14 .debug_abbrev 0000387b  00000000  00000000  0001eb3f  2**0
                  CONTENTS, READONLY, DEBUGGING, OCTETS
 15 .debug_aranges 00001130  00000000  00000000  000223c0  2**3
                  CONTENTS, READONLY, DEBUGGING, OCTETS
 16 .debug_rnglists 00000d14  00000000  00000000  000234f0  2**0
                  CONTENTS, READONLY, DEBUGGING, OCTETS
 17 .debug_macro  00023416  00000000  00000000  00024204  2**0
                  CONTENTS, READONLY, DEBUGGING, OCTETS
 18 .debug_line   0001836f  00000000  00000000  0004761a  2**0
                  CONTENTS, READONLY, DEBUGGING, OCTETS
 19 .debug_str    000cb89c  00000000  00000000  0005f989  2**0
                  CONTENTS, READONLY, DEBUGGING, OCTETS
 20 .comment      00000043  00000000  00000000  0012b225  2**0
                  CONTENTS, READONLY
 21 .debug_frame  00004a78  00000000  00000000  0012b268  2**2
                  CONTENTS, READONLY, DEBUGGING, OCTETS
 22 .debug_line_str 00000073  00000000  00000000  0012fce0  2**0
                  CONTENTS, READONLY, DEBUGGING, OCTETS

Disassembly of section .text:

08000188 <__do_global_dtors_aux>:
 8000188:	b510      	push	{r4, lr}
 800018a:	4c05      	ldr	r4, [pc, #20]	@ (80001a0 <__do_global_dtors_aux+0x18>)
 800018c:	7823      	ldrb	r3, [r4, #0]
 800018e:	b933      	cbnz	r3, 800019e <__do_global_dtors_aux+0x16>
 8000190:	4b04      	ldr	r3, [pc, #16]	@ (80001a4 <__do_global_dtors_aux+0x1c>)
 8000192:	b113      	cbz	r3, 800019a <__do_global_dtors_aux+0x12>
 8000194:	4804      	ldr	r0, [pc, #16]	@ (80001a8 <__do_global_dtors_aux+0x20>)
 8000196:	f3af 8000 	nop.w
 800019a:	2301      	movs	r3, #1
 800019c:	7023      	strb	r3, [r4, #0]
 800019e:	bd10      	pop	{r4, pc}
 80001a0:	2000007c 	.word	0x2000007c
 80001a4:	00000000 	.word	0x00000000
 80001a8:	08008b28 	.word	0x08008b28

080001ac <frame_dummy>:
 80001ac:	b508      	push	{r3, lr}
 80001ae:	4b03      	ldr	r3, [pc, #12]	@ (80001bc <frame_dummy+0x10>)
 80001b0:	b11b      	cbz	r3, 80001ba <frame_dummy+0xe>
 80001b2:	4903      	ldr	r1, [pc, #12]	@ (80001c0 <frame_dummy+0x14>)
 80001b4:	4803      	ldr	r0, [pc, #12]	@ (80001c4 <frame_dummy+0x18>)
 80001b6:	f3af 8000 	nop.w
 80001ba:	bd08      	pop	{r3, pc}
 80001bc:	00000000 	.word	0x00000000
 80001c0:	20000080 	.word	0x20000080
 80001c4:	08008b28 	.word	0x08008b28

080001c8 <__aeabi_uldivmod>:
 80001c8:	b953      	cbnz	r3, 80001e0 <__aeabi_uldivmod+0x18>
 80001ca:	b94a      	cbnz	r2, 80001e0 <__aeabi_uldivmod+0x18>
 80001cc:	2900      	cmp	r1, #0
 80001ce:	bf08      	it	eq
 80001d0:	2800      	cmpeq	r0, #0
 80001d2:	bf1c      	itt	ne
 80001d4:	f04f 31ff 	movne.w	r1, #4294967295
 80001d8:	f04f 30ff 	movne.w	r0, #4294967295
 80001dc:	f000 b96a 	b.w	80004b4 <__aeabi_idiv0>
 80001e0:	f1ad 0c08 	sub.w	ip, sp, #8
 80001e4:	e96d ce04 	strd	ip, lr, [sp, #-16]!
 80001e8:	f000 f806 	bl	80001f8 <__udivmoddi4>
 80001ec:	f8dd e004 	ldr.w	lr, [sp, #4]
 80001f0:	e9dd 2302 	ldrd	r2, r3, [sp, #8]
 80001f4:	b004      	add	sp, #16
 80001f6:	4770      	bx	lr

080001f8 <__udivmoddi4>:
 80001f8:	e92d 47f0 	stmdb	sp!, {r4, r5, r6, r7, r8, r9, sl, lr}
 80001fc:	9d08      	ldr	r5, [sp, #32]
 80001fe:	460c      	mov	r4, r1
 8000200:	2b00      	cmp	r3, #0
 8000202:	d14e      	bne.n	80002a2 <__udivmoddi4+0xaa>
 8000204:	4694      	mov	ip, r2
 8000206:	458c      	cmp	ip, r1
 8000208:	4686      	mov	lr, r0
 800020a:	fab2 f282 	clz	r2, r2
 800020e:	d962      	bls.n	80002d6 <__udivmoddi4+0xde>
 8000210:	b14a      	cbz	r2, 8000226 <__udivmoddi4+0x2e>
 8000212:	f1c2 0320 	rsb	r3, r2, #32
 8000216:	4091      	lsls	r1, r2
 8000218:	fa20 f303 	lsr.w	r3, r0, r3
 800021c:	fa0c fc02 	lsl.w	ip, ip, r2
 8000220:	4319      	orrs	r1, r3
 8000222:	fa00 fe02 	lsl.w	lr, r0, r2
 8000226:	ea4f 471c 	mov.w	r7, ip, lsr #16
 800022a:	fa1f f68c 	uxth.w	r6, ip
 800022e:	fbb1 f4f7 	udiv	r4, r1, r7
 8000232:	ea4f 431e 	mov.w	r3, lr, lsr #16
 8000236:	fb07 1114 	mls	r1, r7, r4, r1
 800023a:	ea43 4301 	orr.w	r3, r3, r1, lsl #16
 800023e:	fb04 f106 	mul.w	r1, r4, r6
 8000242:	4299      	cmp	r1, r3
 8000244:	d90a      	bls.n	800025c <__udivmoddi4+0x64>
 8000246:	eb1c 0303 	adds.w	r3, ip, r3
 800024a:	f104 30ff 	add.w	r0, r4, #4294967295
 800024e:	f080 8112 	bcs.w	8000476 <__udivmoddi4+0x27e>
 8000252:	4299      	cmp	r1, r3
 8000254:	f240 810f 	bls.w	8000476 <__udivmoddi4+0x27e>
 8000258:	3c02      	subs	r4, #2
 800025a:	4463      	add	r3, ip
 800025c:	1a59      	subs	r1, r3, r1
 800025e:	fa1f f38e 	uxth.w	r3, lr
 8000262:	fbb1 f0f7 	udiv	r0, r1, r7
 8000266:	fb07 1110 	mls	r1, r7, r0, r1
 800026a:	ea43 4301 	orr.w	r3, r3, r1, lsl #16
 800026e:	fb00 f606 	mul.w	r6, r0, r6
 8000272:	429e      	cmp	r6, r3
 8000274:	d90a      	bls.n	800028c <__udivmoddi4+0x94>
 8000276:	eb1c 0303 	adds.w	r3, ip, r3
 800027a:	f100 31ff 	add.w	r1, r0, #4294967295
 800027e:	f080 80fc 	bcs.w	800047a <__udivmoddi4+0x282>
 8000282:	429e      	cmp	r6, r3
 8000284:	f240 80f9 	bls.w	800047a <__udivmoddi4+0x282>
 8000288:	4463      	add	r3, ip
 800028a:	3802      	subs	r0, #2
 800028c:	1b9b      	subs	r3, r3, r6
 800028e:	ea40 4004 	orr.w	r0, r0, r4, lsl #16
 8000292:	2100      	movs	r1, #0
 8000294:	b11d      	cbz	r5, 800029e <__udivmoddi4+0xa6>
 8000296:	40d3      	lsrs	r3, r2
 8000298:	2200      	movs	r2, #0
 800029a:	e9c5 3200 	strd	r3, r2, [r5]
 800029e:	e8bd 87f0 	ldmia.w	sp!, {r4, r5, r6, r7, r8, r9, sl, pc}
 80002a2:	428b      	cmp	r3, r1
 80002a4:	d905      	bls.n	80002b2 <__udivmoddi4+0xba>
 80002a6:	b10d      	cbz	r5, 80002ac <__udivmoddi4+0xb4>
 80002a8:	e9c5 0100 	strd	r0, r1, [r5]
 80002ac:	2100      	movs	r1, #0
 80002ae:	4608      	mov	r0, r1
 80002b0:	e7f5      	b.n	800029e <__udivmoddi4+0xa6>
 80002b2:	fab3 f183 	clz	r1, r3
 80002b6:	2900      	cmp	r1, #0
 80002b8:	d146      	bne.n	8000348 <__udivmoddi4+0x150>
 80002ba:	42a3      	cmp	r3, r4
 80002bc:	d302      	bcc.n	80002c4 <__udivmoddi4+0xcc>
 80002be:	4290      	cmp	r0, r2
 80002c0:	f0c0 80f0 	bcc.w	80004a4 <__udivmoddi4+0x2ac>
 80002c4:	1a86      	subs	r6, r0, r2
 80002c6:	eb64 0303 	sbc.w	r3, r4, r3
 80002ca:	2001      	movs	r0, #1
 80002cc:	2d00      	cmp	r5, #0
 80002ce:	d0e6      	beq.n	800029e <__udivmoddi4+0xa6>
 80002d0:	e9c5 6300 	strd	r6, r3, [r5]
 80002d4:	e7e3      	b.n	800029e <__udivmoddi4+0xa6>
 80002d6:	2a00      	cmp	r2, #0
 80002d8:	f040 8090 	bne.w	80003fc <__udivmoddi4+0x204>
 80002dc:	eba1 040c 	sub.w	r4, r1, ip
 80002e0:	ea4f 481c 	mov.w	r8, ip, lsr #16
 80002e4:	fa1f f78c 	uxth.w	r7, ip
 80002e8:	2101      	movs	r1, #1
 80002ea:	fbb4 f6f8 	udiv	r6, r4, r8
 80002ee:	ea4f 431e 	mov.w	r3, lr, lsr #16
 80002f2:	fb08 4416 	mls	r4, r8, r6, r4
 80002f6:	ea43 4304 	orr.w	r3, r3, r4, lsl #16
 80002fa:	fb07 f006 	mul.w	r0, r7, r6
 80002fe:	4298      	cmp	r0, r3
 8000300:	d908      	bls.n	8000314 <__udivmoddi4+0x11c>
 8000302:	eb1c 0303 	adds.w	r3, ip, r3
 8000306:	f106 34ff 	add.w	r4, r6, #4294967295
 800030a:	d202      	bcs.n	8000312 <__udivmoddi4+0x11a>
 800030c:	4298      	cmp	r0, r3
 800030e:	f200 80cd 	bhi.w	80004ac <__udivmoddi4+0x2b4>
 8000312:	4626      	mov	r6, r4
 8000314:	1a1c      	subs	r4, r3, r0
 8000316:	fa1f f38e 	uxth.w	r3, lr
 800031a:	fbb4 f0f8 	udiv	r0, r4, r8
 800031e:	fb08 4410 	mls	r4, r8, r0, r4
 8000322:	ea43 4304 	orr.w	r3, r3, r4, lsl #16
 8000326:	fb00 f707 	mul.w	r7, r0, r7
 800032a:	429f      	cmp	r7, r3
 800032c:	d908      	bls.n	8000340 <__udivmoddi4+0x148>
 800032e:	eb1c 0303 	adds.w	r3, ip, r3
 8000332:	f100 34ff 	add.w	r4, r0, #4294967295
 8000336:	d202      	bcs.n	800033e <__udivmoddi4+0x146>
 8000338:	429f      	cmp	r7, r3
 800033a:	f200 80b0 	bhi.w	800049e <__udivmoddi4+0x2a6>
 800033e:	4620      	mov	r0, r4
 8000340:	1bdb      	subs	r3, r3, r7
 8000342:	ea40 4006 	orr.w	r0, r0, r6, lsl #16
 8000346:	e7a5      	b.n	8000294 <__udivmoddi4+0x9c>
 8000348:	f1c1 0620 	rsb	r6, r1, #32
 800034c:	408b      	lsls	r3, r1
 800034e:	fa22 f706 	lsr.w	r7, r2, r6
 8000352:	431f      	orrs	r7, r3
 8000354:	fa20 fc06 	lsr.w	ip, r0, r6
 8000358:	fa04 f301 	lsl.w	r3, r4, r1
 800035c:	ea43 030c 	orr.w	r3, r3, ip
 8000360:	40f4      	lsrs	r4, r6
 8000362:	fa00 f801 	lsl.w	r8, r0, r1
 8000366:	0c38      	lsrs	r0, r7, #16
 8000368:	ea4f 4913 	mov.w	r9, r3, lsr #16
 800036c:	fbb4 fef0 	udiv	lr, r4, r0
 8000370:	fa1f fc87 	uxth.w	ip, r7
 8000374:	fb00 441e 	mls	r4, r0, lr, r4
 8000378:	ea49 4404 	orr.w	r4, r9, r4, lsl #16
 800037c:	fb0e f90c 	mul.w	r9, lr, ip
 8000380:	45a1      	cmp	r9, r4
 8000382:	fa02 f201 	lsl.w	r2, r2, r1
 8000386:	d90a      	bls.n	800039e <__udivmoddi4+0x1a6>
 8000388:	193c      	adds	r4, r7, r4
 800038a:	f10e 3aff 	add.w	sl, lr, #4294967295
 800038e:	f080 8084 	bcs.w	800049a <__udivmoddi4+0x2a2>
 8000392:	45a1      	cmp	r9, r4
 8000394:	f240 8081 	bls.w	800049a <__udivmoddi4+0x2a2>
 8000398:	f1ae 0e02 	sub.w	lr, lr, #2
 800039c:	443c      	add	r4, r7
 800039e:	eba4 0409 	sub.w	r4, r4, r9
 80003a2:	fa1f f983 	uxth.w	r9, r3
 80003a6:	fbb4 f3f0 	udiv	r3, r4, r0
 80003aa:	fb00 4413 	mls	r4, r0, r3, r4
 80003ae:	ea49 4404 	orr.w	r4, r9, r4, lsl #16
 80003b2:	fb03 fc0c 	mul.w	ip, r3, ip
 80003b6:	45a4      	cmp	ip, r4
 80003b8:	d907      	bls.n	80003ca <__udivmoddi4+0x1d2>
 80003ba:	193c      	adds	r4, r7, r4
 80003bc:	f103 30ff 	add.w	r0, r3, #4294967295
 80003c0:	d267      	bcs.n	8000492 <__udivmoddi4+0x29a>
 80003c2:	45a4      	cmp	ip, r4
 80003c4:	d965      	bls.n	8000492 <__udivmoddi4+0x29a>
 80003c6:	3b02      	subs	r3, #2
 80003c8:	443c      	add	r4, r7
 80003ca:	ea43 400e 	orr.w	r0, r3, lr, lsl #16
 80003ce:	fba0 9302 	umull	r9, r3, r0, r2
 80003d2:	eba4 040c 	sub.w	r4, r4, ip
 80003d6:	429c      	cmp	r4, r3
 80003d8:	46ce      	mov	lr, r9
 80003da:	469c      	mov	ip, r3
 80003dc:	d351      	bcc.n	8000482 <__udivmoddi4+0x28a>
 80003de:	d04e      	beq.n	800047e <__udivmoddi4+0x286>
 80003e0:	b155      	cbz	r5, 80003f8 <__udivmoddi4+0x200>
 80003e2:	ebb8 030e 	subs.w	r3, r8, lr
 80003e6:	eb64 040c 	sbc.w	r4, r4, ip
 80003ea:	fa04 f606 	lsl.w	r6, r4, r6
 80003ee:	40cb      	lsrs	r3, r1
 80003f0:	431e      	orrs	r6, r3
 80003f2:	40cc      	lsrs	r4, r1
 80003f4:	e9c5 6400 	strd	r6, r4, [r5]
 80003f8:	2100      	movs	r1, #0
 80003fa:	e750      	b.n	800029e <__udivmoddi4+0xa6>
 80003fc:	f1c2 0320 	rsb	r3, r2, #32
 8000400:	fa20 f103 	lsr.w	r1, r0, r3
 8000404:	fa0c fc02 	lsl.w	ip, ip, r2
 8000408:	fa24 f303 	lsr.w	r3, r4, r3
 800040c:	4094      	lsls	r4, r2
 800040e:	430c      	orrs	r4, r1
 8000410:	ea4f 481c 	mov.w	r8, ip, lsr #16
 8000414:	fa00 fe02 	lsl.w	lr, r0, r2
 8000418:	fa1f f78c 	uxth.w	r7, ip
 800041c:	fbb3 f0f8 	udiv	r0, r3, r8
 8000420:	fb08 3110 	mls	r1, r8, r0, r3
 8000424:	0c23      	lsrs	r3, r4, #16
 8000426:	ea43 4301 	orr.w	r3, r3, r1, lsl #16
 800042a:	fb00 f107 	mul.w	r1, r0, r7
 800042e:	4299      	cmp	r1, r3
 8000430:	d908      	bls.n	8000444 <__udivmoddi4+0x24c>
 8000432:	eb1c 0303 	adds.w	r3, ip, r3
 8000436:	f100 36ff 	add.w	r6, r0, #4294967295
 800043a:	d22c      	bcs.n	8000496 <__udivmoddi4+0x29e>
 800043c:	4299      	cmp	r1, r3
 800043e:	d92a      	bls.n	8000496 <__udivmoddi4+0x29e>
 8000440:	3802      	subs	r0, #2
 8000442:	4463      	add	r3, ip
 8000444:	1a5b      	subs	r3, r3, r1
 8000446:	b2a4      	uxth	r4, r4
 8000448:	fbb3 f1f8 	udiv	r1, r3, r8
 800044c:	fb08 3311 	mls	r3, r8, r1, r3
 8000450:	ea44 4403 	orr.w	r4, r4, r3, lsl #16
 8000454:	fb01 f307 	mul.w	r3, r1, r7
 8000458:	42a3      	cmp	r3, r4
 800045a:	d908      	bls.n	800046e <__udivmoddi4+0x276>
 800045c:	eb1c 0404 	adds.w	r4, ip, r4
 8000460:	f101 36ff 	add.w	r6, r1, #4294967295
 8000464:	d213      	bcs.n	800048e <__udivmoddi4+0x296>
 8000466:	42a3      	cmp	r3, r4
 8000468:	d911      	bls.n	800048e <__udivmoddi4+0x296>
 800046a:	3902      	subs	r1, #2
 800046c:	4464      	add	r4, ip
 800046e:	1ae4      	subs	r4, r4, r3
 8000470:	ea41 4100 	orr.w	r1, r1, r0, lsl #16
 8000474:	e739      	b.n	80002ea <__udivmoddi4+0xf2>
 8000476:	4604      	mov	r4, r0
 8000478:	e6f0      	b.n	800025c <__udivmoddi4+0x64>
 800047a:	4608      	mov	r0, r1
 800047c:	e706      	b.n	800028c <__udivmoddi4+0x94>
 800047e:	45c8      	cmp	r8, r9
 8000480:	d2ae      	bcs.n	80003e0 <__udivmoddi4+0x1e8>
 8000482:	ebb9 0e02 	subs.w	lr, r9, r2
 8000486:	eb63 0c07 	sbc.w	ip, r3, r7
 800048a:	3801      	subs	r0, #1
 800048c:	e7a8      	b.n	80003e0 <__udivmoddi4+0x1e8>
 800048e:	4631      	mov	r1, r6
 8000490:	e7ed      	b.n	800046e <__udivmoddi4+0x276>
 8000492:	4603      	mov	r3, r0
 8000494:	e799      	b.n	80003ca <__udivmoddi4+0x1d2>
 8000496:	4630      	mov	r0, r6
 8000498:	e7d4      	b.n	8000444 <__udivmoddi4+0x24c>
 800049a:	46d6      	mov	lr, sl
 800049c:	e77f      	b.n	800039e <__udivmoddi4+0x1a6>
 800049e:	4463      	add	r3, ip
 80004a0:	3802      	subs	r0, #2
 80004a2:	e74d      	b.n	8000340 <__udivmoddi4+0x148>
 80004a4:	4606      	mov	r6, r0
 80004a6:	4623      	mov	r3, r4
 80004a8:	4608      	mov	r0, r1
 80004aa:	e70f      	b.n	80002cc <__udivmoddi4+0xd4>
 80004ac:	3e02      	subs	r6, #2
 80004ae:	4463      	add	r3, ip
 80004b0:	e730      	b.n	8000314 <__udivmoddi4+0x11c>
 80004b2:	bf00      	nop

080004b4 <__aeabi_idiv0>:
 80004b4:	4770      	bx	lr
 80004b6:	bf00      	nop

080004b8 <main>:
/**
  * @brief  The application entry point.
  * @retval int
  */
int main(void)
{
 80004b8:	b580      	push	{r7, lr}
 80004ba:	b084      	sub	sp, #16
 80004bc:	af00      	add	r7, sp, #0
  /* USER CODE END 1 */

  /* MCU Configuration--------------------------------------------------------*/

  /* Reset of all peripherals, Initializes the Flash interface and the Systick. */
  HAL_Init();
 80004be:	f000 fc2d 	bl	8000d1c <HAL_Init>
  /* USER CODE BEGIN Init */

  /* USER CODE END Init */

  /* Configure the system clock */
  SystemClock_Config();
 80004c2:	f000 f839 	bl	8000538 <SystemClock_Config>
  /* USER CODE BEGIN SysInit */

  /* USER CODE END SysInit */

  /* Initialize all configured peripherals */
  MX_GPIO_Init();
 80004c6:	f000 f935 	bl	8000734 <MX_GPIO_Init>
  MX_I2C1_Init();
 80004ca:	f000 f89f 	bl	800060c <MX_I2C1_Init>
  MX_I2S3_Init();
 80004ce:	f000 f8cb 	bl	8000668 <MX_I2S3_Init>
  MX_SPI1_Init();
 80004d2:	f000 f8f9 	bl	80006c8 <MX_SPI1_Init>
  MX_USB_HOST_Init();
 80004d6:	f007 fed1 	bl	800827c <MX_USB_HOST_Init>
  /* USER CODE BEGIN 2 */
  int state_past = 0 , value = 0, count = 0;
 80004da:	2300      	movs	r3, #0
 80004dc:	60fb      	str	r3, [r7, #12]
 80004de:	2300      	movs	r3, #0
 80004e0:	607b      	str	r3, [r7, #4]
 80004e2:	2300      	movs	r3, #0
 80004e4:	60bb      	str	r3, [r7, #8]

  /* Infinite loop */
  /* USER CODE BEGIN WHILE */
  while (1)
  {
	  value = HAL_GPIO_ReadPin(GPIOE, GPIO_PIN_4);
 80004e6:	2110      	movs	r1, #16
 80004e8:	4811      	ldr	r0, [pc, #68]	@ (8000530 <main+0x78>)
 80004ea:	f000 ff5b 	bl	80013a4 <HAL_GPIO_ReadPin>
 80004ee:	4603      	mov	r3, r0
 80004f0:	607b      	str	r3, [r7, #4]
//	  past = HAL_GetTick();
	  if (value == 0){
 80004f2:	687b      	ldr	r3, [r7, #4]
 80004f4:	2b00      	cmp	r3, #0
 80004f6:	d105      	bne.n	8000504 <main+0x4c>
		  HAL_GPIO_WritePin(GPIOD, GPIO_PIN_15, 0);
 80004f8:	2200      	movs	r2, #0
 80004fa:	f44f 4100 	mov.w	r1, #32768	@ 0x8000
 80004fe:	480d      	ldr	r0, [pc, #52]	@ (8000534 <main+0x7c>)
 8000500:	f000 ff68 	bl	80013d4 <HAL_GPIO_WritePin>
	  }
	  if (value!=state_past&&value==1){
 8000504:	687a      	ldr	r2, [r7, #4]
 8000506:	68fb      	ldr	r3, [r7, #12]
 8000508:	429a      	cmp	r2, r3
 800050a:	d00b      	beq.n	8000524 <main+0x6c>
 800050c:	687b      	ldr	r3, [r7, #4]
 800050e:	2b01      	cmp	r3, #1
 8000510:	d108      	bne.n	8000524 <main+0x6c>
		  count ++;
 8000512:	68bb      	ldr	r3, [r7, #8]
 8000514:	3301      	adds	r3, #1
 8000516:	60bb      	str	r3, [r7, #8]
		  HAL_GPIO_WritePin(GPIOD, GPIO_PIN_15, 1);
 8000518:	2201      	movs	r2, #1
 800051a:	f44f 4100 	mov.w	r1, #32768	@ 0x8000
 800051e:	4805      	ldr	r0, [pc, #20]	@ (8000534 <main+0x7c>)
 8000520:	f000 ff58 	bl	80013d4 <HAL_GPIO_WritePin>
	  }
	  state_past = value;
 8000524:	687b      	ldr	r3, [r7, #4]
 8000526:	60fb      	str	r3, [r7, #12]
    /* USER CODE END WHILE */
    MX_USB_HOST_Process();
 8000528:	f007 fece 	bl	80082c8 <MX_USB_HOST_Process>
	  value = HAL_GPIO_ReadPin(GPIOE, GPIO_PIN_4);
 800052c:	e7db      	b.n	80004e6 <main+0x2e>
 800052e:	bf00      	nop
 8000530:	40021000 	.word	0x40021000
 8000534:	40020c00 	.word	0x40020c00

08000538 <SystemClock_Config>:
/**
  * @brief System Clock Configuration
  * @retval None
  */
void SystemClock_Config(void)
{
 8000538:	b580      	push	{r7, lr}
 800053a:	b094      	sub	sp, #80	@ 0x50
 800053c:	af00      	add	r7, sp, #0
  RCC_OscInitTypeDef RCC_OscInitStruct = {0};
 800053e:	f107 0320 	add.w	r3, r7, #32
 8000542:	2230      	movs	r2, #48	@ 0x30
 8000544:	2100      	movs	r1, #0
 8000546:	4618      	mov	r0, r3
 8000548:	f008 fa60 	bl	8008a0c <memset>
  RCC_ClkInitTypeDef RCC_ClkInitStruct = {0};
 800054c:	f107 030c 	add.w	r3, r7, #12
 8000550:	2200      	movs	r2, #0
 8000552:	601a      	str	r2, [r3, #0]
 8000554:	605a      	str	r2, [r3, #4]
 8000556:	609a      	str	r2, [r3, #8]
 8000558:	60da      	str	r2, [r3, #12]
 800055a:	611a      	str	r2, [r3, #16]

  /** Configure the main internal regulator output voltage
  */
  __HAL_RCC_PWR_CLK_ENABLE();
 800055c:	2300      	movs	r3, #0
 800055e:	60bb      	str	r3, [r7, #8]
 8000560:	4b28      	ldr	r3, [pc, #160]	@ (8000604 <SystemClock_Config+0xcc>)
 8000562:	6c1b      	ldr	r3, [r3, #64]	@ 0x40
 8000564:	4a27      	ldr	r2, [pc, #156]	@ (8000604 <SystemClock_Config+0xcc>)
 8000566:	f043 5380 	orr.w	r3, r3, #268435456	@ 0x10000000
 800056a:	6413      	str	r3, [r2, #64]	@ 0x40
 800056c:	4b25      	ldr	r3, [pc, #148]	@ (8000604 <SystemClock_Config+0xcc>)
 800056e:	6c1b      	ldr	r3, [r3, #64]	@ 0x40
 8000570:	f003 5380 	and.w	r3, r3, #268435456	@ 0x10000000
 8000574:	60bb      	str	r3, [r7, #8]
 8000576:	68bb      	ldr	r3, [r7, #8]
  __HAL_PWR_VOLTAGESCALING_CONFIG(PWR_REGULATOR_VOLTAGE_SCALE1);
 8000578:	2300      	movs	r3, #0
 800057a:	607b      	str	r3, [r7, #4]
 800057c:	4b22      	ldr	r3, [pc, #136]	@ (8000608 <SystemClock_Config+0xd0>)
 800057e:	681b      	ldr	r3, [r3, #0]
 8000580:	4a21      	ldr	r2, [pc, #132]	@ (8000608 <SystemClock_Config+0xd0>)
 8000582:	f443 4380 	orr.w	r3, r3, #16384	@ 0x4000
 8000586:	6013      	str	r3, [r2, #0]
 8000588:	4b1f      	ldr	r3, [pc, #124]	@ (8000608 <SystemClock_Config+0xd0>)
 800058a:	681b      	ldr	r3, [r3, #0]
 800058c:	f403 4380 	and.w	r3, r3, #16384	@ 0x4000
 8000590:	607b      	str	r3, [r7, #4]
 8000592:	687b      	ldr	r3, [r7, #4]

  /** Initializes the RCC Oscillators according to the specified parameters
  * in the RCC_OscInitTypeDef structure.
  */
  RCC_OscInitStruct.OscillatorType = RCC_OSCILLATORTYPE_HSE;
 8000594:	2301      	movs	r3, #1
 8000596:	623b      	str	r3, [r7, #32]
  RCC_OscInitStruct.HSEState = RCC_HSE_ON;
 8000598:	f44f 3380 	mov.w	r3, #65536	@ 0x10000
 800059c:	627b      	str	r3, [r7, #36]	@ 0x24
  RCC_OscInitStruct.PLL.PLLState = RCC_PLL_ON;
 800059e:	2302      	movs	r3, #2
 80005a0:	63bb      	str	r3, [r7, #56]	@ 0x38
  RCC_OscInitStruct.PLL.PLLSource = RCC_PLLSOURCE_HSE;
 80005a2:	f44f 0380 	mov.w	r3, #4194304	@ 0x400000
 80005a6:	63fb      	str	r3, [r7, #60]	@ 0x3c
  RCC_OscInitStruct.PLL.PLLM = 8;
 80005a8:	2308      	movs	r3, #8
 80005aa:	643b      	str	r3, [r7, #64]	@ 0x40
  RCC_OscInitStruct.PLL.PLLN = 336;
 80005ac:	f44f 73a8 	mov.w	r3, #336	@ 0x150
 80005b0:	647b      	str	r3, [r7, #68]	@ 0x44
  RCC_OscInitStruct.PLL.PLLP = RCC_PLLP_DIV2;
 80005b2:	2302      	movs	r3, #2
 80005b4:	64bb      	str	r3, [r7, #72]	@ 0x48
  RCC_OscInitStruct.PLL.PLLQ = 7;
 80005b6:	2307      	movs	r3, #7
 80005b8:	64fb      	str	r3, [r7, #76]	@ 0x4c
  if (HAL_RCC_OscConfig(&RCC_OscInitStruct) != HAL_OK)
 80005ba:	f107 0320 	add.w	r3, r7, #32
 80005be:	4618      	mov	r0, r3
 80005c0:	f003 fe20 	bl	8004204 <HAL_RCC_OscConfig>
 80005c4:	4603      	mov	r3, r0
 80005c6:	2b00      	cmp	r3, #0
 80005c8:	d001      	beq.n	80005ce <SystemClock_Config+0x96>
  {
    Error_Handler();
 80005ca:	f000 f9bd 	bl	8000948 <Error_Handler>
  }

  /** Initializes the CPU, AHB and APB buses clocks
  */
  RCC_ClkInitStruct.ClockType = RCC_CLOCKTYPE_HCLK|RCC_CLOCKTYPE_SYSCLK
 80005ce:	230f      	movs	r3, #15
 80005d0:	60fb      	str	r3, [r7, #12]
                              |RCC_CLOCKTYPE_PCLK1|RCC_CLOCKTYPE_PCLK2;
  RCC_ClkInitStruct.SYSCLKSource = RCC_SYSCLKSOURCE_PLLCLK;
 80005d2:	2302      	movs	r3, #2
 80005d4:	613b      	str	r3, [r7, #16]
  RCC_ClkInitStruct.AHBCLKDivider = RCC_SYSCLK_DIV1;
 80005d6:	2300      	movs	r3, #0
 80005d8:	617b      	str	r3, [r7, #20]
  RCC_ClkInitStruct.APB1CLKDivider = RCC_HCLK_DIV4;
 80005da:	f44f 53a0 	mov.w	r3, #5120	@ 0x1400
 80005de:	61bb      	str	r3, [r7, #24]
  RCC_ClkInitStruct.APB2CLKDivider = RCC_HCLK_DIV2;
 80005e0:	f44f 5380 	mov.w	r3, #4096	@ 0x1000
 80005e4:	61fb      	str	r3, [r7, #28]

  if (HAL_RCC_ClockConfig(&RCC_ClkInitStruct, FLASH_LATENCY_5) != HAL_OK)
 80005e6:	f107 030c 	add.w	r3, r7, #12
 80005ea:	2105      	movs	r1, #5
 80005ec:	4618      	mov	r0, r3
 80005ee:	f004 f881 	bl	80046f4 <HAL_RCC_ClockConfig>
 80005f2:	4603      	mov	r3, r0
 80005f4:	2b00      	cmp	r3, #0
 80005f6:	d001      	beq.n	80005fc <SystemClock_Config+0xc4>
  {
    Error_Handler();
 80005f8:	f000 f9a6 	bl	8000948 <Error_Handler>
  }
}
 80005fc:	bf00      	nop
 80005fe:	3750      	adds	r7, #80	@ 0x50
 8000600:	46bd      	mov	sp, r7
 8000602:	bd80      	pop	{r7, pc}
 8000604:	40023800 	.word	0x40023800
 8000608:	40007000 	.word	0x40007000

0800060c <MX_I2C1_Init>:
  * @brief I2C1 Initialization Function
  * @param None
  * @retval None
  */
static void MX_I2C1_Init(void)
{
 800060c:	b580      	push	{r7, lr}
 800060e:	af00      	add	r7, sp, #0
  /* USER CODE END I2C1_Init 0 */

  /* USER CODE BEGIN I2C1_Init 1 */

  /* USER CODE END I2C1_Init 1 */
  hi2c1.Instance = I2C1;
 8000610:	4b12      	ldr	r3, [pc, #72]	@ (800065c <MX_I2C1_Init+0x50>)
 8000612:	4a13      	ldr	r2, [pc, #76]	@ (8000660 <MX_I2C1_Init+0x54>)
 8000614:	601a      	str	r2, [r3, #0]
  hi2c1.Init.ClockSpeed = 100000;
 8000616:	4b11      	ldr	r3, [pc, #68]	@ (800065c <MX_I2C1_Init+0x50>)
 8000618:	4a12      	ldr	r2, [pc, #72]	@ (8000664 <MX_I2C1_Init+0x58>)
 800061a:	605a      	str	r2, [r3, #4]
  hi2c1.Init.DutyCycle = I2C_DUTYCYCLE_2;
 800061c:	4b0f      	ldr	r3, [pc, #60]	@ (800065c <MX_I2C1_Init+0x50>)
 800061e:	2200      	movs	r2, #0
 8000620:	609a      	str	r2, [r3, #8]
  hi2c1.Init.OwnAddress1 = 0;
 8000622:	4b0e      	ldr	r3, [pc, #56]	@ (800065c <MX_I2C1_Init+0x50>)
 8000624:	2200      	movs	r2, #0
 8000626:	60da      	str	r2, [r3, #12]
  hi2c1.Init.AddressingMode = I2C_ADDRESSINGMODE_7BIT;
 8000628:	4b0c      	ldr	r3, [pc, #48]	@ (800065c <MX_I2C1_Init+0x50>)
 800062a:	f44f 4280 	mov.w	r2, #16384	@ 0x4000
 800062e:	611a      	str	r2, [r3, #16]
  hi2c1.Init.DualAddressMode = I2C_DUALADDRESS_DISABLE;
 8000630:	4b0a      	ldr	r3, [pc, #40]	@ (800065c <MX_I2C1_Init+0x50>)
 8000632:	2200      	movs	r2, #0
 8000634:	615a      	str	r2, [r3, #20]
  hi2c1.Init.OwnAddress2 = 0;
 8000636:	4b09      	ldr	r3, [pc, #36]	@ (800065c <MX_I2C1_Init+0x50>)
 8000638:	2200      	movs	r2, #0
 800063a:	619a      	str	r2, [r3, #24]
  hi2c1.Init.GeneralCallMode = I2C_GENERALCALL_DISABLE;
 800063c:	4b07      	ldr	r3, [pc, #28]	@ (800065c <MX_I2C1_Init+0x50>)
 800063e:	2200      	movs	r2, #0
 8000640:	61da      	str	r2, [r3, #28]
  hi2c1.Init.NoStretchMode = I2C_NOSTRETCH_DISABLE;
 8000642:	4b06      	ldr	r3, [pc, #24]	@ (800065c <MX_I2C1_Init+0x50>)
 8000644:	2200      	movs	r2, #0
 8000646:	621a      	str	r2, [r3, #32]
  if (HAL_I2C_Init(&hi2c1) != HAL_OK)
 8000648:	4804      	ldr	r0, [pc, #16]	@ (800065c <MX_I2C1_Init+0x50>)
 800064a:	f002 fff7 	bl	800363c <HAL_I2C_Init>
 800064e:	4603      	mov	r3, r0
 8000650:	2b00      	cmp	r3, #0
 8000652:	d001      	beq.n	8000658 <MX_I2C1_Init+0x4c>
  {
    Error_Handler();
 8000654:	f000 f978 	bl	8000948 <Error_Handler>
  }
  /* USER CODE BEGIN I2C1_Init 2 */

  /* USER CODE END I2C1_Init 2 */

}
 8000658:	bf00      	nop
 800065a:	bd80      	pop	{r7, pc}
 800065c:	20000098 	.word	0x20000098
 8000660:	40005400 	.word	0x40005400
 8000664:	000186a0 	.word	0x000186a0

08000668 <MX_I2S3_Init>:
  * @brief I2S3 Initialization Function
  * @param None
  * @retval None
  */
static void MX_I2S3_Init(void)
{
 8000668:	b580      	push	{r7, lr}
 800066a:	af00      	add	r7, sp, #0
  /* USER CODE END I2S3_Init 0 */

  /* USER CODE BEGIN I2S3_Init 1 */

  /* USER CODE END I2S3_Init 1 */
  hi2s3.Instance = SPI3;
 800066c:	4b13      	ldr	r3, [pc, #76]	@ (80006bc <MX_I2S3_Init+0x54>)
 800066e:	4a14      	ldr	r2, [pc, #80]	@ (80006c0 <MX_I2S3_Init+0x58>)
 8000670:	601a      	str	r2, [r3, #0]
  hi2s3.Init.Mode = I2S_MODE_MASTER_TX;
 8000672:	4b12      	ldr	r3, [pc, #72]	@ (80006bc <MX_I2S3_Init+0x54>)
 8000674:	f44f 7200 	mov.w	r2, #512	@ 0x200
 8000678:	605a      	str	r2, [r3, #4]
  hi2s3.Init.Standard = I2S_STANDARD_PHILIPS;
 800067a:	4b10      	ldr	r3, [pc, #64]	@ (80006bc <MX_I2S3_Init+0x54>)
 800067c:	2200      	movs	r2, #0
 800067e:	609a      	str	r2, [r3, #8]
  hi2s3.Init.DataFormat = I2S_DATAFORMAT_16B;
 8000680:	4b0e      	ldr	r3, [pc, #56]	@ (80006bc <MX_I2S3_Init+0x54>)
 8000682:	2200      	movs	r2, #0
 8000684:	60da      	str	r2, [r3, #12]
  hi2s3.Init.MCLKOutput = I2S_MCLKOUTPUT_ENABLE;
 8000686:	4b0d      	ldr	r3, [pc, #52]	@ (80006bc <MX_I2S3_Init+0x54>)
 8000688:	f44f 7200 	mov.w	r2, #512	@ 0x200
 800068c:	611a      	str	r2, [r3, #16]
  hi2s3.Init.AudioFreq = I2S_AUDIOFREQ_96K;
 800068e:	4b0b      	ldr	r3, [pc, #44]	@ (80006bc <MX_I2S3_Init+0x54>)
 8000690:	4a0c      	ldr	r2, [pc, #48]	@ (80006c4 <MX_I2S3_Init+0x5c>)
 8000692:	615a      	str	r2, [r3, #20]
  hi2s3.Init.CPOL = I2S_CPOL_LOW;
 8000694:	4b09      	ldr	r3, [pc, #36]	@ (80006bc <MX_I2S3_Init+0x54>)
 8000696:	2200      	movs	r2, #0
 8000698:	619a      	str	r2, [r3, #24]
  hi2s3.Init.ClockSource = I2S_CLOCK_PLL;
 800069a:	4b08      	ldr	r3, [pc, #32]	@ (80006bc <MX_I2S3_Init+0x54>)
 800069c:	2200      	movs	r2, #0
 800069e:	61da      	str	r2, [r3, #28]
  hi2s3.Init.FullDuplexMode = I2S_FULLDUPLEXMODE_DISABLE;
 80006a0:	4b06      	ldr	r3, [pc, #24]	@ (80006bc <MX_I2S3_Init+0x54>)
 80006a2:	2200      	movs	r2, #0
 80006a4:	621a      	str	r2, [r3, #32]
  if (HAL_I2S_Init(&hi2s3) != HAL_OK)
 80006a6:	4805      	ldr	r0, [pc, #20]	@ (80006bc <MX_I2S3_Init+0x54>)
 80006a8:	f003 f90c 	bl	80038c4 <HAL_I2S_Init>
 80006ac:	4603      	mov	r3, r0
 80006ae:	2b00      	cmp	r3, #0
 80006b0:	d001      	beq.n	80006b6 <MX_I2S3_Init+0x4e>
  {
    Error_Handler();
 80006b2:	f000 f949 	bl	8000948 <Error_Handler>
  }
  /* USER CODE BEGIN I2S3_Init 2 */

  /* USER CODE END I2S3_Init 2 */

}
 80006b6:	bf00      	nop
 80006b8:	bd80      	pop	{r7, pc}
 80006ba:	bf00      	nop
 80006bc:	200000ec 	.word	0x200000ec
 80006c0:	40003c00 	.word	0x40003c00
 80006c4:	00017700 	.word	0x00017700

080006c8 <MX_SPI1_Init>:
  * @brief SPI1 Initialization Function
  * @param None
  * @retval None
  */
static void MX_SPI1_Init(void)
{
 80006c8:	b580      	push	{r7, lr}
 80006ca:	af00      	add	r7, sp, #0

  /* USER CODE BEGIN SPI1_Init 1 */

  /* USER CODE END SPI1_Init 1 */
  /* SPI1 parameter configuration*/
  hspi1.Instance = SPI1;
 80006cc:	4b17      	ldr	r3, [pc, #92]	@ (800072c <MX_SPI1_Init+0x64>)
 80006ce:	4a18      	ldr	r2, [pc, #96]	@ (8000730 <MX_SPI1_Init+0x68>)
 80006d0:	601a      	str	r2, [r3, #0]
  hspi1.Init.Mode = SPI_MODE_MASTER;
 80006d2:	4b16      	ldr	r3, [pc, #88]	@ (800072c <MX_SPI1_Init+0x64>)
 80006d4:	f44f 7282 	mov.w	r2, #260	@ 0x104
 80006d8:	605a      	str	r2, [r3, #4]
  hspi1.Init.Direction = SPI_DIRECTION_2LINES;
 80006da:	4b14      	ldr	r3, [pc, #80]	@ (800072c <MX_SPI1_Init+0x64>)
 80006dc:	2200      	movs	r2, #0
 80006de:	609a      	str	r2, [r3, #8]
  hspi1.Init.DataSize = SPI_DATASIZE_8BIT;
 80006e0:	4b12      	ldr	r3, [pc, #72]	@ (800072c <MX_SPI1_Init+0x64>)
 80006e2:	2200      	movs	r2, #0
 80006e4:	60da      	str	r2, [r3, #12]
  hspi1.Init.CLKPolarity = SPI_POLARITY_LOW;
 80006e6:	4b11      	ldr	r3, [pc, #68]	@ (800072c <MX_SPI1_Init+0x64>)
 80006e8:	2200      	movs	r2, #0
 80006ea:	611a      	str	r2, [r3, #16]
  hspi1.Init.CLKPhase = SPI_PHASE_1EDGE;
 80006ec:	4b0f      	ldr	r3, [pc, #60]	@ (800072c <MX_SPI1_Init+0x64>)
 80006ee:	2200      	movs	r2, #0
 80006f0:	615a      	str	r2, [r3, #20]
  hspi1.Init.NSS = SPI_NSS_SOFT;
 80006f2:	4b0e      	ldr	r3, [pc, #56]	@ (800072c <MX_SPI1_Init+0x64>)
 80006f4:	f44f 7200 	mov.w	r2, #512	@ 0x200
 80006f8:	619a      	str	r2, [r3, #24]
  hspi1.Init.BaudRatePrescaler = SPI_BAUDRATEPRESCALER_2;
 80006fa:	4b0c      	ldr	r3, [pc, #48]	@ (800072c <MX_SPI1_Init+0x64>)
 80006fc:	2200      	movs	r2, #0
 80006fe:	61da      	str	r2, [r3, #28]
  hspi1.Init.FirstBit = SPI_FIRSTBIT_MSB;
 8000700:	4b0a      	ldr	r3, [pc, #40]	@ (800072c <MX_SPI1_Init+0x64>)
 8000702:	2200      	movs	r2, #0
 8000704:	621a      	str	r2, [r3, #32]
  hspi1.Init.TIMode = SPI_TIMODE_DISABLE;
 8000706:	4b09      	ldr	r3, [pc, #36]	@ (800072c <MX_SPI1_Init+0x64>)
 8000708:	2200      	movs	r2, #0
 800070a:	625a      	str	r2, [r3, #36]	@ 0x24
  hspi1.Init.CRCCalculation = SPI_CRCCALCULATION_DISABLE;
 800070c:	4b07      	ldr	r3, [pc, #28]	@ (800072c <MX_SPI1_Init+0x64>)
 800070e:	2200      	movs	r2, #0
 8000710:	629a      	str	r2, [r3, #40]	@ 0x28
  hspi1.Init.CRCPolynomial = 10;
 8000712:	4b06      	ldr	r3, [pc, #24]	@ (800072c <MX_SPI1_Init+0x64>)
 8000714:	220a      	movs	r2, #10
 8000716:	62da      	str	r2, [r3, #44]	@ 0x2c
  if (HAL_SPI_Init(&hspi1) != HAL_OK)
 8000718:	4804      	ldr	r0, [pc, #16]	@ (800072c <MX_SPI1_Init+0x64>)
 800071a:	f004 fb39 	bl	8004d90 <HAL_SPI_Init>
 800071e:	4603      	mov	r3, r0
 8000720:	2b00      	cmp	r3, #0
 8000722:	d001      	beq.n	8000728 <MX_SPI1_Init+0x60>
  {
    Error_Handler();
 8000724:	f000 f910 	bl	8000948 <Error_Handler>
  }
  /* USER CODE BEGIN SPI1_Init 2 */

  /* USER CODE END SPI1_Init 2 */

}
 8000728:	bf00      	nop
 800072a:	bd80      	pop	{r7, pc}
 800072c:	20000134 	.word	0x20000134
 8000730:	40013000 	.word	0x40013000

08000734 <MX_GPIO_Init>:
  * @brief GPIO Initialization Function
  * @param None
  * @retval None
  */
static void MX_GPIO_Init(void)
{
 8000734:	b580      	push	{r7, lr}
 8000736:	b08c      	sub	sp, #48	@ 0x30
 8000738:	af00      	add	r7, sp, #0
  GPIO_InitTypeDef GPIO_InitStruct = {0};
 800073a:	f107 031c 	add.w	r3, r7, #28
 800073e:	2200      	movs	r2, #0
 8000740:	601a      	str	r2, [r3, #0]
 8000742:	605a      	str	r2, [r3, #4]
 8000744:	609a      	str	r2, [r3, #8]
 8000746:	60da      	str	r2, [r3, #12]
 8000748:	611a      	str	r2, [r3, #16]
/* USER CODE BEGIN MX_GPIO_Init_1 */
/* USER CODE END MX_GPIO_Init_1 */

  /* GPIO Ports Clock Enable */
  __HAL_RCC_GPIOE_CLK_ENABLE();
 800074a:	2300      	movs	r3, #0
 800074c:	61bb      	str	r3, [r7, #24]
 800074e:	4b78      	ldr	r3, [pc, #480]	@ (8000930 <MX_GPIO_Init+0x1fc>)
 8000750:	6b1b      	ldr	r3, [r3, #48]	@ 0x30
 8000752:	4a77      	ldr	r2, [pc, #476]	@ (8000930 <MX_GPIO_Init+0x1fc>)
 8000754:	f043 0310 	orr.w	r3, r3, #16
 8000758:	6313      	str	r3, [r2, #48]	@ 0x30
 800075a:	4b75      	ldr	r3, [pc, #468]	@ (8000930 <MX_GPIO_Init+0x1fc>)
 800075c:	6b1b      	ldr	r3, [r3, #48]	@ 0x30
 800075e:	f003 0310 	and.w	r3, r3, #16
 8000762:	61bb      	str	r3, [r7, #24]
 8000764:	69bb      	ldr	r3, [r7, #24]
  __HAL_RCC_GPIOC_CLK_ENABLE();
 8000766:	2300      	movs	r3, #0
 8000768:	617b      	str	r3, [r7, #20]
 800076a:	4b71      	ldr	r3, [pc, #452]	@ (8000930 <MX_GPIO_Init+0x1fc>)
 800076c:	6b1b      	ldr	r3, [r3, #48]	@ 0x30
 800076e:	4a70      	ldr	r2, [pc, #448]	@ (8000930 <MX_GPIO_Init+0x1fc>)
 8000770:	f043 0304 	orr.w	r3, r3, #4
 8000774:	6313      	str	r3, [r2, #48]	@ 0x30
 8000776:	4b6e      	ldr	r3, [pc, #440]	@ (8000930 <MX_GPIO_Init+0x1fc>)
 8000778:	6b1b      	ldr	r3, [r3, #48]	@ 0x30
 800077a:	f003 0304 	and.w	r3, r3, #4
 800077e:	617b      	str	r3, [r7, #20]
 8000780:	697b      	ldr	r3, [r7, #20]
  __HAL_RCC_GPIOH_CLK_ENABLE();
 8000782:	2300      	movs	r3, #0
 8000784:	613b      	str	r3, [r7, #16]
 8000786:	4b6a      	ldr	r3, [pc, #424]	@ (8000930 <MX_GPIO_Init+0x1fc>)
 8000788:	6b1b      	ldr	r3, [r3, #48]	@ 0x30
 800078a:	4a69      	ldr	r2, [pc, #420]	@ (8000930 <MX_GPIO_Init+0x1fc>)
 800078c:	f043 0380 	orr.w	r3, r3, #128	@ 0x80
 8000790:	6313      	str	r3, [r2, #48]	@ 0x30
 8000792:	4b67      	ldr	r3, [pc, #412]	@ (8000930 <MX_GPIO_Init+0x1fc>)
 8000794:	6b1b      	ldr	r3, [r3, #48]	@ 0x30
 8000796:	f003 0380 	and.w	r3, r3, #128	@ 0x80
 800079a:	613b      	str	r3, [r7, #16]
 800079c:	693b      	ldr	r3, [r7, #16]
  __HAL_RCC_GPIOA_CLK_ENABLE();
 800079e:	2300      	movs	r3, #0
 80007a0:	60fb      	str	r3, [r7, #12]
 80007a2:	4b63      	ldr	r3, [pc, #396]	@ (8000930 <MX_GPIO_Init+0x1fc>)
 80007a4:	6b1b      	ldr	r3, [r3, #48]	@ 0x30
 80007a6:	4a62      	ldr	r2, [pc, #392]	@ (8000930 <MX_GPIO_Init+0x1fc>)
 80007a8:	f043 0301 	orr.w	r3, r3, #1
 80007ac:	6313      	str	r3, [r2, #48]	@ 0x30
 80007ae:	4b60      	ldr	r3, [pc, #384]	@ (8000930 <MX_GPIO_Init+0x1fc>)
 80007b0:	6b1b      	ldr	r3, [r3, #48]	@ 0x30
 80007b2:	f003 0301 	and.w	r3, r3, #1
 80007b6:	60fb      	str	r3, [r7, #12]
 80007b8:	68fb      	ldr	r3, [r7, #12]
  __HAL_RCC_GPIOB_CLK_ENABLE();
 80007ba:	2300      	movs	r3, #0
 80007bc:	60bb      	str	r3, [r7, #8]
 80007be:	4b5c      	ldr	r3, [pc, #368]	@ (8000930 <MX_GPIO_Init+0x1fc>)
 80007c0:	6b1b      	ldr	r3, [r3, #48]	@ 0x30
 80007c2:	4a5b      	ldr	r2, [pc, #364]	@ (8000930 <MX_GPIO_Init+0x1fc>)
 80007c4:	f043 0302 	orr.w	r3, r3, #2
 80007c8:	6313      	str	r3, [r2, #48]	@ 0x30
 80007ca:	4b59      	ldr	r3, [pc, #356]	@ (8000930 <MX_GPIO_Init+0x1fc>)
 80007cc:	6b1b      	ldr	r3, [r3, #48]	@ 0x30
 80007ce:	f003 0302 	and.w	r3, r3, #2
 80007d2:	60bb      	str	r3, [r7, #8]
 80007d4:	68bb      	ldr	r3, [r7, #8]
  __HAL_RCC_GPIOD_CLK_ENABLE();
 80007d6:	2300      	movs	r3, #0
 80007d8:	607b      	str	r3, [r7, #4]
 80007da:	4b55      	ldr	r3, [pc, #340]	@ (8000930 <MX_GPIO_Init+0x1fc>)
 80007dc:	6b1b      	ldr	r3, [r3, #48]	@ 0x30
 80007de:	4a54      	ldr	r2, [pc, #336]	@ (8000930 <MX_GPIO_Init+0x1fc>)
 80007e0:	f043 0308 	orr.w	r3, r3, #8
 80007e4:	6313      	str	r3, [r2, #48]	@ 0x30
 80007e6:	4b52      	ldr	r3, [pc, #328]	@ (8000930 <MX_GPIO_Init+0x1fc>)
 80007e8:	6b1b      	ldr	r3, [r3, #48]	@ 0x30
 80007ea:	f003 0308 	and.w	r3, r3, #8
 80007ee:	607b      	str	r3, [r7, #4]
 80007f0:	687b      	ldr	r3, [r7, #4]

  /*Configure GPIO pin Output Level */
  HAL_GPIO_WritePin(CS_I2C_SPI_GPIO_Port, CS_I2C_SPI_Pin, GPIO_PIN_RESET);
 80007f2:	2200      	movs	r2, #0
 80007f4:	2108      	movs	r1, #8
 80007f6:	484f      	ldr	r0, [pc, #316]	@ (8000934 <MX_GPIO_Init+0x200>)
 80007f8:	f000 fdec 	bl	80013d4 <HAL_GPIO_WritePin>

  /*Configure GPIO pin Output Level */
  HAL_GPIO_WritePin(OTG_FS_PowerSwitchOn_GPIO_Port, OTG_FS_PowerSwitchOn_Pin, GPIO_PIN_SET);
 80007fc:	2201      	movs	r2, #1
 80007fe:	2101      	movs	r1, #1
 8000800:	484d      	ldr	r0, [pc, #308]	@ (8000938 <MX_GPIO_Init+0x204>)
 8000802:	f000 fde7 	bl	80013d4 <HAL_GPIO_WritePin>

  /*Configure GPIO pin Output Level */
  HAL_GPIO_WritePin(GPIOD, LD4_Pin|LD3_Pin|LD5_Pin|LD6_Pin
 8000806:	2200      	movs	r2, #0
 8000808:	f24f 0110 	movw	r1, #61456	@ 0xf010
 800080c:	484b      	ldr	r0, [pc, #300]	@ (800093c <MX_GPIO_Init+0x208>)
 800080e:	f000 fde1 	bl	80013d4 <HAL_GPIO_WritePin>
                          |Audio_RST_Pin, GPIO_PIN_RESET);

  /*Configure GPIO pin : CS_I2C_SPI_Pin */
  GPIO_InitStruct.Pin = CS_I2C_SPI_Pin;
 8000812:	2308      	movs	r3, #8
 8000814:	61fb      	str	r3, [r7, #28]
  GPIO_InitStruct.Mode = GPIO_MODE_OUTPUT_PP;
 8000816:	2301      	movs	r3, #1
 8000818:	623b      	str	r3, [r7, #32]
  GPIO_InitStruct.Pull = GPIO_NOPULL;
 800081a:	2300      	movs	r3, #0
 800081c:	627b      	str	r3, [r7, #36]	@ 0x24
  GPIO_InitStruct.Speed = GPIO_SPEED_FREQ_LOW;
 800081e:	2300      	movs	r3, #0
 8000820:	62bb      	str	r3, [r7, #40]	@ 0x28
  HAL_GPIO_Init(CS_I2C_SPI_GPIO_Port, &GPIO_InitStruct);
 8000822:	f107 031c 	add.w	r3, r7, #28
 8000826:	4619      	mov	r1, r3
 8000828:	4842      	ldr	r0, [pc, #264]	@ (8000934 <MX_GPIO_Init+0x200>)
 800082a:	f000 fc1f 	bl	800106c <HAL_GPIO_Init>

  /*Configure GPIO pin : PE4 */
  GPIO_InitStruct.Pin = GPIO_PIN_4;
 800082e:	2310      	movs	r3, #16
 8000830:	61fb      	str	r3, [r7, #28]
  GPIO_InitStruct.Mode = GPIO_MODE_INPUT;
 8000832:	2300      	movs	r3, #0
 8000834:	623b      	str	r3, [r7, #32]
  GPIO_InitStruct.Pull = GPIO_NOPULL;
 8000836:	2300      	movs	r3, #0
 8000838:	627b      	str	r3, [r7, #36]	@ 0x24
  HAL_GPIO_Init(GPIOE, &GPIO_InitStruct);
 800083a:	f107 031c 	add.w	r3, r7, #28
 800083e:	4619      	mov	r1, r3
 8000840:	483c      	ldr	r0, [pc, #240]	@ (8000934 <MX_GPIO_Init+0x200>)
 8000842:	f000 fc13 	bl	800106c <HAL_GPIO_Init>

  /*Configure GPIO pin : OTG_FS_PowerSwitchOn_Pin */
  GPIO_InitStruct.Pin = OTG_FS_PowerSwitchOn_Pin;
 8000846:	2301      	movs	r3, #1
 8000848:	61fb      	str	r3, [r7, #28]
  GPIO_InitStruct.Mode = GPIO_MODE_OUTPUT_PP;
 800084a:	2301      	movs	r3, #1
 800084c:	623b      	str	r3, [r7, #32]
  GPIO_InitStruct.Pull = GPIO_NOPULL;
 800084e:	2300      	movs	r3, #0
 8000850:	627b      	str	r3, [r7, #36]	@ 0x24
  GPIO_InitStruct.Speed = GPIO_SPEED_FREQ_LOW;
 8000852:	2300      	movs	r3, #0
 8000854:	62bb      	str	r3, [r7, #40]	@ 0x28
  HAL_GPIO_Init(OTG_FS_PowerSwitchOn_GPIO_Port, &GPIO_InitStruct);
 8000856:	f107 031c 	add.w	r3, r7, #28
 800085a:	4619      	mov	r1, r3
 800085c:	4836      	ldr	r0, [pc, #216]	@ (8000938 <MX_GPIO_Init+0x204>)
 800085e:	f000 fc05 	bl	800106c <HAL_GPIO_Init>

  /*Configure GPIO pin : PDM_OUT_Pin */
  GPIO_InitStruct.Pin = PDM_OUT_Pin;
 8000862:	2308      	movs	r3, #8
 8000864:	61fb      	str	r3, [r7, #28]
  GPIO_InitStruct.Mode = GPIO_MODE_AF_PP;
 8000866:	2302      	movs	r3, #2
 8000868:	623b      	str	r3, [r7, #32]
  GPIO_InitStruct.Pull = GPIO_NOPULL;
 800086a:	2300      	movs	r3, #0
 800086c:	627b      	str	r3, [r7, #36]	@ 0x24
  GPIO_InitStruct.Speed = GPIO_SPEED_FREQ_LOW;
 800086e:	2300      	movs	r3, #0
 8000870:	62bb      	str	r3, [r7, #40]	@ 0x28
  GPIO_InitStruct.Alternate = GPIO_AF5_SPI2;
 8000872:	2305      	movs	r3, #5
 8000874:	62fb      	str	r3, [r7, #44]	@ 0x2c
  HAL_GPIO_Init(PDM_OUT_GPIO_Port, &GPIO_InitStruct);
 8000876:	f107 031c 	add.w	r3, r7, #28
 800087a:	4619      	mov	r1, r3
 800087c:	482e      	ldr	r0, [pc, #184]	@ (8000938 <MX_GPIO_Init+0x204>)
 800087e:	f000 fbf5 	bl	800106c <HAL_GPIO_Init>

  /*Configure GPIO pin : B1_Pin */
  GPIO_InitStruct.Pin = B1_Pin;
 8000882:	2301      	movs	r3, #1
 8000884:	61fb      	str	r3, [r7, #28]
  GPIO_InitStruct.Mode = GPIO_MODE_EVT_RISING;
 8000886:	f44f 1390 	mov.w	r3, #1179648	@ 0x120000
 800088a:	623b      	str	r3, [r7, #32]
  GPIO_InitStruct.Pull = GPIO_NOPULL;
 800088c:	2300      	movs	r3, #0
 800088e:	627b      	str	r3, [r7, #36]	@ 0x24
  HAL_GPIO_Init(B1_GPIO_Port, &GPIO_InitStruct);
 8000890:	f107 031c 	add.w	r3, r7, #28
 8000894:	4619      	mov	r1, r3
 8000896:	482a      	ldr	r0, [pc, #168]	@ (8000940 <MX_GPIO_Init+0x20c>)
 8000898:	f000 fbe8 	bl	800106c <HAL_GPIO_Init>

  /*Configure GPIO pin : BOOT1_Pin */
  GPIO_InitStruct.Pin = BOOT1_Pin;
 800089c:	2304      	movs	r3, #4
 800089e:	61fb      	str	r3, [r7, #28]
  GPIO_InitStruct.Mode = GPIO_MODE_INPUT;
 80008a0:	2300      	movs	r3, #0
 80008a2:	623b      	str	r3, [r7, #32]
  GPIO_InitStruct.Pull = GPIO_NOPULL;
 80008a4:	2300      	movs	r3, #0
 80008a6:	627b      	str	r3, [r7, #36]	@ 0x24
  HAL_GPIO_Init(BOOT1_GPIO_Port, &GPIO_InitStruct);
 80008a8:	f107 031c 	add.w	r3, r7, #28
 80008ac:	4619      	mov	r1, r3
 80008ae:	4825      	ldr	r0, [pc, #148]	@ (8000944 <MX_GPIO_Init+0x210>)
 80008b0:	f000 fbdc 	bl	800106c <HAL_GPIO_Init>

  /*Configure GPIO pin : CLK_IN_Pin */
  GPIO_InitStruct.Pin = CLK_IN_Pin;
 80008b4:	f44f 6380 	mov.w	r3, #1024	@ 0x400
 80008b8:	61fb      	str	r3, [r7, #28]
  GPIO_InitStruct.Mode = GPIO_MODE_AF_PP;
 80008ba:	2302      	movs	r3, #2
 80008bc:	623b      	str	r3, [r7, #32]
  GPIO_InitStruct.Pull = GPIO_NOPULL;
 80008be:	2300      	movs	r3, #0
 80008c0:	627b      	str	r3, [r7, #36]	@ 0x24
  GPIO_InitStruct.Speed = GPIO_SPEED_FREQ_LOW;
 80008c2:	2300      	movs	r3, #0
 80008c4:	62bb      	str	r3, [r7, #40]	@ 0x28
  GPIO_InitStruct.Alternate = GPIO_AF5_SPI2;
 80008c6:	2305      	movs	r3, #5
 80008c8:	62fb      	str	r3, [r7, #44]	@ 0x2c
  HAL_GPIO_Init(CLK_IN_GPIO_Port, &GPIO_InitStruct);
 80008ca:	f107 031c 	add.w	r3, r7, #28
 80008ce:	4619      	mov	r1, r3
 80008d0:	481c      	ldr	r0, [pc, #112]	@ (8000944 <MX_GPIO_Init+0x210>)
 80008d2:	f000 fbcb 	bl	800106c <HAL_GPIO_Init>

  /*Configure GPIO pins : LD4_Pin LD3_Pin LD5_Pin LD6_Pin
                           Audio_RST_Pin */
  GPIO_InitStruct.Pin = LD4_Pin|LD3_Pin|LD5_Pin|LD6_Pin
 80008d6:	f24f 0310 	movw	r3, #61456	@ 0xf010
 80008da:	61fb      	str	r3, [r7, #28]
                          |Audio_RST_Pin;
  GPIO_InitStruct.Mode = GPIO_MODE_OUTPUT_PP;
 80008dc:	2301      	movs	r3, #1
 80008de:	623b      	str	r3, [r7, #32]
  GPIO_InitStruct.Pull = GPIO_NOPULL;
 80008e0:	2300      	movs	r3, #0
 80008e2:	627b      	str	r3, [r7, #36]	@ 0x24
  GPIO_InitStruct.Speed = GPIO_SPEED_FREQ_LOW;
 80008e4:	2300      	movs	r3, #0
 80008e6:	62bb      	str	r3, [r7, #40]	@ 0x28
  HAL_GPIO_Init(GPIOD, &GPIO_InitStruct);
 80008e8:	f107 031c 	add.w	r3, r7, #28
 80008ec:	4619      	mov	r1, r3
 80008ee:	4813      	ldr	r0, [pc, #76]	@ (800093c <MX_GPIO_Init+0x208>)
 80008f0:	f000 fbbc 	bl	800106c <HAL_GPIO_Init>

  /*Configure GPIO pin : OTG_FS_OverCurrent_Pin */
  GPIO_InitStruct.Pin = OTG_FS_OverCurrent_Pin;
 80008f4:	2320      	movs	r3, #32
 80008f6:	61fb      	str	r3, [r7, #28]
  GPIO_InitStruct.Mode = GPIO_MODE_INPUT;
 80008f8:	2300      	movs	r3, #0
 80008fa:	623b      	str	r3, [r7, #32]
  GPIO_InitStruct.Pull = GPIO_NOPULL;
 80008fc:	2300      	movs	r3, #0
 80008fe:	627b      	str	r3, [r7, #36]	@ 0x24
  HAL_GPIO_Init(OTG_FS_OverCurrent_GPIO_Port, &GPIO_InitStruct);
 8000900:	f107 031c 	add.w	r3, r7, #28
 8000904:	4619      	mov	r1, r3
 8000906:	480d      	ldr	r0, [pc, #52]	@ (800093c <MX_GPIO_Init+0x208>)
 8000908:	f000 fbb0 	bl	800106c <HAL_GPIO_Init>

  /*Configure GPIO pin : MEMS_INT2_Pin */
  GPIO_InitStruct.Pin = MEMS_INT2_Pin;
 800090c:	2302      	movs	r3, #2
 800090e:	61fb      	str	r3, [r7, #28]
  GPIO_InitStruct.Mode = GPIO_MODE_EVT_RISING;
 8000910:	f44f 1390 	mov.w	r3, #1179648	@ 0x120000
 8000914:	623b      	str	r3, [r7, #32]
  GPIO_InitStruct.Pull = GPIO_NOPULL;
 8000916:	2300      	movs	r3, #0
 8000918:	627b      	str	r3, [r7, #36]	@ 0x24
  HAL_GPIO_Init(MEMS_INT2_GPIO_Port, &GPIO_InitStruct);
 800091a:	f107 031c 	add.w	r3, r7, #28
 800091e:	4619      	mov	r1, r3
 8000920:	4804      	ldr	r0, [pc, #16]	@ (8000934 <MX_GPIO_Init+0x200>)
 8000922:	f000 fba3 	bl	800106c <HAL_GPIO_Init>

/* USER CODE BEGIN MX_GPIO_Init_2 */
/* USER CODE END MX_GPIO_Init_2 */
}
 8000926:	bf00      	nop
 8000928:	3730      	adds	r7, #48	@ 0x30
 800092a:	46bd      	mov	sp, r7
 800092c:	bd80      	pop	{r7, pc}
 800092e:	bf00      	nop
 8000930:	40023800 	.word	0x40023800
 8000934:	40021000 	.word	0x40021000
 8000938:	40020800 	.word	0x40020800
 800093c:	40020c00 	.word	0x40020c00
 8000940:	40020000 	.word	0x40020000
 8000944:	40020400 	.word	0x40020400

08000948 <Error_Handler>:
/**
  * @brief  This function is executed in case of error occurrence.
  * @retval None
  */
void Error_Handler(void)
{
 8000948:	b480      	push	{r7}
 800094a:	af00      	add	r7, sp, #0
  \details Disables IRQ interrupts by setting special-purpose register PRIMASK.
           Can only be executed in Privileged modes.
 */
__STATIC_FORCEINLINE void __disable_irq(void)
{
  __ASM volatile ("cpsid i" : : : "memory");
 800094c:	b672      	cpsid	i
}
 800094e:	bf00      	nop
  /* USER CODE BEGIN Error_Handler_Debug */
  /* User can add his own implementation to report the HAL error return state */
  __disable_irq();
  while (1)
 8000950:	bf00      	nop
 8000952:	e7fd      	b.n	8000950 <Error_Handler+0x8>

08000954 <HAL_MspInit>:
 8000954:	b580      	push	{r7, lr}
 8000956:	b082      	sub	sp, #8
 8000958:	af00      	add	r7, sp, #0
 800095a:	2300      	movs	r3, #0
 800095c:	607b      	str	r3, [r7, #4]
 800095e:	4b10      	ldr	r3, [pc, #64]	@ (80009a0 <HAL_MspInit+0x4c>)
 8000960:	6c5b      	ldr	r3, [r3, #68]	@ 0x44
 8000962:	4a0f      	ldr	r2, [pc, #60]	@ (80009a0 <HAL_MspInit+0x4c>)
 8000964:	f443 4380 	orr.w	r3, r3, #16384	@ 0x4000
 8000968:	6453      	str	r3, [r2, #68]	@ 0x44
 800096a:	4b0d      	ldr	r3, [pc, #52]	@ (80009a0 <HAL_MspInit+0x4c>)
 800096c:	6c5b      	ldr	r3, [r3, #68]	@ 0x44
 800096e:	f403 4380 	and.w	r3, r3, #16384	@ 0x4000
 8000972:	607b      	str	r3, [r7, #4]
 8000974:	687b      	ldr	r3, [r7, #4]
 8000976:	2300      	movs	r3, #0
 8000978:	603b      	str	r3, [r7, #0]
 800097a:	4b09      	ldr	r3, [pc, #36]	@ (80009a0 <HAL_MspInit+0x4c>)
 800097c:	6c1b      	ldr	r3, [r3, #64]	@ 0x40
 800097e:	4a08      	ldr	r2, [pc, #32]	@ (80009a0 <HAL_MspInit+0x4c>)
 8000980:	f043 5380 	orr.w	r3, r3, #268435456	@ 0x10000000
 8000984:	6413      	str	r3, [r2, #64]	@ 0x40
 8000986:	4b06      	ldr	r3, [pc, #24]	@ (80009a0 <HAL_MspInit+0x4c>)
 8000988:	6c1b      	ldr	r3, [r3, #64]	@ 0x40
 800098a:	f003 5380 	and.w	r3, r3, #268435456	@ 0x10000000
 800098e:	603b      	str	r3, [r7, #0]
 8000990:	683b      	ldr	r3, [r7, #0]
 8000992:	2007      	movs	r0, #7
 8000994:	f000 fb28 	bl	8000fe8 <HAL_NVIC_SetPriorityGrouping>
 8000998:	bf00      	nop
 800099a:	3708      	adds	r7, #8
 800099c:	46bd      	mov	sp, r7
 800099e:	bd80      	pop	{r7, pc}
 80009a0:	40023800 	.word	0x40023800

080009a4 <HAL_I2C_MspInit>:
 80009a4:	b580      	push	{r7, lr}
 80009a6:	b08a      	sub	sp, #40	@ 0x28
 80009a8:	af00      	add	r7, sp, #0
 80009aa:	6078      	str	r0, [r7, #4]
 80009ac:	f107 0314 	add.w	r3, r7, #20
 80009b0:	2200      	movs	r2, #0
 80009b2:	601a      	str	r2, [r3, #0]
 80009b4:	605a      	str	r2, [r3, #4]
 80009b6:	609a      	str	r2, [r3, #8]
 80009b8:	60da      	str	r2, [r3, #12]
 80009ba:	611a      	str	r2, [r3, #16]
 80009bc:	687b      	ldr	r3, [r7, #4]
 80009be:	681b      	ldr	r3, [r3, #0]
 80009c0:	4a19      	ldr	r2, [pc, #100]	@ (8000a28 <HAL_I2C_MspInit+0x84>)
 80009c2:	4293      	cmp	r3, r2
 80009c4:	d12c      	bne.n	8000a20 <HAL_I2C_MspInit+0x7c>
 80009c6:	2300      	movs	r3, #0
 80009c8:	613b      	str	r3, [r7, #16]
 80009ca:	4b18      	ldr	r3, [pc, #96]	@ (8000a2c <HAL_I2C_MspInit+0x88>)
 80009cc:	6b1b      	ldr	r3, [r3, #48]	@ 0x30
 80009ce:	4a17      	ldr	r2, [pc, #92]	@ (8000a2c <HAL_I2C_MspInit+0x88>)
 80009d0:	f043 0302 	orr.w	r3, r3, #2
 80009d4:	6313      	str	r3, [r2, #48]	@ 0x30
 80009d6:	4b15      	ldr	r3, [pc, #84]	@ (8000a2c <HAL_I2C_MspInit+0x88>)
 80009d8:	6b1b      	ldr	r3, [r3, #48]	@ 0x30
 80009da:	f003 0302 	and.w	r3, r3, #2
 80009de:	613b      	str	r3, [r7, #16]
 80009e0:	693b      	ldr	r3, [r7, #16]
 80009e2:	f44f 7310 	mov.w	r3, #576	@ 0x240
 80009e6:	617b      	str	r3, [r7, #20]
 80009e8:	2312      	movs	r3, #18
 80009ea:	61bb      	str	r3, [r7, #24]
 80009ec:	2301      	movs	r3, #1
 80009ee:	61fb      	str	r3, [r7, #28]
 80009f0:	2300      	movs	r3, #0
 80009f2:	623b      	str	r3, [r7, #32]
 80009f4:	2304      	movs	r3, #4
 80009f6:	627b      	str	r3, [r7, #36]	@ 0x24
 80009f8:	f107 0314 	add.w	r3, r7, #20
 80009fc:	4619      	mov	r1, r3
 80009fe:	480c      	ldr	r0, [pc, #48]	@ (8000a30 <HAL_I2C_MspInit+0x8c>)
 8000a00:	f000 fb34 	bl	800106c <HAL_GPIO_Init>
 8000a04:	2300      	movs	r3, #0
 8000a06:	60fb      	str	r3, [r7, #12]
 8000a08:	4b08      	ldr	r3, [pc, #32]	@ (8000a2c <HAL_I2C_MspInit+0x88>)
 8000a0a:	6c1b      	ldr	r3, [r3, #64]	@ 0x40
 8000a0c:	4a07      	ldr	r2, [pc, #28]	@ (8000a2c <HAL_I2C_MspInit+0x88>)
 8000a0e:	f443 1300 	orr.w	r3, r3, #2097152	@ 0x200000
 8000a12:	6413      	str	r3, [r2, #64]	@ 0x40
 8000a14:	4b05      	ldr	r3, [pc, #20]	@ (8000a2c <HAL_I2C_MspInit+0x88>)
 8000a16:	6c1b      	ldr	r3, [r3, #64]	@ 0x40
 8000a18:	f403 1300 	and.w	r3, r3, #2097152	@ 0x200000
 8000a1c:	60fb      	str	r3, [r7, #12]
 8000a1e:	68fb      	ldr	r3, [r7, #12]
 8000a20:	bf00      	nop
 8000a22:	3728      	adds	r7, #40	@ 0x28
 8000a24:	46bd      	mov	sp, r7
 8000a26:	bd80      	pop	{r7, pc}
 8000a28:	40005400 	.word	0x40005400
 8000a2c:	40023800 	.word	0x40023800
 8000a30:	40020400 	.word	0x40020400

08000a34 <HAL_I2S_MspInit>:
 8000a34:	b580      	push	{r7, lr}
 8000a36:	b08e      	sub	sp, #56	@ 0x38
 8000a38:	af00      	add	r7, sp, #0
 8000a3a:	6078      	str	r0, [r7, #4]
 8000a3c:	f107 0324 	add.w	r3, r7, #36	@ 0x24
 8000a40:	2200      	movs	r2, #0
 8000a42:	601a      	str	r2, [r3, #0]
 8000a44:	605a      	str	r2, [r3, #4]
 8000a46:	609a      	str	r2, [r3, #8]
 8000a48:	60da      	str	r2, [r3, #12]
 8000a4a:	611a      	str	r2, [r3, #16]
 8000a4c:	f107 0314 	add.w	r3, r7, #20
 8000a50:	2200      	movs	r2, #0
 8000a52:	601a      	str	r2, [r3, #0]
 8000a54:	605a      	str	r2, [r3, #4]
 8000a56:	609a      	str	r2, [r3, #8]
 8000a58:	60da      	str	r2, [r3, #12]
 8000a5a:	687b      	ldr	r3, [r7, #4]
 8000a5c:	681b      	ldr	r3, [r3, #0]
 8000a5e:	4a31      	ldr	r2, [pc, #196]	@ (8000b24 <HAL_I2S_MspInit+0xf0>)
 8000a60:	4293      	cmp	r3, r2
 8000a62:	d15a      	bne.n	8000b1a <HAL_I2S_MspInit+0xe6>
 8000a64:	2301      	movs	r3, #1
 8000a66:	617b      	str	r3, [r7, #20]
 8000a68:	23c0      	movs	r3, #192	@ 0xc0
 8000a6a:	61bb      	str	r3, [r7, #24]
 8000a6c:	2302      	movs	r3, #2
 8000a6e:	61fb      	str	r3, [r7, #28]
 8000a70:	f107 0314 	add.w	r3, r7, #20
 8000a74:	4618      	mov	r0, r3
 8000a76:	f004 f849 	bl	8004b0c <HAL_RCCEx_PeriphCLKConfig>
 8000a7a:	4603      	mov	r3, r0
 8000a7c:	2b00      	cmp	r3, #0
 8000a7e:	d001      	beq.n	8000a84 <HAL_I2S_MspInit+0x50>
 8000a80:	f7ff ff62 	bl	8000948 <Error_Handler>
 8000a84:	2300      	movs	r3, #0
 8000a86:	613b      	str	r3, [r7, #16]
 8000a88:	4b27      	ldr	r3, [pc, #156]	@ (8000b28 <HAL_I2S_MspInit+0xf4>)
 8000a8a:	6c1b      	ldr	r3, [r3, #64]	@ 0x40
 8000a8c:	4a26      	ldr	r2, [pc, #152]	@ (8000b28 <HAL_I2S_MspInit+0xf4>)
 8000a8e:	f443 4300 	orr.w	r3, r3, #32768	@ 0x8000
 8000a92:	6413      	str	r3, [r2, #64]	@ 0x40
 8000a94:	4b24      	ldr	r3, [pc, #144]	@ (8000b28 <HAL_I2S_MspInit+0xf4>)
 8000a96:	6c1b      	ldr	r3, [r3, #64]	@ 0x40
 8000a98:	f403 4300 	and.w	r3, r3, #32768	@ 0x8000
 8000a9c:	613b      	str	r3, [r7, #16]
 8000a9e:	693b      	ldr	r3, [r7, #16]
 8000aa0:	2300      	movs	r3, #0
 8000aa2:	60fb      	str	r3, [r7, #12]
 8000aa4:	4b20      	ldr	r3, [pc, #128]	@ (8000b28 <HAL_I2S_MspInit+0xf4>)
 8000aa6:	6b1b      	ldr	r3, [r3, #48]	@ 0x30
 8000aa8:	4a1f      	ldr	r2, [pc, #124]	@ (8000b28 <HAL_I2S_MspInit+0xf4>)
 8000aaa:	f043 0301 	orr.w	r3, r3, #1
 8000aae:	6313      	str	r3, [r2, #48]	@ 0x30
 8000ab0:	4b1d      	ldr	r3, [pc, #116]	@ (8000b28 <HAL_I2S_MspInit+0xf4>)
 8000ab2:	6b1b      	ldr	r3, [r3, #48]	@ 0x30
 8000ab4:	f003 0301 	and.w	r3, r3, #1
 8000ab8:	60fb      	str	r3, [r7, #12]
 8000aba:	68fb      	ldr	r3, [r7, #12]
 8000abc:	2300      	movs	r3, #0
 8000abe:	60bb      	str	r3, [r7, #8]
 8000ac0:	4b19      	ldr	r3, [pc, #100]	@ (8000b28 <HAL_I2S_MspInit+0xf4>)
 8000ac2:	6b1b      	ldr	r3, [r3, #48]	@ 0x30
 8000ac4:	4a18      	ldr	r2, [pc, #96]	@ (8000b28 <HAL_I2S_MspInit+0xf4>)
 8000ac6:	f043 0304 	orr.w	r3, r3, #4
 8000aca:	6313      	str	r3, [r2, #48]	@ 0x30
 8000acc:	4b16      	ldr	r3, [pc, #88]	@ (8000b28 <HAL_I2S_MspInit+0xf4>)
 8000ace:	6b1b      	ldr	r3, [r3, #48]	@ 0x30
 8000ad0:	f003 0304 	and.w	r3, r3, #4
 8000ad4:	60bb      	str	r3, [r7, #8]
 8000ad6:	68bb      	ldr	r3, [r7, #8]
 8000ad8:	2310      	movs	r3, #16
 8000ada:	627b      	str	r3, [r7, #36]	@ 0x24
 8000adc:	2302      	movs	r3, #2
 8000ade:	62bb      	str	r3, [r7, #40]	@ 0x28
 8000ae0:	2300      	movs	r3, #0
 8000ae2:	62fb      	str	r3, [r7, #44]	@ 0x2c
 8000ae4:	2300      	movs	r3, #0
 8000ae6:	633b      	str	r3, [r7, #48]	@ 0x30
 8000ae8:	2306      	movs	r3, #6
 8000aea:	637b      	str	r3, [r7, #52]	@ 0x34
 8000aec:	f107 0324 	add.w	r3, r7, #36	@ 0x24
 8000af0:	4619      	mov	r1, r3
 8000af2:	480e      	ldr	r0, [pc, #56]	@ (8000b2c <HAL_I2S_MspInit+0xf8>)
 8000af4:	f000 faba 	bl	800106c <HAL_GPIO_Init>
 8000af8:	f44f 53a4 	mov.w	r3, #5248	@ 0x1480
 8000afc:	627b      	str	r3, [r7, #36]	@ 0x24
 8000afe:	2302      	movs	r3, #2
 8000b00:	62bb      	str	r3, [r7, #40]	@ 0x28
 8000b02:	2300      	movs	r3, #0
 8000b04:	62fb      	str	r3, [r7, #44]	@ 0x2c
 8000b06:	2300      	movs	r3, #0
 8000b08:	633b      	str	r3, [r7, #48]	@ 0x30
 8000b0a:	2306      	movs	r3, #6
 8000b0c:	637b      	str	r3, [r7, #52]	@ 0x34
 8000b0e:	f107 0324 	add.w	r3, r7, #36	@ 0x24
 8000b12:	4619      	mov	r1, r3
 8000b14:	4806      	ldr	r0, [pc, #24]	@ (8000b30 <HAL_I2S_MspInit+0xfc>)
 8000b16:	f000 faa9 	bl	800106c <HAL_GPIO_Init>
 8000b1a:	bf00      	nop
 8000b1c:	3738      	adds	r7, #56	@ 0x38
 8000b1e:	46bd      	mov	sp, r7
 8000b20:	bd80      	pop	{r7, pc}
 8000b22:	bf00      	nop
 8000b24:	40003c00 	.word	0x40003c00
 8000b28:	40023800 	.word	0x40023800
 8000b2c:	40020000 	.word	0x40020000
 8000b30:	40020800 	.word	0x40020800

08000b34 <HAL_SPI_MspInit>:
 8000b34:	b580      	push	{r7, lr}
 8000b36:	b08a      	sub	sp, #40	@ 0x28
 8000b38:	af00      	add	r7, sp, #0
 8000b3a:	6078      	str	r0, [r7, #4]
 8000b3c:	f107 0314 	add.w	r3, r7, #20
 8000b40:	2200      	movs	r2, #0
 8000b42:	601a      	str	r2, [r3, #0]
 8000b44:	605a      	str	r2, [r3, #4]
 8000b46:	609a      	str	r2, [r3, #8]
 8000b48:	60da      	str	r2, [r3, #12]
 8000b4a:	611a      	str	r2, [r3, #16]
 8000b4c:	687b      	ldr	r3, [r7, #4]
 8000b4e:	681b      	ldr	r3, [r3, #0]
 8000b50:	4a19      	ldr	r2, [pc, #100]	@ (8000bb8 <HAL_SPI_MspInit+0x84>)
 8000b52:	4293      	cmp	r3, r2
 8000b54:	d12b      	bne.n	8000bae <HAL_SPI_MspInit+0x7a>
 8000b56:	2300      	movs	r3, #0
 8000b58:	613b      	str	r3, [r7, #16]
 8000b5a:	4b18      	ldr	r3, [pc, #96]	@ (8000bbc <HAL_SPI_MspInit+0x88>)
 8000b5c:	6c5b      	ldr	r3, [r3, #68]	@ 0x44
 8000b5e:	4a17      	ldr	r2, [pc, #92]	@ (8000bbc <HAL_SPI_MspInit+0x88>)
 8000b60:	f443 5380 	orr.w	r3, r3, #4096	@ 0x1000
 8000b64:	6453      	str	r3, [r2, #68]	@ 0x44
 8000b66:	4b15      	ldr	r3, [pc, #84]	@ (8000bbc <HAL_SPI_MspInit+0x88>)
 8000b68:	6c5b      	ldr	r3, [r3, #68]	@ 0x44
 8000b6a:	f403 5380 	and.w	r3, r3, #4096	@ 0x1000
 8000b6e:	613b      	str	r3, [r7, #16]
 8000b70:	693b      	ldr	r3, [r7, #16]
 8000b72:	2300      	movs	r3, #0
 8000b74:	60fb      	str	r3, [r7, #12]
 8000b76:	4b11      	ldr	r3, [pc, #68]	@ (8000bbc <HAL_SPI_MspInit+0x88>)
 8000b78:	6b1b      	ldr	r3, [r3, #48]	@ 0x30
 8000b7a:	4a10      	ldr	r2, [pc, #64]	@ (8000bbc <HAL_SPI_MspInit+0x88>)
 8000b7c:	f043 0301 	orr.w	r3, r3, #1
 8000b80:	6313      	str	r3, [r2, #48]	@ 0x30
 8000b82:	4b0e      	ldr	r3, [pc, #56]	@ (8000bbc <HAL_SPI_MspInit+0x88>)
 8000b84:	6b1b      	ldr	r3, [r3, #48]	@ 0x30
 8000b86:	f003 0301 	and.w	r3, r3, #1
 8000b8a:	60fb      	str	r3, [r7, #12]
 8000b8c:	68fb      	ldr	r3, [r7, #12]
 8000b8e:	23e0      	movs	r3, #224	@ 0xe0
 8000b90:	617b      	str	r3, [r7, #20]
 8000b92:	2302      	movs	r3, #2
 8000b94:	61bb      	str	r3, [r7, #24]
 8000b96:	2300      	movs	r3, #0
 8000b98:	61fb      	str	r3, [r7, #28]
 8000b9a:	2300      	movs	r3, #0
 8000b9c:	623b      	str	r3, [r7, #32]
 8000b9e:	2305      	movs	r3, #5
 8000ba0:	627b      	str	r3, [r7, #36]	@ 0x24
 8000ba2:	f107 0314 	add.w	r3, r7, #20
 8000ba6:	4619      	mov	r1, r3
 8000ba8:	4805      	ldr	r0, [pc, #20]	@ (8000bc0 <HAL_SPI_MspInit+0x8c>)
 8000baa:	f000 fa5f 	bl	800106c <HAL_GPIO_Init>
 8000bae:	bf00      	nop
 8000bb0:	3728      	adds	r7, #40	@ 0x28
 8000bb2:	46bd      	mov	sp, r7
 8000bb4:	bd80      	pop	{r7, pc}
 8000bb6:	bf00      	nop
 8000bb8:	40013000 	.word	0x40013000
 8000bbc:	40023800 	.word	0x40023800
 8000bc0:	40020000 	.word	0x40020000

08000bc4 <NMI_Handler>:
 8000bc4:	b480      	push	{r7}
 8000bc6:	af00      	add	r7, sp, #0
 8000bc8:	bf00      	nop
 8000bca:	e7fd      	b.n	8000bc8 <NMI_Handler+0x4>

08000bcc <HardFault_Handler>:
 8000bcc:	b480      	push	{r7}
 8000bce:	af00      	add	r7, sp, #0
 8000bd0:	bf00      	nop
 8000bd2:	e7fd      	b.n	8000bd0 <HardFault_Handler+0x4>

08000bd4 <MemManage_Handler>:
 8000bd4:	b480      	push	{r7}
 8000bd6:	af00      	add	r7, sp, #0
 8000bd8:	bf00      	nop
 8000bda:	e7fd      	b.n	8000bd8 <MemManage_Handler+0x4>

08000bdc <BusFault_Handler>:
 8000bdc:	b480      	push	{r7}
 8000bde:	af00      	add	r7, sp, #0
 8000be0:	bf00      	nop
 8000be2:	e7fd      	b.n	8000be0 <BusFault_Handler+0x4>

08000be4 <UsageFault_Handler>:
 8000be4:	b480      	push	{r7}
 8000be6:	af00      	add	r7, sp, #0
 8000be8:	bf00      	nop
 8000bea:	e7fd      	b.n	8000be8 <UsageFault_Handler+0x4>

08000bec <SVC_Handler>:
 8000bec:	b480      	push	{r7}
 8000bee:	af00      	add	r7, sp, #0
 8000bf0:	bf00      	nop
 8000bf2:	46bd      	mov	sp, r7
 8000bf4:	f85d 7b04 	ldr.w	r7, [sp], #4
 8000bf8:	4770      	bx	lr

08000bfa <DebugMon_Handler>:
 8000bfa:	b480      	push	{r7}
 8000bfc:	af00      	add	r7, sp, #0
 8000bfe:	bf00      	nop
 8000c00:	46bd      	mov	sp, r7
 8000c02:	f85d 7b04 	ldr.w	r7, [sp], #4
 8000c06:	4770      	bx	lr

08000c08 <PendSV_Handler>:
 8000c08:	b480      	push	{r7}
 8000c0a:	af00      	add	r7, sp, #0
 8000c0c:	bf00      	nop
 8000c0e:	46bd      	mov	sp, r7
 8000c10:	f85d 7b04 	ldr.w	r7, [sp], #4
 8000c14:	4770      	bx	lr

08000c16 <SysTick_Handler>:
 8000c16:	b580      	push	{r7, lr}
 8000c18:	af00      	add	r7, sp, #0
 8000c1a:	f000 f8d1 	bl	8000dc0 <HAL_IncTick>
 8000c1e:	bf00      	nop
 8000c20:	bd80      	pop	{r7, pc}
	...

08000c24 <OTG_FS_IRQHandler>:
 8000c24:	b580      	push	{r7, lr}
 8000c26:	af00      	add	r7, sp, #0
 8000c28:	4802      	ldr	r0, [pc, #8]	@ (8000c34 <OTG_FS_IRQHandler+0x10>)
 8000c2a:	f000 fecd 	bl	80019c8 <HAL_HCD_IRQHandler>
 8000c2e:	bf00      	nop
 8000c30:	bd80      	pop	{r7, pc}
 8000c32:	bf00      	nop
 8000c34:	20000570 	.word	0x20000570

08000c38 <_sbrk>:
 8000c38:	b580      	push	{r7, lr}
 8000c3a:	b086      	sub	sp, #24
 8000c3c:	af00      	add	r7, sp, #0
 8000c3e:	6078      	str	r0, [r7, #4]
 8000c40:	4a14      	ldr	r2, [pc, #80]	@ (8000c94 <_sbrk+0x5c>)
 8000c42:	4b15      	ldr	r3, [pc, #84]	@ (8000c98 <_sbrk+0x60>)
 8000c44:	1ad3      	subs	r3, r2, r3
 8000c46:	617b      	str	r3, [r7, #20]
 8000c48:	697b      	ldr	r3, [r7, #20]
 8000c4a:	613b      	str	r3, [r7, #16]
 8000c4c:	4b13      	ldr	r3, [pc, #76]	@ (8000c9c <_sbrk+0x64>)
 8000c4e:	681b      	ldr	r3, [r3, #0]
 8000c50:	2b00      	cmp	r3, #0
 8000c52:	d102      	bne.n	8000c5a <_sbrk+0x22>
 8000c54:	4b11      	ldr	r3, [pc, #68]	@ (8000c9c <_sbrk+0x64>)
 8000c56:	4a12      	ldr	r2, [pc, #72]	@ (8000ca0 <_sbrk+0x68>)
 8000c58:	601a      	str	r2, [r3, #0]
 8000c5a:	4b10      	ldr	r3, [pc, #64]	@ (8000c9c <_sbrk+0x64>)
 8000c5c:	681a      	ldr	r2, [r3, #0]
 8000c5e:	687b      	ldr	r3, [r7, #4]
 8000c60:	4413      	add	r3, r2
 8000c62:	693a      	ldr	r2, [r7, #16]
 8000c64:	429a      	cmp	r2, r3
 8000c66:	d207      	bcs.n	8000c78 <_sbrk+0x40>
 8000c68:	f007 fee8 	bl	8008a3c <__errno>
 8000c6c:	4603      	mov	r3, r0
 8000c6e:	220c      	movs	r2, #12
 8000c70:	601a      	str	r2, [r3, #0]
 8000c72:	f04f 33ff 	mov.w	r3, #4294967295
 8000c76:	e009      	b.n	8000c8c <_sbrk+0x54>
 8000c78:	4b08      	ldr	r3, [pc, #32]	@ (8000c9c <_sbrk+0x64>)
 8000c7a:	681b      	ldr	r3, [r3, #0]
 8000c7c:	60fb      	str	r3, [r7, #12]
 8000c7e:	4b07      	ldr	r3, [pc, #28]	@ (8000c9c <_sbrk+0x64>)
 8000c80:	681a      	ldr	r2, [r3, #0]
 8000c82:	687b      	ldr	r3, [r7, #4]
 8000c84:	4413      	add	r3, r2
 8000c86:	4a05      	ldr	r2, [pc, #20]	@ (8000c9c <_sbrk+0x64>)
 8000c88:	6013      	str	r3, [r2, #0]
 8000c8a:	68fb      	ldr	r3, [r7, #12]
 8000c8c:	4618      	mov	r0, r3
 8000c8e:	3718      	adds	r7, #24
 8000c90:	46bd      	mov	sp, r7
 8000c92:	bd80      	pop	{r7, pc}
 8000c94:	20020000 	.word	0x20020000
 8000c98:	00000400 	.word	0x00000400
 8000c9c:	2000018c 	.word	0x2000018c
 8000ca0:	20000a98 	.word	0x20000a98

08000ca4 <SystemInit>:
 8000ca4:	b480      	push	{r7}
 8000ca6:	af00      	add	r7, sp, #0
 8000ca8:	4b06      	ldr	r3, [pc, #24]	@ (8000cc4 <SystemInit+0x20>)
 8000caa:	f8d3 3088 	ldr.w	r3, [r3, #136]	@ 0x88
 8000cae:	4a05      	ldr	r2, [pc, #20]	@ (8000cc4 <SystemInit+0x20>)
 8000cb0:	f443 0370 	orr.w	r3, r3, #15728640	@ 0xf00000
 8000cb4:	f8c2 3088 	str.w	r3, [r2, #136]	@ 0x88
 8000cb8:	bf00      	nop
 8000cba:	46bd      	mov	sp, r7
 8000cbc:	f85d 7b04 	ldr.w	r7, [sp], #4
 8000cc0:	4770      	bx	lr
 8000cc2:	bf00      	nop
 8000cc4:	e000ed00 	.word	0xe000ed00

08000cc8 <Reset_Handler>:
 8000cc8:	f8df d034 	ldr.w	sp, [pc, #52]	@ 8000d00 <LoopFillZerobss+0xe>
 8000ccc:	f7ff ffea 	bl	8000ca4 <SystemInit>
 8000cd0:	480c      	ldr	r0, [pc, #48]	@ (8000d04 <LoopFillZerobss+0x12>)
 8000cd2:	490d      	ldr	r1, [pc, #52]	@ (8000d08 <LoopFillZerobss+0x16>)
 8000cd4:	4a0d      	ldr	r2, [pc, #52]	@ (8000d0c <LoopFillZerobss+0x1a>)
 8000cd6:	2300      	movs	r3, #0
 8000cd8:	e002      	b.n	8000ce0 <LoopCopyDataInit>

08000cda <CopyDataInit>:
 8000cda:	58d4      	ldr	r4, [r2, r3]
 8000cdc:	50c4      	str	r4, [r0, r3]
 8000cde:	3304      	adds	r3, #4

08000ce0 <LoopCopyDataInit>:
 8000ce0:	18c4      	adds	r4, r0, r3
 8000ce2:	428c      	cmp	r4, r1
 8000ce4:	d3f9      	bcc.n	8000cda <CopyDataInit>
 8000ce6:	4a0a      	ldr	r2, [pc, #40]	@ (8000d10 <LoopFillZerobss+0x1e>)
 8000ce8:	4c0a      	ldr	r4, [pc, #40]	@ (8000d14 <LoopFillZerobss+0x22>)
 8000cea:	2300      	movs	r3, #0
 8000cec:	e001      	b.n	8000cf2 <LoopFillZerobss>

08000cee <FillZerobss>:
 8000cee:	6013      	str	r3, [r2, #0]
 8000cf0:	3204      	adds	r2, #4

08000cf2 <LoopFillZerobss>:
 8000cf2:	42a2      	cmp	r2, r4
 8000cf4:	d3fb      	bcc.n	8000cee <FillZerobss>
 8000cf6:	f007 fea7 	bl	8008a48 <__libc_init_array>
 8000cfa:	f7ff fbdd 	bl	80004b8 <main>
 8000cfe:	4770      	bx	lr
 8000d00:	20020000 	.word	0x20020000
 8000d04:	20000000 	.word	0x20000000
 8000d08:	2000007c 	.word	0x2000007c
 8000d0c:	08008b6c 	.word	0x08008b6c
 8000d10:	2000007c 	.word	0x2000007c
 8000d14:	20000a98 	.word	0x20000a98

08000d18 <ADC_IRQHandler>:
 8000d18:	e7fe      	b.n	8000d18 <ADC_IRQHandler>
	...

08000d1c <HAL_Init>:
 8000d1c:	b580      	push	{r7, lr}
 8000d1e:	af00      	add	r7, sp, #0
 8000d20:	4b0e      	ldr	r3, [pc, #56]	@ (8000d5c <HAL_Init+0x40>)
 8000d22:	681b      	ldr	r3, [r3, #0]
 8000d24:	4a0d      	ldr	r2, [pc, #52]	@ (8000d5c <HAL_Init+0x40>)
 8000d26:	f443 7300 	orr.w	r3, r3, #512	@ 0x200
 8000d2a:	6013      	str	r3, [r2, #0]
 8000d2c:	4b0b      	ldr	r3, [pc, #44]	@ (8000d5c <HAL_Init+0x40>)
 8000d2e:	681b      	ldr	r3, [r3, #0]
 8000d30:	4a0a      	ldr	r2, [pc, #40]	@ (8000d5c <HAL_Init+0x40>)
 8000d32:	f443 6380 	orr.w	r3, r3, #1024	@ 0x400
 8000d36:	6013      	str	r3, [r2, #0]
 8000d38:	4b08      	ldr	r3, [pc, #32]	@ (8000d5c <HAL_Init+0x40>)
 8000d3a:	681b      	ldr	r3, [r3, #0]
 8000d3c:	4a07      	ldr	r2, [pc, #28]	@ (8000d5c <HAL_Init+0x40>)
 8000d3e:	f443 7380 	orr.w	r3, r3, #256	@ 0x100
 8000d42:	6013      	str	r3, [r2, #0]
 8000d44:	2003      	movs	r0, #3
 8000d46:	f000 f94f 	bl	8000fe8 <HAL_NVIC_SetPriorityGrouping>
 8000d4a:	2000      	movs	r0, #0
 8000d4c:	f000 f808 	bl	8000d60 <HAL_InitTick>
 8000d50:	f7ff fe00 	bl	8000954 <HAL_MspInit>
 8000d54:	2300      	movs	r3, #0
 8000d56:	4618      	mov	r0, r3
 8000d58:	bd80      	pop	{r7, pc}
 8000d5a:	bf00      	nop
 8000d5c:	40023c00 	.word	0x40023c00

08000d60 <HAL_InitTick>:
 8000d60:	b580      	push	{r7, lr}
 8000d62:	b082      	sub	sp, #8
 8000d64:	af00      	add	r7, sp, #0
 8000d66:	6078      	str	r0, [r7, #4]
 8000d68:	4b12      	ldr	r3, [pc, #72]	@ (8000db4 <HAL_InitTick+0x54>)
 8000d6a:	681a      	ldr	r2, [r3, #0]
 8000d6c:	4b12      	ldr	r3, [pc, #72]	@ (8000db8 <HAL_InitTick+0x58>)
 8000d6e:	781b      	ldrb	r3, [r3, #0]
 8000d70:	4619      	mov	r1, r3
 8000d72:	f44f 737a 	mov.w	r3, #1000	@ 0x3e8
 8000d76:	fbb3 f3f1 	udiv	r3, r3, r1
 8000d7a:	fbb2 f3f3 	udiv	r3, r2, r3
 8000d7e:	4618      	mov	r0, r3
 8000d80:	f000 f967 	bl	8001052 <HAL_SYSTICK_Config>
 8000d84:	4603      	mov	r3, r0
 8000d86:	2b00      	cmp	r3, #0
 8000d88:	d001      	beq.n	8000d8e <HAL_InitTick+0x2e>
 8000d8a:	2301      	movs	r3, #1
 8000d8c:	e00e      	b.n	8000dac <HAL_InitTick+0x4c>
 8000d8e:	687b      	ldr	r3, [r7, #4]
 8000d90:	2b0f      	cmp	r3, #15
 8000d92:	d80a      	bhi.n	8000daa <HAL_InitTick+0x4a>
 8000d94:	2200      	movs	r2, #0
 8000d96:	6879      	ldr	r1, [r7, #4]
 8000d98:	f04f 30ff 	mov.w	r0, #4294967295
 8000d9c:	f000 f92f 	bl	8000ffe <HAL_NVIC_SetPriority>
 8000da0:	4a06      	ldr	r2, [pc, #24]	@ (8000dbc <HAL_InitTick+0x5c>)
 8000da2:	687b      	ldr	r3, [r7, #4]
 8000da4:	6013      	str	r3, [r2, #0]
 8000da6:	2300      	movs	r3, #0
 8000da8:	e000      	b.n	8000dac <HAL_InitTick+0x4c>
 8000daa:	2301      	movs	r3, #1
 8000dac:	4618      	mov	r0, r3
 8000dae:	3708      	adds	r7, #8
 8000db0:	46bd      	mov	sp, r7
 8000db2:	bd80      	pop	{r7, pc}
 8000db4:	20000000 	.word	0x20000000
 8000db8:	20000008 	.word	0x20000008
 8000dbc:	20000004 	.word	0x20000004

08000dc0 <HAL_IncTick>:
 8000dc0:	b480      	push	{r7}
 8000dc2:	af00      	add	r7, sp, #0
 8000dc4:	4b06      	ldr	r3, [pc, #24]	@ (8000de0 <HAL_IncTick+0x20>)
 8000dc6:	781b      	ldrb	r3, [r3, #0]
 8000dc8:	461a      	mov	r2, r3
 8000dca:	4b06      	ldr	r3, [pc, #24]	@ (8000de4 <HAL_IncTick+0x24>)
 8000dcc:	681b      	ldr	r3, [r3, #0]
 8000dce:	4413      	add	r3, r2
 8000dd0:	4a04      	ldr	r2, [pc, #16]	@ (8000de4 <HAL_IncTick+0x24>)
 8000dd2:	6013      	str	r3, [r2, #0]
 8000dd4:	bf00      	nop
 8000dd6:	46bd      	mov	sp, r7
 8000dd8:	f85d 7b04 	ldr.w	r7, [sp], #4
 8000ddc:	4770      	bx	lr
 8000dde:	bf00      	nop
 8000de0:	20000008 	.word	0x20000008
 8000de4:	20000190 	.word	0x20000190

08000de8 <HAL_GetTick>:
 8000de8:	b480      	push	{r7}
 8000dea:	af00      	add	r7, sp, #0
 8000dec:	4b03      	ldr	r3, [pc, #12]	@ (8000dfc <HAL_GetTick+0x14>)
 8000dee:	681b      	ldr	r3, [r3, #0]
 8000df0:	4618      	mov	r0, r3
 8000df2:	46bd      	mov	sp, r7
 8000df4:	f85d 7b04 	ldr.w	r7, [sp], #4
 8000df8:	4770      	bx	lr
 8000dfa:	bf00      	nop
 8000dfc:	20000190 	.word	0x20000190

08000e00 <HAL_Delay>:
 8000e00:	b580      	push	{r7, lr}
 8000e02:	b084      	sub	sp, #16
 8000e04:	af00      	add	r7, sp, #0
 8000e06:	6078      	str	r0, [r7, #4]
 8000e08:	f7ff ffee 	bl	8000de8 <HAL_GetTick>
 8000e0c:	60b8      	str	r0, [r7, #8]
 8000e0e:	687b      	ldr	r3, [r7, #4]
 8000e10:	60fb      	str	r3, [r7, #12]
 8000e12:	68fb      	ldr	r3, [r7, #12]
 8000e14:	f1b3 3fff 	cmp.w	r3, #4294967295
 8000e18:	d005      	beq.n	8000e26 <HAL_Delay+0x26>
 8000e1a:	4b0a      	ldr	r3, [pc, #40]	@ (8000e44 <HAL_Delay+0x44>)
 8000e1c:	781b      	ldrb	r3, [r3, #0]
 8000e1e:	461a      	mov	r2, r3
 8000e20:	68fb      	ldr	r3, [r7, #12]
 8000e22:	4413      	add	r3, r2
 8000e24:	60fb      	str	r3, [r7, #12]
 8000e26:	bf00      	nop
 8000e28:	f7ff ffde 	bl	8000de8 <HAL_GetTick>
 8000e2c:	4602      	mov	r2, r0
 8000e2e:	68bb      	ldr	r3, [r7, #8]
 8000e30:	1ad3      	subs	r3, r2, r3
 8000e32:	68fa      	ldr	r2, [r7, #12]
 8000e34:	429a      	cmp	r2, r3
 8000e36:	d8f7      	bhi.n	8000e28 <HAL_Delay+0x28>
 8000e38:	bf00      	nop
 8000e3a:	bf00      	nop
 8000e3c:	3710      	adds	r7, #16
 8000e3e:	46bd      	mov	sp, r7
 8000e40:	bd80      	pop	{r7, pc}
 8000e42:	bf00      	nop
 8000e44:	20000008 	.word	0x20000008

08000e48 <__NVIC_SetPriorityGrouping>:
 8000e48:	b480      	push	{r7}
 8000e4a:	b085      	sub	sp, #20
 8000e4c:	af00      	add	r7, sp, #0
 8000e4e:	6078      	str	r0, [r7, #4]
 8000e50:	687b      	ldr	r3, [r7, #4]
 8000e52:	f003 0307 	and.w	r3, r3, #7
 8000e56:	60fb      	str	r3, [r7, #12]
 8000e58:	4b0c      	ldr	r3, [pc, #48]	@ (8000e8c <__NVIC_SetPriorityGrouping+0x44>)
 8000e5a:	68db      	ldr	r3, [r3, #12]
 8000e5c:	60bb      	str	r3, [r7, #8]
 8000e5e:	68ba      	ldr	r2, [r7, #8]
 8000e60:	f64f 03ff 	movw	r3, #63743	@ 0xf8ff
 8000e64:	4013      	ands	r3, r2
 8000e66:	60bb      	str	r3, [r7, #8]
 8000e68:	68fb      	ldr	r3, [r7, #12]
 8000e6a:	021a      	lsls	r2, r3, #8
 8000e6c:	68bb      	ldr	r3, [r7, #8]
 8000e6e:	4313      	orrs	r3, r2
 8000e70:	f043 63bf 	orr.w	r3, r3, #100139008	@ 0x5f80000
 8000e74:	f443 3300 	orr.w	r3, r3, #131072	@ 0x20000
 8000e78:	60bb      	str	r3, [r7, #8]
 8000e7a:	4a04      	ldr	r2, [pc, #16]	@ (8000e8c <__NVIC_SetPriorityGrouping+0x44>)
 8000e7c:	68bb      	ldr	r3, [r7, #8]
 8000e7e:	60d3      	str	r3, [r2, #12]
 8000e80:	bf00      	nop
 8000e82:	3714      	adds	r7, #20
 8000e84:	46bd      	mov	sp, r7
 8000e86:	f85d 7b04 	ldr.w	r7, [sp], #4
 8000e8a:	4770      	bx	lr
 8000e8c:	e000ed00 	.word	0xe000ed00

08000e90 <__NVIC_GetPriorityGrouping>:
 8000e90:	b480      	push	{r7}
 8000e92:	af00      	add	r7, sp, #0
 8000e94:	4b04      	ldr	r3, [pc, #16]	@ (8000ea8 <__NVIC_GetPriorityGrouping+0x18>)
 8000e96:	68db      	ldr	r3, [r3, #12]
 8000e98:	0a1b      	lsrs	r3, r3, #8
 8000e9a:	f003 0307 	and.w	r3, r3, #7
 8000e9e:	4618      	mov	r0, r3
 8000ea0:	46bd      	mov	sp, r7
 8000ea2:	f85d 7b04 	ldr.w	r7, [sp], #4
 8000ea6:	4770      	bx	lr
 8000ea8:	e000ed00 	.word	0xe000ed00

08000eac <__NVIC_EnableIRQ>:
 8000eac:	b480      	push	{r7}
 8000eae:	b083      	sub	sp, #12
 8000eb0:	af00      	add	r7, sp, #0
 8000eb2:	4603      	mov	r3, r0
 8000eb4:	71fb      	strb	r3, [r7, #7]
 8000eb6:	f997 3007 	ldrsb.w	r3, [r7, #7]
 8000eba:	2b00      	cmp	r3, #0
 8000ebc:	db0b      	blt.n	8000ed6 <__NVIC_EnableIRQ+0x2a>
 8000ebe:	79fb      	ldrb	r3, [r7, #7]
 8000ec0:	f003 021f 	and.w	r2, r3, #31
 8000ec4:	4907      	ldr	r1, [pc, #28]	@ (8000ee4 <__NVIC_EnableIRQ+0x38>)
 8000ec6:	f997 3007 	ldrsb.w	r3, [r7, #7]
 8000eca:	095b      	lsrs	r3, r3, #5
 8000ecc:	2001      	movs	r0, #1
 8000ece:	fa00 f202 	lsl.w	r2, r0, r2
 8000ed2:	f841 2023 	str.w	r2, [r1, r3, lsl #2]
 8000ed6:	bf00      	nop
 8000ed8:	370c      	adds	r7, #12
 8000eda:	46bd      	mov	sp, r7
 8000edc:	f85d 7b04 	ldr.w	r7, [sp], #4
 8000ee0:	4770      	bx	lr
 8000ee2:	bf00      	nop
 8000ee4:	e000e100 	.word	0xe000e100

08000ee8 <__NVIC_SetPriority>:
 8000ee8:	b480      	push	{r7}
 8000eea:	b083      	sub	sp, #12
 8000eec:	af00      	add	r7, sp, #0
 8000eee:	4603      	mov	r3, r0
 8000ef0:	6039      	str	r1, [r7, #0]
 8000ef2:	71fb      	strb	r3, [r7, #7]
 8000ef4:	f997 3007 	ldrsb.w	r3, [r7, #7]
 8000ef8:	2b00      	cmp	r3, #0
 8000efa:	db0a      	blt.n	8000f12 <__NVIC_SetPriority+0x2a>
 8000efc:	683b      	ldr	r3, [r7, #0]
 8000efe:	b2da      	uxtb	r2, r3
 8000f00:	490c      	ldr	r1, [pc, #48]	@ (8000f34 <__NVIC_SetPriority+0x4c>)
 8000f02:	f997 3007 	ldrsb.w	r3, [r7, #7]
 8000f06:	0112      	lsls	r2, r2, #4
 8000f08:	b2d2      	uxtb	r2, r2
 8000f0a:	440b      	add	r3, r1
 8000f0c:	f883 2300 	strb.w	r2, [r3, #768]	@ 0x300
 8000f10:	e00a      	b.n	8000f28 <__NVIC_SetPriority+0x40>
 8000f12:	683b      	ldr	r3, [r7, #0]
 8000f14:	b2da      	uxtb	r2, r3
 8000f16:	4908      	ldr	r1, [pc, #32]	@ (8000f38 <__NVIC_SetPriority+0x50>)
 8000f18:	79fb      	ldrb	r3, [r7, #7]
 8000f1a:	f003 030f 	and.w	r3, r3, #15
 8000f1e:	3b04      	subs	r3, #4
 8000f20:	0112      	lsls	r2, r2, #4
 8000f22:	b2d2      	uxtb	r2, r2
 8000f24:	440b      	add	r3, r1
 8000f26:	761a      	strb	r2, [r3, #24]
 8000f28:	bf00      	nop
 8000f2a:	370c      	adds	r7, #12
 8000f2c:	46bd      	mov	sp, r7
 8000f2e:	f85d 7b04 	ldr.w	r7, [sp], #4
 8000f32:	4770      	bx	lr
 8000f34:	e000e100 	.word	0xe000e100
 8000f38:	e000ed00 	.word	0xe000ed00

08000f3c <NVIC_EncodePriority>:
 8000f3c:	b480      	push	{r7}
 8000f3e:	b089      	sub	sp, #36	@ 0x24
 8000f40:	af00      	add	r7, sp, #0
 8000f42:	60f8      	str	r0, [r7, #12]
 8000f44:	60b9      	str	r1, [r7, #8]
 8000f46:	607a      	str	r2, [r7, #4]
 8000f48:	68fb      	ldr	r3, [r7, #12]
 8000f4a:	f003 0307 	and.w	r3, r3, #7
 8000f4e:	61fb      	str	r3, [r7, #28]
 8000f50:	69fb      	ldr	r3, [r7, #28]
 8000f52:	f1c3 0307 	rsb	r3, r3, #7
 8000f56:	2b04      	cmp	r3, #4
 8000f58:	bf28      	it	cs
 8000f5a:	2304      	movcs	r3, #4
 8000f5c:	61bb      	str	r3, [r7, #24]
 8000f5e:	69fb      	ldr	r3, [r7, #28]
 8000f60:	3304      	adds	r3, #4
 8000f62:	2b06      	cmp	r3, #6
 8000f64:	d902      	bls.n	8000f6c <NVIC_EncodePriority+0x30>
 8000f66:	69fb      	ldr	r3, [r7, #28]
 8000f68:	3b03      	subs	r3, #3
 8000f6a:	e000      	b.n	8000f6e <NVIC_EncodePriority+0x32>
 8000f6c:	2300      	movs	r3, #0
 8000f6e:	617b      	str	r3, [r7, #20]
 8000f70:	f04f 32ff 	mov.w	r2, #4294967295
 8000f74:	69bb      	ldr	r3, [r7, #24]
 8000f76:	fa02 f303 	lsl.w	r3, r2, r3
 8000f7a:	43da      	mvns	r2, r3
 8000f7c:	68bb      	ldr	r3, [r7, #8]
 8000f7e:	401a      	ands	r2, r3
 8000f80:	697b      	ldr	r3, [r7, #20]
 8000f82:	409a      	lsls	r2, r3
 8000f84:	f04f 31ff 	mov.w	r1, #4294967295
 8000f88:	697b      	ldr	r3, [r7, #20]
 8000f8a:	fa01 f303 	lsl.w	r3, r1, r3
 8000f8e:	43d9      	mvns	r1, r3
 8000f90:	687b      	ldr	r3, [r7, #4]
 8000f92:	400b      	ands	r3, r1
 8000f94:	4313      	orrs	r3, r2
 8000f96:	4618      	mov	r0, r3
 8000f98:	3724      	adds	r7, #36	@ 0x24
 8000f9a:	46bd      	mov	sp, r7
 8000f9c:	f85d 7b04 	ldr.w	r7, [sp], #4
 8000fa0:	4770      	bx	lr
	...

08000fa4 <SysTick_Config>:
 8000fa4:	b580      	push	{r7, lr}
 8000fa6:	b082      	sub	sp, #8
 8000fa8:	af00      	add	r7, sp, #0
 8000faa:	6078      	str	r0, [r7, #4]
 8000fac:	687b      	ldr	r3, [r7, #4]
 8000fae:	3b01      	subs	r3, #1
 8000fb0:	f1b3 7f80 	cmp.w	r3, #16777216	@ 0x1000000
 8000fb4:	d301      	bcc.n	8000fba <SysTick_Config+0x16>
 8000fb6:	2301      	movs	r3, #1
 8000fb8:	e00f      	b.n	8000fda <SysTick_Config+0x36>
 8000fba:	4a0a      	ldr	r2, [pc, #40]	@ (8000fe4 <SysTick_Config+0x40>)
 8000fbc:	687b      	ldr	r3, [r7, #4]
 8000fbe:	3b01      	subs	r3, #1
 8000fc0:	6053      	str	r3, [r2, #4]
 8000fc2:	210f      	movs	r1, #15
 8000fc4:	f04f 30ff 	mov.w	r0, #4294967295
 8000fc8:	f7ff ff8e 	bl	8000ee8 <__NVIC_SetPriority>
 8000fcc:	4b05      	ldr	r3, [pc, #20]	@ (8000fe4 <SysTick_Config+0x40>)
 8000fce:	2200      	movs	r2, #0
 8000fd0:	609a      	str	r2, [r3, #8]
 8000fd2:	4b04      	ldr	r3, [pc, #16]	@ (8000fe4 <SysTick_Config+0x40>)
 8000fd4:	2207      	movs	r2, #7
 8000fd6:	601a      	str	r2, [r3, #0]
 8000fd8:	2300      	movs	r3, #0
 8000fda:	4618      	mov	r0, r3
 8000fdc:	3708      	adds	r7, #8
 8000fde:	46bd      	mov	sp, r7
 8000fe0:	bd80      	pop	{r7, pc}
 8000fe2:	bf00      	nop
 8000fe4:	e000e010 	.word	0xe000e010

08000fe8 <HAL_NVIC_SetPriorityGrouping>:
 8000fe8:	b580      	push	{r7, lr}
 8000fea:	b082      	sub	sp, #8
 8000fec:	af00      	add	r7, sp, #0
 8000fee:	6078      	str	r0, [r7, #4]
 8000ff0:	6878      	ldr	r0, [r7, #4]
 8000ff2:	f7ff ff29 	bl	8000e48 <__NVIC_SetPriorityGrouping>
 8000ff6:	bf00      	nop
 8000ff8:	3708      	adds	r7, #8
 8000ffa:	46bd      	mov	sp, r7
 8000ffc:	bd80      	pop	{r7, pc}

08000ffe <HAL_NVIC_SetPriority>:
 8000ffe:	b580      	push	{r7, lr}
 8001000:	b086      	sub	sp, #24
 8001002:	af00      	add	r7, sp, #0
 8001004:	4603      	mov	r3, r0
 8001006:	60b9      	str	r1, [r7, #8]
 8001008:	607a      	str	r2, [r7, #4]
 800100a:	73fb      	strb	r3, [r7, #15]
 800100c:	2300      	movs	r3, #0
 800100e:	617b      	str	r3, [r7, #20]
 8001010:	f7ff ff3e 	bl	8000e90 <__NVIC_GetPriorityGrouping>
 8001014:	6178      	str	r0, [r7, #20]
 8001016:	687a      	ldr	r2, [r7, #4]
 8001018:	68b9      	ldr	r1, [r7, #8]
 800101a:	6978      	ldr	r0, [r7, #20]
 800101c:	f7ff ff8e 	bl	8000f3c <NVIC_EncodePriority>
 8001020:	4602      	mov	r2, r0
 8001022:	f997 300f 	ldrsb.w	r3, [r7, #15]
 8001026:	4611      	mov	r1, r2
 8001028:	4618      	mov	r0, r3
 800102a:	f7ff ff5d 	bl	8000ee8 <__NVIC_SetPriority>
 800102e:	bf00      	nop
 8001030:	3718      	adds	r7, #24
 8001032:	46bd      	mov	sp, r7
 8001034:	bd80      	pop	{r7, pc}

08001036 <HAL_NVIC_EnableIRQ>:
 8001036:	b580      	push	{r7, lr}
 8001038:	b082      	sub	sp, #8
 800103a:	af00      	add	r7, sp, #0
 800103c:	4603      	mov	r3, r0
 800103e:	71fb      	strb	r3, [r7, #7]
 8001040:	f997 3007 	ldrsb.w	r3, [r7, #7]
 8001044:	4618      	mov	r0, r3
 8001046:	f7ff ff31 	bl	8000eac <__NVIC_EnableIRQ>
 800104a:	bf00      	nop
 800104c:	3708      	adds	r7, #8
 800104e:	46bd      	mov	sp, r7
 8001050:	bd80      	pop	{r7, pc}

08001052 <HAL_SYSTICK_Config>:
 8001052:	b580      	push	{r7, lr}
 8001054:	b082      	sub	sp, #8
 8001056:	af00      	add	r7, sp, #0
 8001058:	6078      	str	r0, [r7, #4]
 800105a:	6878      	ldr	r0, [r7, #4]
 800105c:	f7ff ffa2 	bl	8000fa4 <SysTick_Config>
 8001060:	4603      	mov	r3, r0
 8001062:	4618      	mov	r0, r3
 8001064:	3708      	adds	r7, #8
 8001066:	46bd      	mov	sp, r7
 8001068:	bd80      	pop	{r7, pc}
	...

0800106c <HAL_GPIO_Init>:
 800106c:	b480      	push	{r7}
 800106e:	b089      	sub	sp, #36	@ 0x24
 8001070:	af00      	add	r7, sp, #0
 8001072:	6078      	str	r0, [r7, #4]
 8001074:	6039      	str	r1, [r7, #0]
 8001076:	2300      	movs	r3, #0
 8001078:	617b      	str	r3, [r7, #20]
 800107a:	2300      	movs	r3, #0
 800107c:	613b      	str	r3, [r7, #16]
 800107e:	2300      	movs	r3, #0
 8001080:	61bb      	str	r3, [r7, #24]
 8001082:	2300      	movs	r3, #0
 8001084:	61fb      	str	r3, [r7, #28]
 8001086:	e16b      	b.n	8001360 <HAL_GPIO_Init+0x2f4>
 8001088:	2201      	movs	r2, #1
 800108a:	69fb      	ldr	r3, [r7, #28]
 800108c:	fa02 f303 	lsl.w	r3, r2, r3
 8001090:	617b      	str	r3, [r7, #20]
 8001092:	683b      	ldr	r3, [r7, #0]
 8001094:	681b      	ldr	r3, [r3, #0]
 8001096:	697a      	ldr	r2, [r7, #20]
 8001098:	4013      	ands	r3, r2
 800109a:	613b      	str	r3, [r7, #16]
 800109c:	693a      	ldr	r2, [r7, #16]
 800109e:	697b      	ldr	r3, [r7, #20]
 80010a0:	429a      	cmp	r2, r3
 80010a2:	f040 815a 	bne.w	800135a <HAL_GPIO_Init+0x2ee>
 80010a6:	683b      	ldr	r3, [r7, #0]
 80010a8:	685b      	ldr	r3, [r3, #4]
 80010aa:	f003 0303 	and.w	r3, r3, #3
 80010ae:	2b01      	cmp	r3, #1
 80010b0:	d005      	beq.n	80010be <HAL_GPIO_Init+0x52>
 80010b2:	683b      	ldr	r3, [r7, #0]
 80010b4:	685b      	ldr	r3, [r3, #4]
 80010b6:	f003 0303 	and.w	r3, r3, #3
 80010ba:	2b02      	cmp	r3, #2
 80010bc:	d130      	bne.n	8001120 <HAL_GPIO_Init+0xb4>
 80010be:	687b      	ldr	r3, [r7, #4]
 80010c0:	689b      	ldr	r3, [r3, #8]
 80010c2:	61bb      	str	r3, [r7, #24]
 80010c4:	69fb      	ldr	r3, [r7, #28]
 80010c6:	005b      	lsls	r3, r3, #1
 80010c8:	2203      	movs	r2, #3
 80010ca:	fa02 f303 	lsl.w	r3, r2, r3
 80010ce:	43db      	mvns	r3, r3
 80010d0:	69ba      	ldr	r2, [r7, #24]
 80010d2:	4013      	ands	r3, r2
 80010d4:	61bb      	str	r3, [r7, #24]
 80010d6:	683b      	ldr	r3, [r7, #0]
 80010d8:	68da      	ldr	r2, [r3, #12]
 80010da:	69fb      	ldr	r3, [r7, #28]
 80010dc:	005b      	lsls	r3, r3, #1
 80010de:	fa02 f303 	lsl.w	r3, r2, r3
 80010e2:	69ba      	ldr	r2, [r7, #24]
 80010e4:	4313      	orrs	r3, r2
 80010e6:	61bb      	str	r3, [r7, #24]
 80010e8:	687b      	ldr	r3, [r7, #4]
 80010ea:	69ba      	ldr	r2, [r7, #24]
 80010ec:	609a      	str	r2, [r3, #8]
 80010ee:	687b      	ldr	r3, [r7, #4]
 80010f0:	685b      	ldr	r3, [r3, #4]
 80010f2:	61bb      	str	r3, [r7, #24]
 80010f4:	2201      	movs	r2, #1
 80010f6:	69fb      	ldr	r3, [r7, #28]
 80010f8:	fa02 f303 	lsl.w	r3, r2, r3
 80010fc:	43db      	mvns	r3, r3
 80010fe:	69ba      	ldr	r2, [r7, #24]
 8001100:	4013      	ands	r3, r2
 8001102:	61bb      	str	r3, [r7, #24]
 8001104:	683b      	ldr	r3, [r7, #0]
 8001106:	685b      	ldr	r3, [r3, #4]
 8001108:	091b      	lsrs	r3, r3, #4
 800110a:	f003 0201 	and.w	r2, r3, #1
 800110e:	69fb      	ldr	r3, [r7, #28]
 8001110:	fa02 f303 	lsl.w	r3, r2, r3
 8001114:	69ba      	ldr	r2, [r7, #24]
 8001116:	4313      	orrs	r3, r2
 8001118:	61bb      	str	r3, [r7, #24]
 800111a:	687b      	ldr	r3, [r7, #4]
 800111c:	69ba      	ldr	r2, [r7, #24]
 800111e:	605a      	str	r2, [r3, #4]
 8001120:	683b      	ldr	r3, [r7, #0]
 8001122:	685b      	ldr	r3, [r3, #4]
 8001124:	f003 0303 	and.w	r3, r3, #3
 8001128:	2b03      	cmp	r3, #3
 800112a:	d017      	beq.n	800115c <HAL_GPIO_Init+0xf0>
 800112c:	687b      	ldr	r3, [r7, #4]
 800112e:	68db      	ldr	r3, [r3, #12]
 8001130:	61bb      	str	r3, [r7, #24]
 8001132:	69fb      	ldr	r3, [r7, #28]
 8001134:	005b      	lsls	r3, r3, #1
 8001136:	2203      	movs	r2, #3
 8001138:	fa02 f303 	lsl.w	r3, r2, r3
 800113c:	43db      	mvns	r3, r3
 800113e:	69ba      	ldr	r2, [r7, #24]
 8001140:	4013      	ands	r3, r2
 8001142:	61bb      	str	r3, [r7, #24]
 8001144:	683b      	ldr	r3, [r7, #0]
 8001146:	689a      	ldr	r2, [r3, #8]
 8001148:	69fb      	ldr	r3, [r7, #28]
 800114a:	005b      	lsls	r3, r3, #1
 800114c:	fa02 f303 	lsl.w	r3, r2, r3
 8001150:	69ba      	ldr	r2, [r7, #24]
 8001152:	4313      	orrs	r3, r2
 8001154:	61bb      	str	r3, [r7, #24]
 8001156:	687b      	ldr	r3, [r7, #4]
 8001158:	69ba      	ldr	r2, [r7, #24]
 800115a:	60da      	str	r2, [r3, #12]
 800115c:	683b      	ldr	r3, [r7, #0]
 800115e:	685b      	ldr	r3, [r3, #4]
 8001160:	f003 0303 	and.w	r3, r3, #3
 8001164:	2b02      	cmp	r3, #2
 8001166:	d123      	bne.n	80011b0 <HAL_GPIO_Init+0x144>
 8001168:	69fb      	ldr	r3, [r7, #28]
 800116a:	08da      	lsrs	r2, r3, #3
 800116c:	687b      	ldr	r3, [r7, #4]
 800116e:	3208      	adds	r2, #8
 8001170:	f853 3022 	ldr.w	r3, [r3, r2, lsl #2]
 8001174:	61bb      	str	r3, [r7, #24]
 8001176:	69fb      	ldr	r3, [r7, #28]
 8001178:	f003 0307 	and.w	r3, r3, #7
 800117c:	009b      	lsls	r3, r3, #2
 800117e:	220f      	movs	r2, #15
 8001180:	fa02 f303 	lsl.w	r3, r2, r3
 8001184:	43db      	mvns	r3, r3
 8001186:	69ba      	ldr	r2, [r7, #24]
 8001188:	4013      	ands	r3, r2
 800118a:	61bb      	str	r3, [r7, #24]
 800118c:	683b      	ldr	r3, [r7, #0]
 800118e:	691a      	ldr	r2, [r3, #16]
 8001190:	69fb      	ldr	r3, [r7, #28]
 8001192:	f003 0307 	and.w	r3, r3, #7
 8001196:	009b      	lsls	r3, r3, #2
 8001198:	fa02 f303 	lsl.w	r3, r2, r3
 800119c:	69ba      	ldr	r2, [r7, #24]
 800119e:	4313      	orrs	r3, r2
 80011a0:	61bb      	str	r3, [r7, #24]
 80011a2:	69fb      	ldr	r3, [r7, #28]
 80011a4:	08da      	lsrs	r2, r3, #3
 80011a6:	687b      	ldr	r3, [r7, #4]
 80011a8:	3208      	adds	r2, #8
 80011aa:	69b9      	ldr	r1, [r7, #24]
 80011ac:	f843 1022 	str.w	r1, [r3, r2, lsl #2]
 80011b0:	687b      	ldr	r3, [r7, #4]
 80011b2:	681b      	ldr	r3, [r3, #0]
 80011b4:	61bb      	str	r3, [r7, #24]
 80011b6:	69fb      	ldr	r3, [r7, #28]
 80011b8:	005b      	lsls	r3, r3, #1
 80011ba:	2203      	movs	r2, #3
 80011bc:	fa02 f303 	lsl.w	r3, r2, r3
 80011c0:	43db      	mvns	r3, r3
 80011c2:	69ba      	ldr	r2, [r7, #24]
 80011c4:	4013      	ands	r3, r2
 80011c6:	61bb      	str	r3, [r7, #24]
 80011c8:	683b      	ldr	r3, [r7, #0]
 80011ca:	685b      	ldr	r3, [r3, #4]
 80011cc:	f003 0203 	and.w	r2, r3, #3
 80011d0:	69fb      	ldr	r3, [r7, #28]
 80011d2:	005b      	lsls	r3, r3, #1
 80011d4:	fa02 f303 	lsl.w	r3, r2, r3
 80011d8:	69ba      	ldr	r2, [r7, #24]
 80011da:	4313      	orrs	r3, r2
 80011dc:	61bb      	str	r3, [r7, #24]
 80011de:	687b      	ldr	r3, [r7, #4]
 80011e0:	69ba      	ldr	r2, [r7, #24]
 80011e2:	601a      	str	r2, [r3, #0]
 80011e4:	683b      	ldr	r3, [r7, #0]
 80011e6:	685b      	ldr	r3, [r3, #4]
 80011e8:	f403 3340 	and.w	r3, r3, #196608	@ 0x30000
 80011ec:	2b00      	cmp	r3, #0
 80011ee:	f000 80b4 	beq.w	800135a <HAL_GPIO_Init+0x2ee>
 80011f2:	2300      	movs	r3, #0
 80011f4:	60fb      	str	r3, [r7, #12]
 80011f6:	4b60      	ldr	r3, [pc, #384]	@ (8001378 <HAL_GPIO_Init+0x30c>)
 80011f8:	6c5b      	ldr	r3, [r3, #68]	@ 0x44
 80011fa:	4a5f      	ldr	r2, [pc, #380]	@ (8001378 <HAL_GPIO_Init+0x30c>)
 80011fc:	f443 4380 	orr.w	r3, r3, #16384	@ 0x4000
 8001200:	6453      	str	r3, [r2, #68]	@ 0x44
 8001202:	4b5d      	ldr	r3, [pc, #372]	@ (8001378 <HAL_GPIO_Init+0x30c>)
 8001204:	6c5b      	ldr	r3, [r3, #68]	@ 0x44
 8001206:	f403 4380 	and.w	r3, r3, #16384	@ 0x4000
 800120a:	60fb      	str	r3, [r7, #12]
 800120c:	68fb      	ldr	r3, [r7, #12]
 800120e:	4a5b      	ldr	r2, [pc, #364]	@ (800137c <HAL_GPIO_Init+0x310>)
 8001210:	69fb      	ldr	r3, [r7, #28]
 8001212:	089b      	lsrs	r3, r3, #2
 8001214:	3302      	adds	r3, #2
 8001216:	f852 3023 	ldr.w	r3, [r2, r3, lsl #2]
 800121a:	61bb      	str	r3, [r7, #24]
 800121c:	69fb      	ldr	r3, [r7, #28]
 800121e:	f003 0303 	and.w	r3, r3, #3
 8001222:	009b      	lsls	r3, r3, #2
 8001224:	220f      	movs	r2, #15
 8001226:	fa02 f303 	lsl.w	r3, r2, r3
 800122a:	43db      	mvns	r3, r3
 800122c:	69ba      	ldr	r2, [r7, #24]
 800122e:	4013      	ands	r3, r2
 8001230:	61bb      	str	r3, [r7, #24]
 8001232:	687b      	ldr	r3, [r7, #4]
 8001234:	4a52      	ldr	r2, [pc, #328]	@ (8001380 <HAL_GPIO_Init+0x314>)
 8001236:	4293      	cmp	r3, r2
 8001238:	d02b      	beq.n	8001292 <HAL_GPIO_Init+0x226>
 800123a:	687b      	ldr	r3, [r7, #4]
 800123c:	4a51      	ldr	r2, [pc, #324]	@ (8001384 <HAL_GPIO_Init+0x318>)
 800123e:	4293      	cmp	r3, r2
 8001240:	d025      	beq.n	800128e <HAL_GPIO_Init+0x222>
 8001242:	687b      	ldr	r3, [r7, #4]
 8001244:	4a50      	ldr	r2, [pc, #320]	@ (8001388 <HAL_GPIO_Init+0x31c>)
 8001246:	4293      	cmp	r3, r2
 8001248:	d01f      	beq.n	800128a <HAL_GPIO_Init+0x21e>
 800124a:	687b      	ldr	r3, [r7, #4]
 800124c:	4a4f      	ldr	r2, [pc, #316]	@ (800138c <HAL_GPIO_Init+0x320>)
 800124e:	4293      	cmp	r3, r2
 8001250:	d019      	beq.n	8001286 <HAL_GPIO_Init+0x21a>
 8001252:	687b      	ldr	r3, [r7, #4]
 8001254:	4a4e      	ldr	r2, [pc, #312]	@ (8001390 <HAL_GPIO_Init+0x324>)
 8001256:	4293      	cmp	r3, r2
 8001258:	d013      	beq.n	8001282 <HAL_GPIO_Init+0x216>
 800125a:	687b      	ldr	r3, [r7, #4]
 800125c:	4a4d      	ldr	r2, [pc, #308]	@ (8001394 <HAL_GPIO_Init+0x328>)
 800125e:	4293      	cmp	r3, r2
 8001260:	d00d      	beq.n	800127e <HAL_GPIO_Init+0x212>
 8001262:	687b      	ldr	r3, [r7, #4]
 8001264:	4a4c      	ldr	r2, [pc, #304]	@ (8001398 <HAL_GPIO_Init+0x32c>)
 8001266:	4293      	cmp	r3, r2
 8001268:	d007      	beq.n	800127a <HAL_GPIO_Init+0x20e>
 800126a:	687b      	ldr	r3, [r7, #4]
 800126c:	4a4b      	ldr	r2, [pc, #300]	@ (800139c <HAL_GPIO_Init+0x330>)
 800126e:	4293      	cmp	r3, r2
 8001270:	d101      	bne.n	8001276 <HAL_GPIO_Init+0x20a>
 8001272:	2307      	movs	r3, #7
 8001274:	e00e      	b.n	8001294 <HAL_GPIO_Init+0x228>
 8001276:	2308      	movs	r3, #8
 8001278:	e00c      	b.n	8001294 <HAL_GPIO_Init+0x228>
 800127a:	2306      	movs	r3, #6
 800127c:	e00a      	b.n	8001294 <HAL_GPIO_Init+0x228>
 800127e:	2305      	movs	r3, #5
 8001280:	e008      	b.n	8001294 <HAL_GPIO_Init+0x228>
 8001282:	2304      	movs	r3, #4
 8001284:	e006      	b.n	8001294 <HAL_GPIO_Init+0x228>
 8001286:	2303      	movs	r3, #3
 8001288:	e004      	b.n	8001294 <HAL_GPIO_Init+0x228>
 800128a:	2302      	movs	r3, #2
 800128c:	e002      	b.n	8001294 <HAL_GPIO_Init+0x228>
 800128e:	2301      	movs	r3, #1
 8001290:	e000      	b.n	8001294 <HAL_GPIO_Init+0x228>
 8001292:	2300      	movs	r3, #0
 8001294:	69fa      	ldr	r2, [r7, #28]
 8001296:	f002 0203 	and.w	r2, r2, #3
 800129a:	0092      	lsls	r2, r2, #2
 800129c:	4093      	lsls	r3, r2
 800129e:	69ba      	ldr	r2, [r7, #24]
 80012a0:	4313      	orrs	r3, r2
 80012a2:	61bb      	str	r3, [r7, #24]
 80012a4:	4935      	ldr	r1, [pc, #212]	@ (800137c <HAL_GPIO_Init+0x310>)
 80012a6:	69fb      	ldr	r3, [r7, #28]
 80012a8:	089b      	lsrs	r3, r3, #2
 80012aa:	3302      	adds	r3, #2
 80012ac:	69ba      	ldr	r2, [r7, #24]
 80012ae:	f841 2023 	str.w	r2, [r1, r3, lsl #2]
 80012b2:	4b3b      	ldr	r3, [pc, #236]	@ (80013a0 <HAL_GPIO_Init+0x334>)
 80012b4:	689b      	ldr	r3, [r3, #8]
 80012b6:	61bb      	str	r3, [r7, #24]
 80012b8:	693b      	ldr	r3, [r7, #16]
 80012ba:	43db      	mvns	r3, r3
 80012bc:	69ba      	ldr	r2, [r7, #24]
 80012be:	4013      	ands	r3, r2
 80012c0:	61bb      	str	r3, [r7, #24]
 80012c2:	683b      	ldr	r3, [r7, #0]
 80012c4:	685b      	ldr	r3, [r3, #4]
 80012c6:	f403 1380 	and.w	r3, r3, #1048576	@ 0x100000
 80012ca:	2b00      	cmp	r3, #0
 80012cc:	d003      	beq.n	80012d6 <HAL_GPIO_Init+0x26a>
 80012ce:	69ba      	ldr	r2, [r7, #24]
 80012d0:	693b      	ldr	r3, [r7, #16]
 80012d2:	4313      	orrs	r3, r2
 80012d4:	61bb      	str	r3, [r7, #24]
 80012d6:	4a32      	ldr	r2, [pc, #200]	@ (80013a0 <HAL_GPIO_Init+0x334>)
 80012d8:	69bb      	ldr	r3, [r7, #24]
 80012da:	6093      	str	r3, [r2, #8]
 80012dc:	4b30      	ldr	r3, [pc, #192]	@ (80013a0 <HAL_GPIO_Init+0x334>)
 80012de:	68db      	ldr	r3, [r3, #12]
 80012e0:	61bb      	str	r3, [r7, #24]
 80012e2:	693b      	ldr	r3, [r7, #16]
 80012e4:	43db      	mvns	r3, r3
 80012e6:	69ba      	ldr	r2, [r7, #24]
 80012e8:	4013      	ands	r3, r2
 80012ea:	61bb      	str	r3, [r7, #24]
 80012ec:	683b      	ldr	r3, [r7, #0]
 80012ee:	685b      	ldr	r3, [r3, #4]
 80012f0:	f403 1300 	and.w	r3, r3, #2097152	@ 0x200000
 80012f4:	2b00      	cmp	r3, #0
 80012f6:	d003      	beq.n	8001300 <HAL_GPIO_Init+0x294>
 80012f8:	69ba      	ldr	r2, [r7, #24]
 80012fa:	693b      	ldr	r3, [r7, #16]
 80012fc:	4313      	orrs	r3, r2
 80012fe:	61bb      	str	r3, [r7, #24]
 8001300:	4a27      	ldr	r2, [pc, #156]	@ (80013a0 <HAL_GPIO_Init+0x334>)
 8001302:	69bb      	ldr	r3, [r7, #24]
 8001304:	60d3      	str	r3, [r2, #12]
 8001306:	4b26      	ldr	r3, [pc, #152]	@ (80013a0 <HAL_GPIO_Init+0x334>)
 8001308:	685b      	ldr	r3, [r3, #4]
 800130a:	61bb      	str	r3, [r7, #24]
 800130c:	693b      	ldr	r3, [r7, #16]
 800130e:	43db      	mvns	r3, r3
 8001310:	69ba      	ldr	r2, [r7, #24]
 8001312:	4013      	ands	r3, r2
 8001314:	61bb      	str	r3, [r7, #24]
 8001316:	683b      	ldr	r3, [r7, #0]
 8001318:	685b      	ldr	r3, [r3, #4]
 800131a:	f403 3300 	and.w	r3, r3, #131072	@ 0x20000
 800131e:	2b00      	cmp	r3, #0
 8001320:	d003      	beq.n	800132a <HAL_GPIO_Init+0x2be>
 8001322:	69ba      	ldr	r2, [r7, #24]
 8001324:	693b      	ldr	r3, [r7, #16]
 8001326:	4313      	orrs	r3, r2
 8001328:	61bb      	str	r3, [r7, #24]
 800132a:	4a1d      	ldr	r2, [pc, #116]	@ (80013a0 <HAL_GPIO_Init+0x334>)
 800132c:	69bb      	ldr	r3, [r7, #24]
 800132e:	6053      	str	r3, [r2, #4]
 8001330:	4b1b      	ldr	r3, [pc, #108]	@ (80013a0 <HAL_GPIO_Init+0x334>)
 8001332:	681b      	ldr	r3, [r3, #0]
 8001334:	61bb      	str	r3, [r7, #24]
 8001336:	693b      	ldr	r3, [r7, #16]
 8001338:	43db      	mvns	r3, r3
 800133a:	69ba      	ldr	r2, [r7, #24]
 800133c:	4013      	ands	r3, r2
 800133e:	61bb      	str	r3, [r7, #24]
 8001340:	683b      	ldr	r3, [r7, #0]
 8001342:	685b      	ldr	r3, [r3, #4]
 8001344:	f403 3380 	and.w	r3, r3, #65536	@ 0x10000
 8001348:	2b00      	cmp	r3, #0
 800134a:	d003      	beq.n	8001354 <HAL_GPIO_Init+0x2e8>
 800134c:	69ba      	ldr	r2, [r7, #24]
 800134e:	693b      	ldr	r3, [r7, #16]
 8001350:	4313      	orrs	r3, r2
 8001352:	61bb      	str	r3, [r7, #24]
 8001354:	4a12      	ldr	r2, [pc, #72]	@ (80013a0 <HAL_GPIO_Init+0x334>)
 8001356:	69bb      	ldr	r3, [r7, #24]
 8001358:	6013      	str	r3, [r2, #0]
 800135a:	69fb      	ldr	r3, [r7, #28]
 800135c:	3301      	adds	r3, #1
 800135e:	61fb      	str	r3, [r7, #28]
 8001360:	69fb      	ldr	r3, [r7, #28]
 8001362:	2b0f      	cmp	r3, #15
 8001364:	f67f ae90 	bls.w	8001088 <HAL_GPIO_Init+0x1c>
 8001368:	bf00      	nop
 800136a:	bf00      	nop
 800136c:	3724      	adds	r7, #36	@ 0x24
 800136e:	46bd      	mov	sp, r7
 8001370:	f85d 7b04 	ldr.w	r7, [sp], #4
 8001374:	4770      	bx	lr
 8001376:	bf00      	nop
 8001378:	40023800 	.word	0x40023800
 800137c:	40013800 	.word	0x40013800
 8001380:	40020000 	.word	0x40020000
 8001384:	40020400 	.word	0x40020400
 8001388:	40020800 	.word	0x40020800
 800138c:	40020c00 	.word	0x40020c00
 8001390:	40021000 	.word	0x40021000
 8001394:	40021400 	.word	0x40021400
 8001398:	40021800 	.word	0x40021800
 800139c:	40021c00 	.word	0x40021c00
 80013a0:	40013c00 	.word	0x40013c00

080013a4 <HAL_GPIO_ReadPin>:
 80013a4:	b480      	push	{r7}
 80013a6:	b085      	sub	sp, #20
 80013a8:	af00      	add	r7, sp, #0
 80013aa:	6078      	str	r0, [r7, #4]
 80013ac:	460b      	mov	r3, r1
 80013ae:	807b      	strh	r3, [r7, #2]
 80013b0:	687b      	ldr	r3, [r7, #4]
 80013b2:	691a      	ldr	r2, [r3, #16]
 80013b4:	887b      	ldrh	r3, [r7, #2]
 80013b6:	4013      	ands	r3, r2
 80013b8:	2b00      	cmp	r3, #0
 80013ba:	d002      	beq.n	80013c2 <HAL_GPIO_ReadPin+0x1e>
 80013bc:	2301      	movs	r3, #1
 80013be:	73fb      	strb	r3, [r7, #15]
 80013c0:	e001      	b.n	80013c6 <HAL_GPIO_ReadPin+0x22>
 80013c2:	2300      	movs	r3, #0
 80013c4:	73fb      	strb	r3, [r7, #15]
 80013c6:	7bfb      	ldrb	r3, [r7, #15]
 80013c8:	4618      	mov	r0, r3
 80013ca:	3714      	adds	r7, #20
 80013cc:	46bd      	mov	sp, r7
 80013ce:	f85d 7b04 	ldr.w	r7, [sp], #4
 80013d2:	4770      	bx	lr

080013d4 <HAL_GPIO_WritePin>:
 80013d4:	b480      	push	{r7}
 80013d6:	b083      	sub	sp, #12
 80013d8:	af00      	add	r7, sp, #0
 80013da:	6078      	str	r0, [r7, #4]
 80013dc:	460b      	mov	r3, r1
 80013de:	807b      	strh	r3, [r7, #2]
 80013e0:	4613      	mov	r3, r2
 80013e2:	707b      	strb	r3, [r7, #1]
 80013e4:	787b      	ldrb	r3, [r7, #1]
 80013e6:	2b00      	cmp	r3, #0
 80013e8:	d003      	beq.n	80013f2 <HAL_GPIO_WritePin+0x1e>
 80013ea:	887a      	ldrh	r2, [r7, #2]
 80013ec:	687b      	ldr	r3, [r7, #4]
 80013ee:	619a      	str	r2, [r3, #24]
 80013f0:	e003      	b.n	80013fa <HAL_GPIO_WritePin+0x26>
 80013f2:	887b      	ldrh	r3, [r7, #2]
 80013f4:	041a      	lsls	r2, r3, #16
 80013f6:	687b      	ldr	r3, [r7, #4]
 80013f8:	619a      	str	r2, [r3, #24]
 80013fa:	bf00      	nop
 80013fc:	370c      	adds	r7, #12
 80013fe:	46bd      	mov	sp, r7
 8001400:	f85d 7b04 	ldr.w	r7, [sp], #4
 8001404:	4770      	bx	lr

08001406 <HAL_HCD_Init>:
 8001406:	b580      	push	{r7, lr}
 8001408:	b086      	sub	sp, #24
 800140a:	af02      	add	r7, sp, #8
 800140c:	6078      	str	r0, [r7, #4]
 800140e:	687b      	ldr	r3, [r7, #4]
 8001410:	2b00      	cmp	r3, #0
 8001412:	d101      	bne.n	8001418 <HAL_HCD_Init+0x12>
 8001414:	2301      	movs	r3, #1
 8001416:	e059      	b.n	80014cc <HAL_HCD_Init+0xc6>
 8001418:	687b      	ldr	r3, [r7, #4]
 800141a:	681b      	ldr	r3, [r3, #0]
 800141c:	60fb      	str	r3, [r7, #12]
 800141e:	687b      	ldr	r3, [r7, #4]
 8001420:	f893 33d5 	ldrb.w	r3, [r3, #981]	@ 0x3d5
 8001424:	b2db      	uxtb	r3, r3
 8001426:	2b00      	cmp	r3, #0
 8001428:	d106      	bne.n	8001438 <HAL_HCD_Init+0x32>
 800142a:	687b      	ldr	r3, [r7, #4]
 800142c:	2200      	movs	r2, #0
 800142e:	f883 23d4 	strb.w	r2, [r3, #980]	@ 0x3d4
 8001432:	6878      	ldr	r0, [r7, #4]
 8001434:	f006 ff80 	bl	8008338 <HAL_HCD_MspInit>
 8001438:	687b      	ldr	r3, [r7, #4]
 800143a:	2203      	movs	r2, #3
 800143c:	f883 23d5 	strb.w	r2, [r3, #981]	@ 0x3d5
 8001440:	68fb      	ldr	r3, [r7, #12]
 8001442:	f1b3 4fa0 	cmp.w	r3, #1342177280	@ 0x50000000
 8001446:	d102      	bne.n	800144e <HAL_HCD_Init+0x48>
 8001448:	687b      	ldr	r3, [r7, #4]
 800144a:	2200      	movs	r2, #0
 800144c:	719a      	strb	r2, [r3, #6]
 800144e:	687b      	ldr	r3, [r7, #4]
 8001450:	681b      	ldr	r3, [r3, #0]
 8001452:	4618      	mov	r0, r3
 8001454:	f003 fd9a 	bl	8004f8c <USB_DisableGlobalInt>
 8001458:	687b      	ldr	r3, [r7, #4]
 800145a:	6818      	ldr	r0, [r3, #0]
 800145c:	687b      	ldr	r3, [r7, #4]
 800145e:	7c1a      	ldrb	r2, [r3, #16]
 8001460:	f88d 2000 	strb.w	r2, [sp]
 8001464:	3304      	adds	r3, #4
 8001466:	cb0e      	ldmia	r3, {r1, r2, r3}
 8001468:	f003 fd1b 	bl	8004ea2 <USB_CoreInit>
 800146c:	4603      	mov	r3, r0
 800146e:	2b00      	cmp	r3, #0
 8001470:	d005      	beq.n	800147e <HAL_HCD_Init+0x78>
 8001472:	687b      	ldr	r3, [r7, #4]
 8001474:	2202      	movs	r2, #2
 8001476:	f883 23d5 	strb.w	r2, [r3, #981]	@ 0x3d5
 800147a:	2301      	movs	r3, #1
 800147c:	e026      	b.n	80014cc <HAL_HCD_Init+0xc6>
 800147e:	687b      	ldr	r3, [r7, #4]
 8001480:	681b      	ldr	r3, [r3, #0]
 8001482:	2101      	movs	r1, #1
 8001484:	4618      	mov	r0, r3
 8001486:	f003 fd92 	bl	8004fae <USB_SetCurrentMode>
 800148a:	4603      	mov	r3, r0
 800148c:	2b00      	cmp	r3, #0
 800148e:	d005      	beq.n	800149c <HAL_HCD_Init+0x96>
 8001490:	687b      	ldr	r3, [r7, #4]
 8001492:	2202      	movs	r2, #2
 8001494:	f883 23d5 	strb.w	r2, [r3, #981]	@ 0x3d5
 8001498:	2301      	movs	r3, #1
 800149a:	e017      	b.n	80014cc <HAL_HCD_Init+0xc6>
 800149c:	687b      	ldr	r3, [r7, #4]
 800149e:	6818      	ldr	r0, [r3, #0]
 80014a0:	687b      	ldr	r3, [r7, #4]
 80014a2:	7c1a      	ldrb	r2, [r3, #16]
 80014a4:	f88d 2000 	strb.w	r2, [sp]
 80014a8:	3304      	adds	r3, #4
 80014aa:	cb0e      	ldmia	r3, {r1, r2, r3}
 80014ac:	f003 ff34 	bl	8005318 <USB_HostInit>
 80014b0:	4603      	mov	r3, r0
 80014b2:	2b00      	cmp	r3, #0
 80014b4:	d005      	beq.n	80014c2 <HAL_HCD_Init+0xbc>
 80014b6:	687b      	ldr	r3, [r7, #4]
 80014b8:	2202      	movs	r2, #2
 80014ba:	f883 23d5 	strb.w	r2, [r3, #981]	@ 0x3d5
 80014be:	2301      	movs	r3, #1
 80014c0:	e004      	b.n	80014cc <HAL_HCD_Init+0xc6>
 80014c2:	687b      	ldr	r3, [r7, #4]
 80014c4:	2201      	movs	r2, #1
 80014c6:	f883 23d5 	strb.w	r2, [r3, #981]	@ 0x3d5
 80014ca:	2300      	movs	r3, #0
 80014cc:	4618      	mov	r0, r3
 80014ce:	3710      	adds	r7, #16
 80014d0:	46bd      	mov	sp, r7
 80014d2:	bd80      	pop	{r7, pc}

080014d4 <HAL_HCD_HC_Init>:
 80014d4:	b590      	push	{r4, r7, lr}
 80014d6:	b08b      	sub	sp, #44	@ 0x2c
 80014d8:	af04      	add	r7, sp, #16
 80014da:	6078      	str	r0, [r7, #4]
 80014dc:	4608      	mov	r0, r1
 80014de:	4611      	mov	r1, r2
 80014e0:	461a      	mov	r2, r3
 80014e2:	4603      	mov	r3, r0
 80014e4:	70fb      	strb	r3, [r7, #3]
 80014e6:	460b      	mov	r3, r1
 80014e8:	70bb      	strb	r3, [r7, #2]
 80014ea:	4613      	mov	r3, r2
 80014ec:	707b      	strb	r3, [r7, #1]
 80014ee:	8e3b      	ldrh	r3, [r7, #48]	@ 0x30
 80014f0:	617b      	str	r3, [r7, #20]
 80014f2:	687b      	ldr	r3, [r7, #4]
 80014f4:	f893 33d4 	ldrb.w	r3, [r3, #980]	@ 0x3d4
 80014f8:	2b01      	cmp	r3, #1
 80014fa:	d101      	bne.n	8001500 <HAL_HCD_HC_Init+0x2c>
 80014fc:	2302      	movs	r3, #2
 80014fe:	e09d      	b.n	800163c <HAL_HCD_HC_Init+0x168>
 8001500:	687b      	ldr	r3, [r7, #4]
 8001502:	2201      	movs	r2, #1
 8001504:	f883 23d4 	strb.w	r2, [r3, #980]	@ 0x3d4
 8001508:	78fa      	ldrb	r2, [r7, #3]
 800150a:	6879      	ldr	r1, [r7, #4]
 800150c:	4613      	mov	r3, r2
 800150e:	011b      	lsls	r3, r3, #4
 8001510:	1a9b      	subs	r3, r3, r2
 8001512:	009b      	lsls	r3, r3, #2
 8001514:	440b      	add	r3, r1
 8001516:	3319      	adds	r3, #25
 8001518:	2200      	movs	r2, #0
 800151a:	701a      	strb	r2, [r3, #0]
 800151c:	78fa      	ldrb	r2, [r7, #3]
 800151e:	6879      	ldr	r1, [r7, #4]
 8001520:	4613      	mov	r3, r2
 8001522:	011b      	lsls	r3, r3, #4
 8001524:	1a9b      	subs	r3, r3, r2
 8001526:	009b      	lsls	r3, r3, #2
 8001528:	440b      	add	r3, r1
 800152a:	3314      	adds	r3, #20
 800152c:	787a      	ldrb	r2, [r7, #1]
 800152e:	701a      	strb	r2, [r3, #0]
 8001530:	78fa      	ldrb	r2, [r7, #3]
 8001532:	6879      	ldr	r1, [r7, #4]
 8001534:	4613      	mov	r3, r2
 8001536:	011b      	lsls	r3, r3, #4
 8001538:	1a9b      	subs	r3, r3, r2
 800153a:	009b      	lsls	r3, r3, #2
 800153c:	440b      	add	r3, r1
 800153e:	3315      	adds	r3, #21
 8001540:	78fa      	ldrb	r2, [r7, #3]
 8001542:	701a      	strb	r2, [r3, #0]
 8001544:	78fa      	ldrb	r2, [r7, #3]
 8001546:	6879      	ldr	r1, [r7, #4]
 8001548:	4613      	mov	r3, r2
 800154a:	011b      	lsls	r3, r3, #4
 800154c:	1a9b      	subs	r3, r3, r2
 800154e:	009b      	lsls	r3, r3, #2
 8001550:	440b      	add	r3, r1
 8001552:	3326      	adds	r3, #38	@ 0x26
 8001554:	f897 202c 	ldrb.w	r2, [r7, #44]	@ 0x2c
 8001558:	701a      	strb	r2, [r3, #0]
 800155a:	78fa      	ldrb	r2, [r7, #3]
 800155c:	78bb      	ldrb	r3, [r7, #2]
 800155e:	f003 037f 	and.w	r3, r3, #127	@ 0x7f
 8001562:	b2d8      	uxtb	r0, r3
 8001564:	6879      	ldr	r1, [r7, #4]
 8001566:	4613      	mov	r3, r2
 8001568:	011b      	lsls	r3, r3, #4
 800156a:	1a9b      	subs	r3, r3, r2
 800156c:	009b      	lsls	r3, r3, #2
 800156e:	440b      	add	r3, r1
 8001570:	3316      	adds	r3, #22
 8001572:	4602      	mov	r2, r0
 8001574:	701a      	strb	r2, [r3, #0]
 8001576:	78fb      	ldrb	r3, [r7, #3]
 8001578:	4619      	mov	r1, r3
 800157a:	6878      	ldr	r0, [r7, #4]
 800157c:	f000 fbc8 	bl	8001d10 <HAL_HCD_HC_ClearHubInfo>
 8001580:	f997 3002 	ldrsb.w	r3, [r7, #2]
 8001584:	2b00      	cmp	r3, #0
 8001586:	da0a      	bge.n	800159e <HAL_HCD_HC_Init+0xca>
 8001588:	78fa      	ldrb	r2, [r7, #3]
 800158a:	6879      	ldr	r1, [r7, #4]
 800158c:	4613      	mov	r3, r2
 800158e:	011b      	lsls	r3, r3, #4
 8001590:	1a9b      	subs	r3, r3, r2
 8001592:	009b      	lsls	r3, r3, #2
 8001594:	440b      	add	r3, r1
 8001596:	3317      	adds	r3, #23
 8001598:	2201      	movs	r2, #1
 800159a:	701a      	strb	r2, [r3, #0]
 800159c:	e009      	b.n	80015b2 <HAL_HCD_HC_Init+0xde>
 800159e:	78fa      	ldrb	r2, [r7, #3]
 80015a0:	6879      	ldr	r1, [r7, #4]
 80015a2:	4613      	mov	r3, r2
 80015a4:	011b      	lsls	r3, r3, #4
 80015a6:	1a9b      	subs	r3, r3, r2
 80015a8:	009b      	lsls	r3, r3, #2
 80015aa:	440b      	add	r3, r1
 80015ac:	3317      	adds	r3, #23
 80015ae:	2200      	movs	r2, #0
 80015b0:	701a      	strb	r2, [r3, #0]
 80015b2:	687b      	ldr	r3, [r7, #4]
 80015b4:	681b      	ldr	r3, [r3, #0]
 80015b6:	4618      	mov	r0, r3
 80015b8:	f004 f812 	bl	80055e0 <USB_GetHostSpeed>
 80015bc:	6138      	str	r0, [r7, #16]
 80015be:	f897 302c 	ldrb.w	r3, [r7, #44]	@ 0x2c
 80015c2:	2b01      	cmp	r3, #1
 80015c4:	d10b      	bne.n	80015de <HAL_HCD_HC_Init+0x10a>
 80015c6:	f897 3028 	ldrb.w	r3, [r7, #40]	@ 0x28
 80015ca:	2b01      	cmp	r3, #1
 80015cc:	d107      	bne.n	80015de <HAL_HCD_HC_Init+0x10a>
 80015ce:	693b      	ldr	r3, [r7, #16]
 80015d0:	2b00      	cmp	r3, #0
 80015d2:	d104      	bne.n	80015de <HAL_HCD_HC_Init+0x10a>
 80015d4:	697b      	ldr	r3, [r7, #20]
 80015d6:	2bbc      	cmp	r3, #188	@ 0xbc
 80015d8:	d901      	bls.n	80015de <HAL_HCD_HC_Init+0x10a>
 80015da:	23bc      	movs	r3, #188	@ 0xbc
 80015dc:	617b      	str	r3, [r7, #20]
 80015de:	78fa      	ldrb	r2, [r7, #3]
 80015e0:	6879      	ldr	r1, [r7, #4]
 80015e2:	4613      	mov	r3, r2
 80015e4:	011b      	lsls	r3, r3, #4
 80015e6:	1a9b      	subs	r3, r3, r2
 80015e8:	009b      	lsls	r3, r3, #2
 80015ea:	440b      	add	r3, r1
 80015ec:	3318      	adds	r3, #24
 80015ee:	f897 2028 	ldrb.w	r2, [r7, #40]	@ 0x28
 80015f2:	701a      	strb	r2, [r3, #0]
 80015f4:	78fa      	ldrb	r2, [r7, #3]
 80015f6:	697b      	ldr	r3, [r7, #20]
 80015f8:	b298      	uxth	r0, r3
 80015fa:	6879      	ldr	r1, [r7, #4]
 80015fc:	4613      	mov	r3, r2
 80015fe:	011b      	lsls	r3, r3, #4
 8001600:	1a9b      	subs	r3, r3, r2
 8001602:	009b      	lsls	r3, r3, #2
 8001604:	440b      	add	r3, r1
 8001606:	3328      	adds	r3, #40	@ 0x28
 8001608:	4602      	mov	r2, r0
 800160a:	801a      	strh	r2, [r3, #0]
 800160c:	687b      	ldr	r3, [r7, #4]
 800160e:	6818      	ldr	r0, [r3, #0]
 8001610:	697b      	ldr	r3, [r7, #20]
 8001612:	b29b      	uxth	r3, r3
 8001614:	787c      	ldrb	r4, [r7, #1]
 8001616:	78ba      	ldrb	r2, [r7, #2]
 8001618:	78f9      	ldrb	r1, [r7, #3]
 800161a:	9302      	str	r3, [sp, #8]
 800161c:	f897 302c 	ldrb.w	r3, [r7, #44]	@ 0x2c
 8001620:	9301      	str	r3, [sp, #4]
 8001622:	f897 3028 	ldrb.w	r3, [r7, #40]	@ 0x28
 8001626:	9300      	str	r3, [sp, #0]
 8001628:	4623      	mov	r3, r4
 800162a:	f004 f801 	bl	8005630 <USB_HC_Init>
 800162e:	4603      	mov	r3, r0
 8001630:	73fb      	strb	r3, [r7, #15]
 8001632:	687b      	ldr	r3, [r7, #4]
 8001634:	2200      	movs	r2, #0
 8001636:	f883 23d4 	strb.w	r2, [r3, #980]	@ 0x3d4
 800163a:	7bfb      	ldrb	r3, [r7, #15]
 800163c:	4618      	mov	r0, r3
 800163e:	371c      	adds	r7, #28
 8001640:	46bd      	mov	sp, r7
 8001642:	bd90      	pop	{r4, r7, pc}

08001644 <HAL_HCD_HC_Halt>:
 8001644:	b580      	push	{r7, lr}
 8001646:	b084      	sub	sp, #16
 8001648:	af00      	add	r7, sp, #0
 800164a:	6078      	str	r0, [r7, #4]
 800164c:	460b      	mov	r3, r1
 800164e:	70fb      	strb	r3, [r7, #3]
 8001650:	2300      	movs	r3, #0
 8001652:	73fb      	strb	r3, [r7, #15]
 8001654:	687b      	ldr	r3, [r7, #4]
 8001656:	f893 33d4 	ldrb.w	r3, [r3, #980]	@ 0x3d4
 800165a:	2b01      	cmp	r3, #1
 800165c:	d101      	bne.n	8001662 <HAL_HCD_HC_Halt+0x1e>
 800165e:	2302      	movs	r3, #2
 8001660:	e00f      	b.n	8001682 <HAL_HCD_HC_Halt+0x3e>
 8001662:	687b      	ldr	r3, [r7, #4]
 8001664:	2201      	movs	r2, #1
 8001666:	f883 23d4 	strb.w	r2, [r3, #980]	@ 0x3d4
 800166a:	687b      	ldr	r3, [r7, #4]
 800166c:	681b      	ldr	r3, [r3, #0]
 800166e:	78fa      	ldrb	r2, [r7, #3]
 8001670:	4611      	mov	r1, r2
 8001672:	4618      	mov	r0, r3
 8001674:	f004 fb93 	bl	8005d9e <USB_HC_Halt>
 8001678:	687b      	ldr	r3, [r7, #4]
 800167a:	2200      	movs	r2, #0
 800167c:	f883 23d4 	strb.w	r2, [r3, #980]	@ 0x3d4
 8001680:	7bfb      	ldrb	r3, [r7, #15]
 8001682:	4618      	mov	r0, r3
 8001684:	3710      	adds	r7, #16
 8001686:	46bd      	mov	sp, r7
 8001688:	bd80      	pop	{r7, pc}
	...

0800168c <HAL_HCD_HC_SubmitRequest>:
 800168c:	b580      	push	{r7, lr}
 800168e:	b082      	sub	sp, #8
 8001690:	af00      	add	r7, sp, #0
 8001692:	6078      	str	r0, [r7, #4]
 8001694:	4608      	mov	r0, r1
 8001696:	4611      	mov	r1, r2
 8001698:	461a      	mov	r2, r3
 800169a:	4603      	mov	r3, r0
 800169c:	70fb      	strb	r3, [r7, #3]
 800169e:	460b      	mov	r3, r1
 80016a0:	70bb      	strb	r3, [r7, #2]
 80016a2:	4613      	mov	r3, r2
 80016a4:	707b      	strb	r3, [r7, #1]
 80016a6:	78fa      	ldrb	r2, [r7, #3]
 80016a8:	6879      	ldr	r1, [r7, #4]
 80016aa:	4613      	mov	r3, r2
 80016ac:	011b      	lsls	r3, r3, #4
 80016ae:	1a9b      	subs	r3, r3, r2
 80016b0:	009b      	lsls	r3, r3, #2
 80016b2:	440b      	add	r3, r1
 80016b4:	3317      	adds	r3, #23
 80016b6:	78ba      	ldrb	r2, [r7, #2]
 80016b8:	701a      	strb	r2, [r3, #0]
 80016ba:	78fa      	ldrb	r2, [r7, #3]
 80016bc:	6879      	ldr	r1, [r7, #4]
 80016be:	4613      	mov	r3, r2
 80016c0:	011b      	lsls	r3, r3, #4
 80016c2:	1a9b      	subs	r3, r3, r2
 80016c4:	009b      	lsls	r3, r3, #2
 80016c6:	440b      	add	r3, r1
 80016c8:	3326      	adds	r3, #38	@ 0x26
 80016ca:	787a      	ldrb	r2, [r7, #1]
 80016cc:	701a      	strb	r2, [r3, #0]
 80016ce:	7c3b      	ldrb	r3, [r7, #16]
 80016d0:	2b00      	cmp	r3, #0
 80016d2:	d114      	bne.n	80016fe <HAL_HCD_HC_SubmitRequest+0x72>
 80016d4:	78fa      	ldrb	r2, [r7, #3]
 80016d6:	6879      	ldr	r1, [r7, #4]
 80016d8:	4613      	mov	r3, r2
 80016da:	011b      	lsls	r3, r3, #4
 80016dc:	1a9b      	subs	r3, r3, r2
 80016de:	009b      	lsls	r3, r3, #2
 80016e0:	440b      	add	r3, r1
 80016e2:	332a      	adds	r3, #42	@ 0x2a
 80016e4:	2203      	movs	r2, #3
 80016e6:	701a      	strb	r2, [r3, #0]
 80016e8:	78fa      	ldrb	r2, [r7, #3]
 80016ea:	6879      	ldr	r1, [r7, #4]
 80016ec:	4613      	mov	r3, r2
 80016ee:	011b      	lsls	r3, r3, #4
 80016f0:	1a9b      	subs	r3, r3, r2
 80016f2:	009b      	lsls	r3, r3, #2
 80016f4:	440b      	add	r3, r1
 80016f6:	3319      	adds	r3, #25
 80016f8:	7f3a      	ldrb	r2, [r7, #28]
 80016fa:	701a      	strb	r2, [r3, #0]
 80016fc:	e009      	b.n	8001712 <HAL_HCD_HC_SubmitRequest+0x86>
 80016fe:	78fa      	ldrb	r2, [r7, #3]
 8001700:	6879      	ldr	r1, [r7, #4]
 8001702:	4613      	mov	r3, r2
 8001704:	011b      	lsls	r3, r3, #4
 8001706:	1a9b      	subs	r3, r3, r2
 8001708:	009b      	lsls	r3, r3, #2
 800170a:	440b      	add	r3, r1
 800170c:	332a      	adds	r3, #42	@ 0x2a
 800170e:	2202      	movs	r2, #2
 8001710:	701a      	strb	r2, [r3, #0]
 8001712:	787b      	ldrb	r3, [r7, #1]
 8001714:	2b03      	cmp	r3, #3
 8001716:	f200 8102 	bhi.w	800191e <HAL_HCD_HC_SubmitRequest+0x292>
 800171a:	a201      	add	r2, pc, #4	@ (adr r2, 8001720 <HAL_HCD_HC_SubmitRequest+0x94>)
 800171c:	f852 f023 	ldr.w	pc, [r2, r3, lsl #2]
 8001720:	08001731 	.word	0x08001731
 8001724:	08001909 	.word	0x08001909
 8001728:	080017f5 	.word	0x080017f5
 800172c:	0800187f 	.word	0x0800187f
 8001730:	7c3b      	ldrb	r3, [r7, #16]
 8001732:	2b01      	cmp	r3, #1
 8001734:	f040 80f5 	bne.w	8001922 <HAL_HCD_HC_SubmitRequest+0x296>
 8001738:	78bb      	ldrb	r3, [r7, #2]
 800173a:	2b00      	cmp	r3, #0
 800173c:	d12d      	bne.n	800179a <HAL_HCD_HC_SubmitRequest+0x10e>
 800173e:	8b3b      	ldrh	r3, [r7, #24]
 8001740:	2b00      	cmp	r3, #0
 8001742:	d109      	bne.n	8001758 <HAL_HCD_HC_SubmitRequest+0xcc>
 8001744:	78fa      	ldrb	r2, [r7, #3]
 8001746:	6879      	ldr	r1, [r7, #4]
 8001748:	4613      	mov	r3, r2
 800174a:	011b      	lsls	r3, r3, #4
 800174c:	1a9b      	subs	r3, r3, r2
 800174e:	009b      	lsls	r3, r3, #2
 8001750:	440b      	add	r3, r1
 8001752:	333d      	adds	r3, #61	@ 0x3d
 8001754:	2201      	movs	r2, #1
 8001756:	701a      	strb	r2, [r3, #0]
 8001758:	78fa      	ldrb	r2, [r7, #3]
 800175a:	6879      	ldr	r1, [r7, #4]
 800175c:	4613      	mov	r3, r2
 800175e:	011b      	lsls	r3, r3, #4
 8001760:	1a9b      	subs	r3, r3, r2
 8001762:	009b      	lsls	r3, r3, #2
 8001764:	440b      	add	r3, r1
 8001766:	333d      	adds	r3, #61	@ 0x3d
 8001768:	781b      	ldrb	r3, [r3, #0]
 800176a:	2b00      	cmp	r3, #0
 800176c:	d10a      	bne.n	8001784 <HAL_HCD_HC_SubmitRequest+0xf8>
 800176e:	78fa      	ldrb	r2, [r7, #3]
 8001770:	6879      	ldr	r1, [r7, #4]
 8001772:	4613      	mov	r3, r2
 8001774:	011b      	lsls	r3, r3, #4
 8001776:	1a9b      	subs	r3, r3, r2
 8001778:	009b      	lsls	r3, r3, #2
 800177a:	440b      	add	r3, r1
 800177c:	332a      	adds	r3, #42	@ 0x2a
 800177e:	2200      	movs	r2, #0
 8001780:	701a      	strb	r2, [r3, #0]
 8001782:	e0ce      	b.n	8001922 <HAL_HCD_HC_SubmitRequest+0x296>
 8001784:	78fa      	ldrb	r2, [r7, #3]
 8001786:	6879      	ldr	r1, [r7, #4]
 8001788:	4613      	mov	r3, r2
 800178a:	011b      	lsls	r3, r3, #4
 800178c:	1a9b      	subs	r3, r3, r2
 800178e:	009b      	lsls	r3, r3, #2
 8001790:	440b      	add	r3, r1
 8001792:	332a      	adds	r3, #42	@ 0x2a
 8001794:	2202      	movs	r2, #2
 8001796:	701a      	strb	r2, [r3, #0]
 8001798:	e0c3      	b.n	8001922 <HAL_HCD_HC_SubmitRequest+0x296>
 800179a:	78fa      	ldrb	r2, [r7, #3]
 800179c:	6879      	ldr	r1, [r7, #4]
 800179e:	4613      	mov	r3, r2
 80017a0:	011b      	lsls	r3, r3, #4
 80017a2:	1a9b      	subs	r3, r3, r2
 80017a4:	009b      	lsls	r3, r3, #2
 80017a6:	440b      	add	r3, r1
 80017a8:	331a      	adds	r3, #26
 80017aa:	781b      	ldrb	r3, [r3, #0]
 80017ac:	2b01      	cmp	r3, #1
 80017ae:	f040 80b8 	bne.w	8001922 <HAL_HCD_HC_SubmitRequest+0x296>
 80017b2:	78fa      	ldrb	r2, [r7, #3]
 80017b4:	6879      	ldr	r1, [r7, #4]
 80017b6:	4613      	mov	r3, r2
 80017b8:	011b      	lsls	r3, r3, #4
 80017ba:	1a9b      	subs	r3, r3, r2
 80017bc:	009b      	lsls	r3, r3, #2
 80017be:	440b      	add	r3, r1
 80017c0:	333c      	adds	r3, #60	@ 0x3c
 80017c2:	781b      	ldrb	r3, [r3, #0]
 80017c4:	2b00      	cmp	r3, #0
 80017c6:	d10a      	bne.n	80017de <HAL_HCD_HC_SubmitRequest+0x152>
 80017c8:	78fa      	ldrb	r2, [r7, #3]
 80017ca:	6879      	ldr	r1, [r7, #4]
 80017cc:	4613      	mov	r3, r2
 80017ce:	011b      	lsls	r3, r3, #4
 80017d0:	1a9b      	subs	r3, r3, r2
 80017d2:	009b      	lsls	r3, r3, #2
 80017d4:	440b      	add	r3, r1
 80017d6:	332a      	adds	r3, #42	@ 0x2a
 80017d8:	2200      	movs	r2, #0
 80017da:	701a      	strb	r2, [r3, #0]
 80017dc:	e0a1      	b.n	8001922 <HAL_HCD_HC_SubmitRequest+0x296>
 80017de:	78fa      	ldrb	r2, [r7, #3]
 80017e0:	6879      	ldr	r1, [r7, #4]
 80017e2:	4613      	mov	r3, r2
 80017e4:	011b      	lsls	r3, r3, #4
 80017e6:	1a9b      	subs	r3, r3, r2
 80017e8:	009b      	lsls	r3, r3, #2
 80017ea:	440b      	add	r3, r1
 80017ec:	332a      	adds	r3, #42	@ 0x2a
 80017ee:	2202      	movs	r2, #2
 80017f0:	701a      	strb	r2, [r3, #0]
 80017f2:	e096      	b.n	8001922 <HAL_HCD_HC_SubmitRequest+0x296>
 80017f4:	78bb      	ldrb	r3, [r7, #2]
 80017f6:	2b00      	cmp	r3, #0
 80017f8:	d120      	bne.n	800183c <HAL_HCD_HC_SubmitRequest+0x1b0>
 80017fa:	78fa      	ldrb	r2, [r7, #3]
 80017fc:	6879      	ldr	r1, [r7, #4]
 80017fe:	4613      	mov	r3, r2
 8001800:	011b      	lsls	r3, r3, #4
 8001802:	1a9b      	subs	r3, r3, r2
 8001804:	009b      	lsls	r3, r3, #2
 8001806:	440b      	add	r3, r1
 8001808:	333d      	adds	r3, #61	@ 0x3d
 800180a:	781b      	ldrb	r3, [r3, #0]
 800180c:	2b00      	cmp	r3, #0
 800180e:	d10a      	bne.n	8001826 <HAL_HCD_HC_SubmitRequest+0x19a>
 8001810:	78fa      	ldrb	r2, [r7, #3]
 8001812:	6879      	ldr	r1, [r7, #4]
 8001814:	4613      	mov	r3, r2
 8001816:	011b      	lsls	r3, r3, #4
 8001818:	1a9b      	subs	r3, r3, r2
 800181a:	009b      	lsls	r3, r3, #2
 800181c:	440b      	add	r3, r1
 800181e:	332a      	adds	r3, #42	@ 0x2a
 8001820:	2200      	movs	r2, #0
 8001822:	701a      	strb	r2, [r3, #0]
 8001824:	e07e      	b.n	8001924 <HAL_HCD_HC_SubmitRequest+0x298>
 8001826:	78fa      	ldrb	r2, [r7, #3]
 8001828:	6879      	ldr	r1, [r7, #4]
 800182a:	4613      	mov	r3, r2
 800182c:	011b      	lsls	r3, r3, #4
 800182e:	1a9b      	subs	r3, r3, r2
 8001830:	009b      	lsls	r3, r3, #2
 8001832:	440b      	add	r3, r1
 8001834:	332a      	adds	r3, #42	@ 0x2a
 8001836:	2202      	movs	r2, #2
 8001838:	701a      	strb	r2, [r3, #0]
 800183a:	e073      	b.n	8001924 <HAL_HCD_HC_SubmitRequest+0x298>
 800183c:	78fa      	ldrb	r2, [r7, #3]
 800183e:	6879      	ldr	r1, [r7, #4]
 8001840:	4613      	mov	r3, r2
 8001842:	011b      	lsls	r3, r3, #4
 8001844:	1a9b      	subs	r3, r3, r2
 8001846:	009b      	lsls	r3, r3, #2
 8001848:	440b      	add	r3, r1
 800184a:	333c      	adds	r3, #60	@ 0x3c
 800184c:	781b      	ldrb	r3, [r3, #0]
 800184e:	2b00      	cmp	r3, #0
 8001850:	d10a      	bne.n	8001868 <HAL_HCD_HC_SubmitRequest+0x1dc>
 8001852:	78fa      	ldrb	r2, [r7, #3]
 8001854:	6879      	ldr	r1, [r7, #4]
 8001856:	4613      	mov	r3, r2
 8001858:	011b      	lsls	r3, r3, #4
 800185a:	1a9b      	subs	r3, r3, r2
 800185c:	009b      	lsls	r3, r3, #2
 800185e:	440b      	add	r3, r1
 8001860:	332a      	adds	r3, #42	@ 0x2a
 8001862:	2200      	movs	r2, #0
 8001864:	701a      	strb	r2, [r3, #0]
 8001866:	e05d      	b.n	8001924 <HAL_HCD_HC_SubmitRequest+0x298>
 8001868:	78fa      	ldrb	r2, [r7, #3]
 800186a:	6879      	ldr	r1, [r7, #4]
 800186c:	4613      	mov	r3, r2
 800186e:	011b      	lsls	r3, r3, #4
 8001870:	1a9b      	subs	r3, r3, r2
 8001872:	009b      	lsls	r3, r3, #2
 8001874:	440b      	add	r3, r1
 8001876:	332a      	adds	r3, #42	@ 0x2a
 8001878:	2202      	movs	r2, #2
 800187a:	701a      	strb	r2, [r3, #0]
 800187c:	e052      	b.n	8001924 <HAL_HCD_HC_SubmitRequest+0x298>
 800187e:	78bb      	ldrb	r3, [r7, #2]
 8001880:	2b00      	cmp	r3, #0
 8001882:	d120      	bne.n	80018c6 <HAL_HCD_HC_SubmitRequest+0x23a>
 8001884:	78fa      	ldrb	r2, [r7, #3]
 8001886:	6879      	ldr	r1, [r7, #4]
 8001888:	4613      	mov	r3, r2
 800188a:	011b      	lsls	r3, r3, #4
 800188c:	1a9b      	subs	r3, r3, r2
 800188e:	009b      	lsls	r3, r3, #2
 8001890:	440b      	add	r3, r1
 8001892:	333d      	adds	r3, #61	@ 0x3d
 8001894:	781b      	ldrb	r3, [r3, #0]
 8001896:	2b00      	cmp	r3, #0
 8001898:	d10a      	bne.n	80018b0 <HAL_HCD_HC_SubmitRequest+0x224>
 800189a:	78fa      	ldrb	r2, [r7, #3]
 800189c:	6879      	ldr	r1, [r7, #4]
 800189e:	4613      	mov	r3, r2
 80018a0:	011b      	lsls	r3, r3, #4
 80018a2:	1a9b      	subs	r3, r3, r2
 80018a4:	009b      	lsls	r3, r3, #2
 80018a6:	440b      	add	r3, r1
 80018a8:	332a      	adds	r3, #42	@ 0x2a
 80018aa:	2200      	movs	r2, #0
 80018ac:	701a      	strb	r2, [r3, #0]
 80018ae:	e039      	b.n	8001924 <HAL_HCD_HC_SubmitRequest+0x298>
 80018b0:	78fa      	ldrb	r2, [r7, #3]
 80018b2:	6879      	ldr	r1, [r7, #4]
 80018b4:	4613      	mov	r3, r2
 80018b6:	011b      	lsls	r3, r3, #4
 80018b8:	1a9b      	subs	r3, r3, r2
 80018ba:	009b      	lsls	r3, r3, #2
 80018bc:	440b      	add	r3, r1
 80018be:	332a      	adds	r3, #42	@ 0x2a
 80018c0:	2202      	movs	r2, #2
 80018c2:	701a      	strb	r2, [r3, #0]
 80018c4:	e02e      	b.n	8001924 <HAL_HCD_HC_SubmitRequest+0x298>
 80018c6:	78fa      	ldrb	r2, [r7, #3]
 80018c8:	6879      	ldr	r1, [r7, #4]
 80018ca:	4613      	mov	r3, r2
 80018cc:	011b      	lsls	r3, r3, #4
 80018ce:	1a9b      	subs	r3, r3, r2
 80018d0:	009b      	lsls	r3, r3, #2
 80018d2:	440b      	add	r3, r1
 80018d4:	333c      	adds	r3, #60	@ 0x3c
 80018d6:	781b      	ldrb	r3, [r3, #0]
 80018d8:	2b00      	cmp	r3, #0
 80018da:	d10a      	bne.n	80018f2 <HAL_HCD_HC_SubmitRequest+0x266>
 80018dc:	78fa      	ldrb	r2, [r7, #3]
 80018de:	6879      	ldr	r1, [r7, #4]
 80018e0:	4613      	mov	r3, r2
 80018e2:	011b      	lsls	r3, r3, #4
 80018e4:	1a9b      	subs	r3, r3, r2
 80018e6:	009b      	lsls	r3, r3, #2
 80018e8:	440b      	add	r3, r1
 80018ea:	332a      	adds	r3, #42	@ 0x2a
 80018ec:	2200      	movs	r2, #0
 80018ee:	701a      	strb	r2, [r3, #0]
 80018f0:	e018      	b.n	8001924 <HAL_HCD_HC_SubmitRequest+0x298>
 80018f2:	78fa      	ldrb	r2, [r7, #3]
 80018f4:	6879      	ldr	r1, [r7, #4]
 80018f6:	4613      	mov	r3, r2
 80018f8:	011b      	lsls	r3, r3, #4
 80018fa:	1a9b      	subs	r3, r3, r2
 80018fc:	009b      	lsls	r3, r3, #2
 80018fe:	440b      	add	r3, r1
 8001900:	332a      	adds	r3, #42	@ 0x2a
 8001902:	2202      	movs	r2, #2
 8001904:	701a      	strb	r2, [r3, #0]
 8001906:	e00d      	b.n	8001924 <HAL_HCD_HC_SubmitRequest+0x298>
 8001908:	78fa      	ldrb	r2, [r7, #3]
 800190a:	6879      	ldr	r1, [r7, #4]
 800190c:	4613      	mov	r3, r2
 800190e:	011b      	lsls	r3, r3, #4
 8001910:	1a9b      	subs	r3, r3, r2
 8001912:	009b      	lsls	r3, r3, #2
 8001914:	440b      	add	r3, r1
 8001916:	332a      	adds	r3, #42	@ 0x2a
 8001918:	2200      	movs	r2, #0
 800191a:	701a      	strb	r2, [r3, #0]
 800191c:	e002      	b.n	8001924 <HAL_HCD_HC_SubmitRequest+0x298>
 800191e:	bf00      	nop
 8001920:	e000      	b.n	8001924 <HAL_HCD_HC_SubmitRequest+0x298>
 8001922:	bf00      	nop
 8001924:	78fa      	ldrb	r2, [r7, #3]
 8001926:	6879      	ldr	r1, [r7, #4]
 8001928:	4613      	mov	r3, r2
 800192a:	011b      	lsls	r3, r3, #4
 800192c:	1a9b      	subs	r3, r3, r2
 800192e:	009b      	lsls	r3, r3, #2
 8001930:	440b      	add	r3, r1
 8001932:	332c      	adds	r3, #44	@ 0x2c
 8001934:	697a      	ldr	r2, [r7, #20]
 8001936:	601a      	str	r2, [r3, #0]
 8001938:	78fa      	ldrb	r2, [r7, #3]
 800193a:	8b39      	ldrh	r1, [r7, #24]
 800193c:	6878      	ldr	r0, [r7, #4]
 800193e:	4613      	mov	r3, r2
 8001940:	011b      	lsls	r3, r3, #4
 8001942:	1a9b      	subs	r3, r3, r2
 8001944:	009b      	lsls	r3, r3, #2
 8001946:	4403      	add	r3, r0
 8001948:	3334      	adds	r3, #52	@ 0x34
 800194a:	6019      	str	r1, [r3, #0]
 800194c:	78fa      	ldrb	r2, [r7, #3]
 800194e:	6879      	ldr	r1, [r7, #4]
 8001950:	4613      	mov	r3, r2
 8001952:	011b      	lsls	r3, r3, #4
 8001954:	1a9b      	subs	r3, r3, r2
 8001956:	009b      	lsls	r3, r3, #2
 8001958:	440b      	add	r3, r1
 800195a:	334c      	adds	r3, #76	@ 0x4c
 800195c:	2200      	movs	r2, #0
 800195e:	701a      	strb	r2, [r3, #0]
 8001960:	78fa      	ldrb	r2, [r7, #3]
 8001962:	6879      	ldr	r1, [r7, #4]
 8001964:	4613      	mov	r3, r2
 8001966:	011b      	lsls	r3, r3, #4
 8001968:	1a9b      	subs	r3, r3, r2
 800196a:	009b      	lsls	r3, r3, #2
 800196c:	440b      	add	r3, r1
 800196e:	3338      	adds	r3, #56	@ 0x38
 8001970:	2200      	movs	r2, #0
 8001972:	601a      	str	r2, [r3, #0]
 8001974:	78fa      	ldrb	r2, [r7, #3]
 8001976:	6879      	ldr	r1, [r7, #4]
 8001978:	4613      	mov	r3, r2
 800197a:	011b      	lsls	r3, r3, #4
 800197c:	1a9b      	subs	r3, r3, r2
 800197e:	009b      	lsls	r3, r3, #2
 8001980:	440b      	add	r3, r1
 8001982:	3315      	adds	r3, #21
 8001984:	78fa      	ldrb	r2, [r7, #3]
 8001986:	701a      	strb	r2, [r3, #0]
 8001988:	78fa      	ldrb	r2, [r7, #3]
 800198a:	6879      	ldr	r1, [r7, #4]
 800198c:	4613      	mov	r3, r2
 800198e:	011b      	lsls	r3, r3, #4
 8001990:	1a9b      	subs	r3, r3, r2
 8001992:	009b      	lsls	r3, r3, #2
 8001994:	440b      	add	r3, r1
 8001996:	334d      	adds	r3, #77	@ 0x4d
 8001998:	2200      	movs	r2, #0
 800199a:	701a      	strb	r2, [r3, #0]
 800199c:	687b      	ldr	r3, [r7, #4]
 800199e:	6818      	ldr	r0, [r3, #0]
 80019a0:	78fa      	ldrb	r2, [r7, #3]
 80019a2:	4613      	mov	r3, r2
 80019a4:	011b      	lsls	r3, r3, #4
 80019a6:	1a9b      	subs	r3, r3, r2
 80019a8:	009b      	lsls	r3, r3, #2
 80019aa:	3310      	adds	r3, #16
 80019ac:	687a      	ldr	r2, [r7, #4]
 80019ae:	4413      	add	r3, r2
 80019b0:	1d19      	adds	r1, r3, #4
 80019b2:	687b      	ldr	r3, [r7, #4]
 80019b4:	799b      	ldrb	r3, [r3, #6]
 80019b6:	461a      	mov	r2, r3
 80019b8:	f003 ff66 	bl	8005888 <USB_HC_StartXfer>
 80019bc:	4603      	mov	r3, r0
 80019be:	4618      	mov	r0, r3
 80019c0:	3708      	adds	r7, #8
 80019c2:	46bd      	mov	sp, r7
 80019c4:	bd80      	pop	{r7, pc}
 80019c6:	bf00      	nop

080019c8 <HAL_HCD_IRQHandler>:
 80019c8:	b580      	push	{r7, lr}
 80019ca:	b086      	sub	sp, #24
 80019cc:	af00      	add	r7, sp, #0
 80019ce:	6078      	str	r0, [r7, #4]
 80019d0:	687b      	ldr	r3, [r7, #4]
 80019d2:	681b      	ldr	r3, [r3, #0]
 80019d4:	613b      	str	r3, [r7, #16]
 80019d6:	693b      	ldr	r3, [r7, #16]
 80019d8:	60fb      	str	r3, [r7, #12]
 80019da:	687b      	ldr	r3, [r7, #4]
 80019dc:	681b      	ldr	r3, [r3, #0]
 80019de:	4618      	mov	r0, r3
 80019e0:	f003 fc5b 	bl	800529a <USB_GetMode>
 80019e4:	4603      	mov	r3, r0
 80019e6:	2b01      	cmp	r3, #1
 80019e8:	f040 80fb 	bne.w	8001be2 <HAL_HCD_IRQHandler+0x21a>
 80019ec:	687b      	ldr	r3, [r7, #4]
 80019ee:	681b      	ldr	r3, [r3, #0]
 80019f0:	4618      	mov	r0, r3
 80019f2:	f003 fc1e 	bl	8005232 <USB_ReadInterrupts>
 80019f6:	4603      	mov	r3, r0
 80019f8:	2b00      	cmp	r3, #0
 80019fa:	f000 80f1 	beq.w	8001be0 <HAL_HCD_IRQHandler+0x218>
 80019fe:	687b      	ldr	r3, [r7, #4]
 8001a00:	681b      	ldr	r3, [r3, #0]
 8001a02:	4618      	mov	r0, r3
 8001a04:	f003 fc15 	bl	8005232 <USB_ReadInterrupts>
 8001a08:	4603      	mov	r3, r0
 8001a0a:	f403 1300 	and.w	r3, r3, #2097152	@ 0x200000
 8001a0e:	f5b3 1f00 	cmp.w	r3, #2097152	@ 0x200000
 8001a12:	d104      	bne.n	8001a1e <HAL_HCD_IRQHandler+0x56>
 8001a14:	687b      	ldr	r3, [r7, #4]
 8001a16:	681b      	ldr	r3, [r3, #0]
 8001a18:	f44f 1200 	mov.w	r2, #2097152	@ 0x200000
 8001a1c:	615a      	str	r2, [r3, #20]
 8001a1e:	687b      	ldr	r3, [r7, #4]
 8001a20:	681b      	ldr	r3, [r3, #0]
 8001a22:	4618      	mov	r0, r3
 8001a24:	f003 fc05 	bl	8005232 <USB_ReadInterrupts>
 8001a28:	4603      	mov	r3, r0
 8001a2a:	f403 1380 	and.w	r3, r3, #1048576	@ 0x100000
 8001a2e:	f5b3 1f80 	cmp.w	r3, #1048576	@ 0x100000
 8001a32:	d104      	bne.n	8001a3e <HAL_HCD_IRQHandler+0x76>
 8001a34:	687b      	ldr	r3, [r7, #4]
 8001a36:	681b      	ldr	r3, [r3, #0]
 8001a38:	f44f 1280 	mov.w	r2, #1048576	@ 0x100000
 8001a3c:	615a      	str	r2, [r3, #20]
 8001a3e:	687b      	ldr	r3, [r7, #4]
 8001a40:	681b      	ldr	r3, [r3, #0]
 8001a42:	4618      	mov	r0, r3
 8001a44:	f003 fbf5 	bl	8005232 <USB_ReadInterrupts>
 8001a48:	4603      	mov	r3, r0
 8001a4a:	f003 6380 	and.w	r3, r3, #67108864	@ 0x4000000
 8001a4e:	f1b3 6f80 	cmp.w	r3, #67108864	@ 0x4000000
 8001a52:	d104      	bne.n	8001a5e <HAL_HCD_IRQHandler+0x96>
 8001a54:	687b      	ldr	r3, [r7, #4]
 8001a56:	681b      	ldr	r3, [r3, #0]
 8001a58:	f04f 6280 	mov.w	r2, #67108864	@ 0x4000000
 8001a5c:	615a      	str	r2, [r3, #20]
 8001a5e:	687b      	ldr	r3, [r7, #4]
 8001a60:	681b      	ldr	r3, [r3, #0]
 8001a62:	4618      	mov	r0, r3
 8001a64:	f003 fbe5 	bl	8005232 <USB_ReadInterrupts>
 8001a68:	4603      	mov	r3, r0
 8001a6a:	f003 0302 	and.w	r3, r3, #2
 8001a6e:	2b02      	cmp	r3, #2
 8001a70:	d103      	bne.n	8001a7a <HAL_HCD_IRQHandler+0xb2>
 8001a72:	687b      	ldr	r3, [r7, #4]
 8001a74:	681b      	ldr	r3, [r3, #0]
 8001a76:	2202      	movs	r2, #2
 8001a78:	615a      	str	r2, [r3, #20]
 8001a7a:	687b      	ldr	r3, [r7, #4]
 8001a7c:	681b      	ldr	r3, [r3, #0]
 8001a7e:	4618      	mov	r0, r3
 8001a80:	f003 fbd7 	bl	8005232 <USB_ReadInterrupts>
 8001a84:	4603      	mov	r3, r0
 8001a86:	f003 5300 	and.w	r3, r3, #536870912	@ 0x20000000
 8001a8a:	f1b3 5f00 	cmp.w	r3, #536870912	@ 0x20000000
 8001a8e:	d120      	bne.n	8001ad2 <HAL_HCD_IRQHandler+0x10a>
 8001a90:	687b      	ldr	r3, [r7, #4]
 8001a92:	681b      	ldr	r3, [r3, #0]
 8001a94:	f04f 5200 	mov.w	r2, #536870912	@ 0x20000000
 8001a98:	615a      	str	r2, [r3, #20]
 8001a9a:	68fb      	ldr	r3, [r7, #12]
 8001a9c:	f503 6388 	add.w	r3, r3, #1088	@ 0x440
 8001aa0:	681b      	ldr	r3, [r3, #0]
 8001aa2:	f003 0301 	and.w	r3, r3, #1
 8001aa6:	2b00      	cmp	r3, #0
 8001aa8:	d113      	bne.n	8001ad2 <HAL_HCD_IRQHandler+0x10a>
 8001aaa:	2110      	movs	r1, #16
 8001aac:	6938      	ldr	r0, [r7, #16]
 8001aae:	f003 faca 	bl	8005046 <USB_FlushTxFifo>
 8001ab2:	6938      	ldr	r0, [r7, #16]
 8001ab4:	f003 faf9 	bl	80050aa <USB_FlushRxFifo>
 8001ab8:	687b      	ldr	r3, [r7, #4]
 8001aba:	7a5b      	ldrb	r3, [r3, #9]
 8001abc:	2b02      	cmp	r3, #2
 8001abe:	d105      	bne.n	8001acc <HAL_HCD_IRQHandler+0x104>
 8001ac0:	687b      	ldr	r3, [r7, #4]
 8001ac2:	681b      	ldr	r3, [r3, #0]
 8001ac4:	2101      	movs	r1, #1
 8001ac6:	4618      	mov	r0, r3
 8001ac8:	f003 fcea 	bl	80054a0 <USB_InitFSLSPClkSel>
 8001acc:	6878      	ldr	r0, [r7, #4]
 8001ace:	f006 fcb1 	bl	8008434 <HAL_HCD_Disconnect_Callback>
 8001ad2:	687b      	ldr	r3, [r7, #4]
 8001ad4:	681b      	ldr	r3, [r3, #0]
 8001ad6:	4618      	mov	r0, r3
 8001ad8:	f003 fbab 	bl	8005232 <USB_ReadInterrupts>
 8001adc:	4603      	mov	r3, r0
 8001ade:	f003 7380 	and.w	r3, r3, #16777216	@ 0x1000000
 8001ae2:	f1b3 7f80 	cmp.w	r3, #16777216	@ 0x1000000
 8001ae6:	d102      	bne.n	8001aee <HAL_HCD_IRQHandler+0x126>
 8001ae8:	6878      	ldr	r0, [r7, #4]
 8001aea:	f001 fd33 	bl	8003554 <HCD_Port_IRQHandler>
 8001aee:	687b      	ldr	r3, [r7, #4]
 8001af0:	681b      	ldr	r3, [r3, #0]
 8001af2:	4618      	mov	r0, r3
 8001af4:	f003 fb9d 	bl	8005232 <USB_ReadInterrupts>
 8001af8:	4603      	mov	r3, r0
 8001afa:	f003 0308 	and.w	r3, r3, #8
 8001afe:	2b08      	cmp	r3, #8
 8001b00:	d106      	bne.n	8001b10 <HAL_HCD_IRQHandler+0x148>
 8001b02:	6878      	ldr	r0, [r7, #4]
 8001b04:	f006 fc7a 	bl	80083fc <HAL_HCD_SOF_Callback>
 8001b08:	687b      	ldr	r3, [r7, #4]
 8001b0a:	681b      	ldr	r3, [r3, #0]
 8001b0c:	2208      	movs	r2, #8
 8001b0e:	615a      	str	r2, [r3, #20]
 8001b10:	687b      	ldr	r3, [r7, #4]
 8001b12:	681b      	ldr	r3, [r3, #0]
 8001b14:	4618      	mov	r0, r3
 8001b16:	f003 fb8c 	bl	8005232 <USB_ReadInterrupts>
 8001b1a:	4603      	mov	r3, r0
 8001b1c:	f003 7300 	and.w	r3, r3, #33554432	@ 0x2000000
 8001b20:	f1b3 7f00 	cmp.w	r3, #33554432	@ 0x2000000
 8001b24:	d139      	bne.n	8001b9a <HAL_HCD_IRQHandler+0x1d2>
 8001b26:	687b      	ldr	r3, [r7, #4]
 8001b28:	681b      	ldr	r3, [r3, #0]
 8001b2a:	4618      	mov	r0, r3
 8001b2c:	f004 f926 	bl	8005d7c <USB_HC_ReadInterrupt>
 8001b30:	60b8      	str	r0, [r7, #8]
 8001b32:	2300      	movs	r3, #0
 8001b34:	617b      	str	r3, [r7, #20]
 8001b36:	e025      	b.n	8001b84 <HAL_HCD_IRQHandler+0x1bc>
 8001b38:	697b      	ldr	r3, [r7, #20]
 8001b3a:	f003 030f 	and.w	r3, r3, #15
 8001b3e:	68ba      	ldr	r2, [r7, #8]
 8001b40:	fa22 f303 	lsr.w	r3, r2, r3
 8001b44:	f003 0301 	and.w	r3, r3, #1
 8001b48:	2b00      	cmp	r3, #0
 8001b4a:	d018      	beq.n	8001b7e <HAL_HCD_IRQHandler+0x1b6>
 8001b4c:	697b      	ldr	r3, [r7, #20]
 8001b4e:	015a      	lsls	r2, r3, #5
 8001b50:	68fb      	ldr	r3, [r7, #12]
 8001b52:	4413      	add	r3, r2
 8001b54:	f503 63a0 	add.w	r3, r3, #1280	@ 0x500
 8001b58:	681b      	ldr	r3, [r3, #0]
 8001b5a:	f403 4300 	and.w	r3, r3, #32768	@ 0x8000
 8001b5e:	f5b3 4f00 	cmp.w	r3, #32768	@ 0x8000
 8001b62:	d106      	bne.n	8001b72 <HAL_HCD_IRQHandler+0x1aa>
 8001b64:	697b      	ldr	r3, [r7, #20]
 8001b66:	b2db      	uxtb	r3, r3
 8001b68:	4619      	mov	r1, r3
 8001b6a:	6878      	ldr	r0, [r7, #4]
 8001b6c:	f000 f905 	bl	8001d7a <HCD_HC_IN_IRQHandler>
 8001b70:	e005      	b.n	8001b7e <HAL_HCD_IRQHandler+0x1b6>
 8001b72:	697b      	ldr	r3, [r7, #20]
 8001b74:	b2db      	uxtb	r3, r3
 8001b76:	4619      	mov	r1, r3
 8001b78:	6878      	ldr	r0, [r7, #4]
 8001b7a:	f000 ff67 	bl	8002a4c <HCD_HC_OUT_IRQHandler>
 8001b7e:	697b      	ldr	r3, [r7, #20]
 8001b80:	3301      	adds	r3, #1
 8001b82:	617b      	str	r3, [r7, #20]
 8001b84:	687b      	ldr	r3, [r7, #4]
 8001b86:	795b      	ldrb	r3, [r3, #5]
 8001b88:	461a      	mov	r2, r3
 8001b8a:	697b      	ldr	r3, [r7, #20]
 8001b8c:	4293      	cmp	r3, r2
 8001b8e:	d3d3      	bcc.n	8001b38 <HAL_HCD_IRQHandler+0x170>
 8001b90:	687b      	ldr	r3, [r7, #4]
 8001b92:	681b      	ldr	r3, [r3, #0]
 8001b94:	f04f 7200 	mov.w	r2, #33554432	@ 0x2000000
 8001b98:	615a      	str	r2, [r3, #20]
 8001b9a:	687b      	ldr	r3, [r7, #4]
 8001b9c:	681b      	ldr	r3, [r3, #0]
 8001b9e:	4618      	mov	r0, r3
 8001ba0:	f003 fb47 	bl	8005232 <USB_ReadInterrupts>
 8001ba4:	4603      	mov	r3, r0
 8001ba6:	f003 0310 	and.w	r3, r3, #16
 8001baa:	2b10      	cmp	r3, #16
 8001bac:	d101      	bne.n	8001bb2 <HAL_HCD_IRQHandler+0x1ea>
 8001bae:	2301      	movs	r3, #1
 8001bb0:	e000      	b.n	8001bb4 <HAL_HCD_IRQHandler+0x1ec>
 8001bb2:	2300      	movs	r3, #0
 8001bb4:	2b00      	cmp	r3, #0
 8001bb6:	d014      	beq.n	8001be2 <HAL_HCD_IRQHandler+0x21a>
 8001bb8:	687b      	ldr	r3, [r7, #4]
 8001bba:	681b      	ldr	r3, [r3, #0]
 8001bbc:	699a      	ldr	r2, [r3, #24]
 8001bbe:	687b      	ldr	r3, [r7, #4]
 8001bc0:	681b      	ldr	r3, [r3, #0]
 8001bc2:	f022 0210 	bic.w	r2, r2, #16
 8001bc6:	619a      	str	r2, [r3, #24]
 8001bc8:	6878      	ldr	r0, [r7, #4]
 8001bca:	f001 fbe4 	bl	8003396 <HCD_RXQLVL_IRQHandler>
 8001bce:	687b      	ldr	r3, [r7, #4]
 8001bd0:	681b      	ldr	r3, [r3, #0]
 8001bd2:	699a      	ldr	r2, [r3, #24]
 8001bd4:	687b      	ldr	r3, [r7, #4]
 8001bd6:	681b      	ldr	r3, [r3, #0]
 8001bd8:	f042 0210 	orr.w	r2, r2, #16
 8001bdc:	619a      	str	r2, [r3, #24]
 8001bde:	e000      	b.n	8001be2 <HAL_HCD_IRQHandler+0x21a>
 8001be0:	bf00      	nop
 8001be2:	3718      	adds	r7, #24
 8001be4:	46bd      	mov	sp, r7
 8001be6:	bd80      	pop	{r7, pc}

08001be8 <HAL_HCD_Start>:
 8001be8:	b580      	push	{r7, lr}
 8001bea:	b082      	sub	sp, #8
 8001bec:	af00      	add	r7, sp, #0
 8001bee:	6078      	str	r0, [r7, #4]
 8001bf0:	687b      	ldr	r3, [r7, #4]
 8001bf2:	f893 33d4 	ldrb.w	r3, [r3, #980]	@ 0x3d4
 8001bf6:	2b01      	cmp	r3, #1
 8001bf8:	d101      	bne.n	8001bfe <HAL_HCD_Start+0x16>
 8001bfa:	2302      	movs	r3, #2
 8001bfc:	e013      	b.n	8001c26 <HAL_HCD_Start+0x3e>
 8001bfe:	687b      	ldr	r3, [r7, #4]
 8001c00:	2201      	movs	r2, #1
 8001c02:	f883 23d4 	strb.w	r2, [r3, #980]	@ 0x3d4
 8001c06:	687b      	ldr	r3, [r7, #4]
 8001c08:	681b      	ldr	r3, [r3, #0]
 8001c0a:	2101      	movs	r1, #1
 8001c0c:	4618      	mov	r0, r3
 8001c0e:	f003 fcae 	bl	800556e <USB_DriveVbus>
 8001c12:	687b      	ldr	r3, [r7, #4]
 8001c14:	681b      	ldr	r3, [r3, #0]
 8001c16:	4618      	mov	r0, r3
 8001c18:	f003 f9a7 	bl	8004f6a <USB_EnableGlobalInt>
 8001c1c:	687b      	ldr	r3, [r7, #4]
 8001c1e:	2200      	movs	r2, #0
 8001c20:	f883 23d4 	strb.w	r2, [r3, #980]	@ 0x3d4
 8001c24:	2300      	movs	r3, #0
 8001c26:	4618      	mov	r0, r3
 8001c28:	3708      	adds	r7, #8
 8001c2a:	46bd      	mov	sp, r7
 8001c2c:	bd80      	pop	{r7, pc}

08001c2e <HAL_HCD_Stop>:
 8001c2e:	b580      	push	{r7, lr}
 8001c30:	b082      	sub	sp, #8
 8001c32:	af00      	add	r7, sp, #0
 8001c34:	6078      	str	r0, [r7, #4]
 8001c36:	687b      	ldr	r3, [r7, #4]
 8001c38:	f893 33d4 	ldrb.w	r3, [r3, #980]	@ 0x3d4
 8001c3c:	2b01      	cmp	r3, #1
 8001c3e:	d101      	bne.n	8001c44 <HAL_HCD_Stop+0x16>
 8001c40:	2302      	movs	r3, #2
 8001c42:	e00d      	b.n	8001c60 <HAL_HCD_Stop+0x32>
 8001c44:	687b      	ldr	r3, [r7, #4]
 8001c46:	2201      	movs	r2, #1
 8001c48:	f883 23d4 	strb.w	r2, [r3, #980]	@ 0x3d4
 8001c4c:	687b      	ldr	r3, [r7, #4]
 8001c4e:	681b      	ldr	r3, [r3, #0]
 8001c50:	4618      	mov	r0, r3
 8001c52:	f004 fa01 	bl	8006058 <USB_StopHost>
 8001c56:	687b      	ldr	r3, [r7, #4]
 8001c58:	2200      	movs	r2, #0
 8001c5a:	f883 23d4 	strb.w	r2, [r3, #980]	@ 0x3d4
 8001c5e:	2300      	movs	r3, #0
 8001c60:	4618      	mov	r0, r3
 8001c62:	3708      	adds	r7, #8
 8001c64:	46bd      	mov	sp, r7
 8001c66:	bd80      	pop	{r7, pc}

08001c68 <HAL_HCD_ResetPort>:
 8001c68:	b580      	push	{r7, lr}
 8001c6a:	b082      	sub	sp, #8
 8001c6c:	af00      	add	r7, sp, #0
 8001c6e:	6078      	str	r0, [r7, #4]
 8001c70:	687b      	ldr	r3, [r7, #4]
 8001c72:	681b      	ldr	r3, [r3, #0]
 8001c74:	4618      	mov	r0, r3
 8001c76:	f003 fc50 	bl	800551a <USB_ResetPort>
 8001c7a:	4603      	mov	r3, r0
 8001c7c:	4618      	mov	r0, r3
 8001c7e:	3708      	adds	r7, #8
 8001c80:	46bd      	mov	sp, r7
 8001c82:	bd80      	pop	{r7, pc}

08001c84 <HAL_HCD_HC_GetURBState>:
 8001c84:	b480      	push	{r7}
 8001c86:	b083      	sub	sp, #12
 8001c88:	af00      	add	r7, sp, #0
 8001c8a:	6078      	str	r0, [r7, #4]
 8001c8c:	460b      	mov	r3, r1
 8001c8e:	70fb      	strb	r3, [r7, #3]
 8001c90:	78fa      	ldrb	r2, [r7, #3]
 8001c92:	6879      	ldr	r1, [r7, #4]
 8001c94:	4613      	mov	r3, r2
 8001c96:	011b      	lsls	r3, r3, #4
 8001c98:	1a9b      	subs	r3, r3, r2
 8001c9a:	009b      	lsls	r3, r3, #2
 8001c9c:	440b      	add	r3, r1
 8001c9e:	334c      	adds	r3, #76	@ 0x4c
 8001ca0:	781b      	ldrb	r3, [r3, #0]
 8001ca2:	4618      	mov	r0, r3
 8001ca4:	370c      	adds	r7, #12
 8001ca6:	46bd      	mov	sp, r7
 8001ca8:	f85d 7b04 	ldr.w	r7, [sp], #4
 8001cac:	4770      	bx	lr

08001cae <HAL_HCD_HC_GetXferCount>:
 8001cae:	b480      	push	{r7}
 8001cb0:	b083      	sub	sp, #12
 8001cb2:	af00      	add	r7, sp, #0
 8001cb4:	6078      	str	r0, [r7, #4]
 8001cb6:	460b      	mov	r3, r1
 8001cb8:	70fb      	strb	r3, [r7, #3]
 8001cba:	78fa      	ldrb	r2, [r7, #3]
 8001cbc:	6879      	ldr	r1, [r7, #4]
 8001cbe:	4613      	mov	r3, r2
 8001cc0:	011b      	lsls	r3, r3, #4
 8001cc2:	1a9b      	subs	r3, r3, r2
 8001cc4:	009b      	lsls	r3, r3, #2
 8001cc6:	440b      	add	r3, r1
 8001cc8:	3338      	adds	r3, #56	@ 0x38
 8001cca:	681b      	ldr	r3, [r3, #0]
 8001ccc:	4618      	mov	r0, r3
 8001cce:	370c      	adds	r7, #12
 8001cd0:	46bd      	mov	sp, r7
 8001cd2:	f85d 7b04 	ldr.w	r7, [sp], #4
 8001cd6:	4770      	bx	lr

08001cd8 <HAL_HCD_GetCurrentFrame>:
 8001cd8:	b580      	push	{r7, lr}
 8001cda:	b082      	sub	sp, #8
 8001cdc:	af00      	add	r7, sp, #0
 8001cde:	6078      	str	r0, [r7, #4]
 8001ce0:	687b      	ldr	r3, [r7, #4]
 8001ce2:	681b      	ldr	r3, [r3, #0]
 8001ce4:	4618      	mov	r0, r3
 8001ce6:	f003 fc92 	bl	800560e <USB_GetCurrentFrame>
 8001cea:	4603      	mov	r3, r0
 8001cec:	4618      	mov	r0, r3
 8001cee:	3708      	adds	r7, #8
 8001cf0:	46bd      	mov	sp, r7
 8001cf2:	bd80      	pop	{r7, pc}

08001cf4 <HAL_HCD_GetCurrentSpeed>:
 8001cf4:	b580      	push	{r7, lr}
 8001cf6:	b082      	sub	sp, #8
 8001cf8:	af00      	add	r7, sp, #0
 8001cfa:	6078      	str	r0, [r7, #4]
 8001cfc:	687b      	ldr	r3, [r7, #4]
 8001cfe:	681b      	ldr	r3, [r3, #0]
 8001d00:	4618      	mov	r0, r3
 8001d02:	f003 fc6d 	bl	80055e0 <USB_GetHostSpeed>
 8001d06:	4603      	mov	r3, r0
 8001d08:	4618      	mov	r0, r3
 8001d0a:	3708      	adds	r7, #8
 8001d0c:	46bd      	mov	sp, r7
 8001d0e:	bd80      	pop	{r7, pc}

08001d10 <HAL_HCD_HC_ClearHubInfo>:
 8001d10:	b480      	push	{r7}
 8001d12:	b083      	sub	sp, #12
 8001d14:	af00      	add	r7, sp, #0
 8001d16:	6078      	str	r0, [r7, #4]
 8001d18:	460b      	mov	r3, r1
 8001d1a:	70fb      	strb	r3, [r7, #3]
 8001d1c:	78fa      	ldrb	r2, [r7, #3]
 8001d1e:	6879      	ldr	r1, [r7, #4]
 8001d20:	4613      	mov	r3, r2
 8001d22:	011b      	lsls	r3, r3, #4
 8001d24:	1a9b      	subs	r3, r3, r2
 8001d26:	009b      	lsls	r3, r3, #2
 8001d28:	440b      	add	r3, r1
 8001d2a:	331a      	adds	r3, #26
 8001d2c:	2200      	movs	r2, #0
 8001d2e:	701a      	strb	r2, [r3, #0]
 8001d30:	78fa      	ldrb	r2, [r7, #3]
 8001d32:	6879      	ldr	r1, [r7, #4]
 8001d34:	4613      	mov	r3, r2
 8001d36:	011b      	lsls	r3, r3, #4
 8001d38:	1a9b      	subs	r3, r3, r2
 8001d3a:	009b      	lsls	r3, r3, #2
 8001d3c:	440b      	add	r3, r1
 8001d3e:	331b      	adds	r3, #27
 8001d40:	2200      	movs	r2, #0
 8001d42:	701a      	strb	r2, [r3, #0]
 8001d44:	78fa      	ldrb	r2, [r7, #3]
 8001d46:	6879      	ldr	r1, [r7, #4]
 8001d48:	4613      	mov	r3, r2
 8001d4a:	011b      	lsls	r3, r3, #4
 8001d4c:	1a9b      	subs	r3, r3, r2
 8001d4e:	009b      	lsls	r3, r3, #2
 8001d50:	440b      	add	r3, r1
 8001d52:	3325      	adds	r3, #37	@ 0x25
 8001d54:	2200      	movs	r2, #0
 8001d56:	701a      	strb	r2, [r3, #0]
 8001d58:	78fa      	ldrb	r2, [r7, #3]
 8001d5a:	6879      	ldr	r1, [r7, #4]
 8001d5c:	4613      	mov	r3, r2
 8001d5e:	011b      	lsls	r3, r3, #4
 8001d60:	1a9b      	subs	r3, r3, r2
 8001d62:	009b      	lsls	r3, r3, #2
 8001d64:	440b      	add	r3, r1
 8001d66:	3324      	adds	r3, #36	@ 0x24
 8001d68:	2200      	movs	r2, #0
 8001d6a:	701a      	strb	r2, [r3, #0]
 8001d6c:	2300      	movs	r3, #0
 8001d6e:	4618      	mov	r0, r3
 8001d70:	370c      	adds	r7, #12
 8001d72:	46bd      	mov	sp, r7
 8001d74:	f85d 7b04 	ldr.w	r7, [sp], #4
 8001d78:	4770      	bx	lr

08001d7a <HCD_HC_IN_IRQHandler>:
 8001d7a:	b580      	push	{r7, lr}
 8001d7c:	b086      	sub	sp, #24
 8001d7e:	af00      	add	r7, sp, #0
 8001d80:	6078      	str	r0, [r7, #4]
 8001d82:	460b      	mov	r3, r1
 8001d84:	70fb      	strb	r3, [r7, #3]
 8001d86:	687b      	ldr	r3, [r7, #4]
 8001d88:	681b      	ldr	r3, [r3, #0]
 8001d8a:	617b      	str	r3, [r7, #20]
 8001d8c:	697b      	ldr	r3, [r7, #20]
 8001d8e:	613b      	str	r3, [r7, #16]
 8001d90:	687b      	ldr	r3, [r7, #4]
 8001d92:	681b      	ldr	r3, [r3, #0]
 8001d94:	78fa      	ldrb	r2, [r7, #3]
 8001d96:	4611      	mov	r1, r2
 8001d98:	4618      	mov	r0, r3
 8001d9a:	f003 fa5d 	bl	8005258 <USB_ReadChInterrupts>
 8001d9e:	4603      	mov	r3, r0
 8001da0:	f003 0304 	and.w	r3, r3, #4
 8001da4:	2b04      	cmp	r3, #4
 8001da6:	d11a      	bne.n	8001dde <HCD_HC_IN_IRQHandler+0x64>
 8001da8:	78fb      	ldrb	r3, [r7, #3]
 8001daa:	015a      	lsls	r2, r3, #5
 8001dac:	693b      	ldr	r3, [r7, #16]
 8001dae:	4413      	add	r3, r2
 8001db0:	f503 63a0 	add.w	r3, r3, #1280	@ 0x500
 8001db4:	461a      	mov	r2, r3
 8001db6:	2304      	movs	r3, #4
 8001db8:	6093      	str	r3, [r2, #8]
 8001dba:	78fa      	ldrb	r2, [r7, #3]
 8001dbc:	6879      	ldr	r1, [r7, #4]
 8001dbe:	4613      	mov	r3, r2
 8001dc0:	011b      	lsls	r3, r3, #4
 8001dc2:	1a9b      	subs	r3, r3, r2
 8001dc4:	009b      	lsls	r3, r3, #2
 8001dc6:	440b      	add	r3, r1
 8001dc8:	334d      	adds	r3, #77	@ 0x4d
 8001dca:	2207      	movs	r2, #7
 8001dcc:	701a      	strb	r2, [r3, #0]
 8001dce:	687b      	ldr	r3, [r7, #4]
 8001dd0:	681b      	ldr	r3, [r3, #0]
 8001dd2:	78fa      	ldrb	r2, [r7, #3]
 8001dd4:	4611      	mov	r1, r2
 8001dd6:	4618      	mov	r0, r3
 8001dd8:	f003 ffe1 	bl	8005d9e <USB_HC_Halt>
 8001ddc:	e09e      	b.n	8001f1c <HCD_HC_IN_IRQHandler+0x1a2>
 8001dde:	687b      	ldr	r3, [r7, #4]
 8001de0:	681b      	ldr	r3, [r3, #0]
 8001de2:	78fa      	ldrb	r2, [r7, #3]
 8001de4:	4611      	mov	r1, r2
 8001de6:	4618      	mov	r0, r3
 8001de8:	f003 fa36 	bl	8005258 <USB_ReadChInterrupts>
 8001dec:	4603      	mov	r3, r0
 8001dee:	f403 7380 	and.w	r3, r3, #256	@ 0x100
 8001df2:	f5b3 7f80 	cmp.w	r3, #256	@ 0x100
 8001df6:	d11b      	bne.n	8001e30 <HCD_HC_IN_IRQHandler+0xb6>
 8001df8:	78fb      	ldrb	r3, [r7, #3]
 8001dfa:	015a      	lsls	r2, r3, #5
 8001dfc:	693b      	ldr	r3, [r7, #16]
 8001dfe:	4413      	add	r3, r2
 8001e00:	f503 63a0 	add.w	r3, r3, #1280	@ 0x500
 8001e04:	461a      	mov	r2, r3
 8001e06:	f44f 7380 	mov.w	r3, #256	@ 0x100
 8001e0a:	6093      	str	r3, [r2, #8]
 8001e0c:	78fa      	ldrb	r2, [r7, #3]
 8001e0e:	6879      	ldr	r1, [r7, #4]
 8001e10:	4613      	mov	r3, r2
 8001e12:	011b      	lsls	r3, r3, #4
 8001e14:	1a9b      	subs	r3, r3, r2
 8001e16:	009b      	lsls	r3, r3, #2
 8001e18:	440b      	add	r3, r1
 8001e1a:	334d      	adds	r3, #77	@ 0x4d
 8001e1c:	2208      	movs	r2, #8
 8001e1e:	701a      	strb	r2, [r3, #0]
 8001e20:	687b      	ldr	r3, [r7, #4]
 8001e22:	681b      	ldr	r3, [r3, #0]
 8001e24:	78fa      	ldrb	r2, [r7, #3]
 8001e26:	4611      	mov	r1, r2
 8001e28:	4618      	mov	r0, r3
 8001e2a:	f003 ffb8 	bl	8005d9e <USB_HC_Halt>
 8001e2e:	e075      	b.n	8001f1c <HCD_HC_IN_IRQHandler+0x1a2>
 8001e30:	687b      	ldr	r3, [r7, #4]
 8001e32:	681b      	ldr	r3, [r3, #0]
 8001e34:	78fa      	ldrb	r2, [r7, #3]
 8001e36:	4611      	mov	r1, r2
 8001e38:	4618      	mov	r0, r3
 8001e3a:	f003 fa0d 	bl	8005258 <USB_ReadChInterrupts>
 8001e3e:	4603      	mov	r3, r0
 8001e40:	f003 0308 	and.w	r3, r3, #8
 8001e44:	2b08      	cmp	r3, #8
 8001e46:	d11a      	bne.n	8001e7e <HCD_HC_IN_IRQHandler+0x104>
 8001e48:	78fb      	ldrb	r3, [r7, #3]
 8001e4a:	015a      	lsls	r2, r3, #5
 8001e4c:	693b      	ldr	r3, [r7, #16]
 8001e4e:	4413      	add	r3, r2
 8001e50:	f503 63a0 	add.w	r3, r3, #1280	@ 0x500
 8001e54:	461a      	mov	r2, r3
 8001e56:	2308      	movs	r3, #8
 8001e58:	6093      	str	r3, [r2, #8]
 8001e5a:	78fa      	ldrb	r2, [r7, #3]
 8001e5c:	6879      	ldr	r1, [r7, #4]
 8001e5e:	4613      	mov	r3, r2
 8001e60:	011b      	lsls	r3, r3, #4
 8001e62:	1a9b      	subs	r3, r3, r2
 8001e64:	009b      	lsls	r3, r3, #2
 8001e66:	440b      	add	r3, r1
 8001e68:	334d      	adds	r3, #77	@ 0x4d
 8001e6a:	2206      	movs	r2, #6
 8001e6c:	701a      	strb	r2, [r3, #0]
 8001e6e:	687b      	ldr	r3, [r7, #4]
 8001e70:	681b      	ldr	r3, [r3, #0]
 8001e72:	78fa      	ldrb	r2, [r7, #3]
 8001e74:	4611      	mov	r1, r2
 8001e76:	4618      	mov	r0, r3
 8001e78:	f003 ff91 	bl	8005d9e <USB_HC_Halt>
 8001e7c:	e04e      	b.n	8001f1c <HCD_HC_IN_IRQHandler+0x1a2>
 8001e7e:	687b      	ldr	r3, [r7, #4]
 8001e80:	681b      	ldr	r3, [r3, #0]
 8001e82:	78fa      	ldrb	r2, [r7, #3]
 8001e84:	4611      	mov	r1, r2
 8001e86:	4618      	mov	r0, r3
 8001e88:	f003 f9e6 	bl	8005258 <USB_ReadChInterrupts>
 8001e8c:	4603      	mov	r3, r0
 8001e8e:	f403 6380 	and.w	r3, r3, #1024	@ 0x400
 8001e92:	f5b3 6f80 	cmp.w	r3, #1024	@ 0x400
 8001e96:	d11b      	bne.n	8001ed0 <HCD_HC_IN_IRQHandler+0x156>
 8001e98:	78fb      	ldrb	r3, [r7, #3]
 8001e9a:	015a      	lsls	r2, r3, #5
 8001e9c:	693b      	ldr	r3, [r7, #16]
 8001e9e:	4413      	add	r3, r2
 8001ea0:	f503 63a0 	add.w	r3, r3, #1280	@ 0x500
 8001ea4:	461a      	mov	r2, r3
 8001ea6:	f44f 6380 	mov.w	r3, #1024	@ 0x400
 8001eaa:	6093      	str	r3, [r2, #8]
 8001eac:	78fa      	ldrb	r2, [r7, #3]
 8001eae:	6879      	ldr	r1, [r7, #4]
 8001eb0:	4613      	mov	r3, r2
 8001eb2:	011b      	lsls	r3, r3, #4
 8001eb4:	1a9b      	subs	r3, r3, r2
 8001eb6:	009b      	lsls	r3, r3, #2
 8001eb8:	440b      	add	r3, r1
 8001eba:	334d      	adds	r3, #77	@ 0x4d
 8001ebc:	2209      	movs	r2, #9
 8001ebe:	701a      	strb	r2, [r3, #0]
 8001ec0:	687b      	ldr	r3, [r7, #4]
 8001ec2:	681b      	ldr	r3, [r3, #0]
 8001ec4:	78fa      	ldrb	r2, [r7, #3]
 8001ec6:	4611      	mov	r1, r2
 8001ec8:	4618      	mov	r0, r3
 8001eca:	f003 ff68 	bl	8005d9e <USB_HC_Halt>
 8001ece:	e025      	b.n	8001f1c <HCD_HC_IN_IRQHandler+0x1a2>
 8001ed0:	687b      	ldr	r3, [r7, #4]
 8001ed2:	681b      	ldr	r3, [r3, #0]
 8001ed4:	78fa      	ldrb	r2, [r7, #3]
 8001ed6:	4611      	mov	r1, r2
 8001ed8:	4618      	mov	r0, r3
 8001eda:	f003 f9bd 	bl	8005258 <USB_ReadChInterrupts>
 8001ede:	4603      	mov	r3, r0
 8001ee0:	f003 0380 	and.w	r3, r3, #128	@ 0x80
 8001ee4:	2b80      	cmp	r3, #128	@ 0x80
 8001ee6:	d119      	bne.n	8001f1c <HCD_HC_IN_IRQHandler+0x1a2>
 8001ee8:	78fb      	ldrb	r3, [r7, #3]
 8001eea:	015a      	lsls	r2, r3, #5
 8001eec:	693b      	ldr	r3, [r7, #16]
 8001eee:	4413      	add	r3, r2
 8001ef0:	f503 63a0 	add.w	r3, r3, #1280	@ 0x500
 8001ef4:	461a      	mov	r2, r3
 8001ef6:	2380      	movs	r3, #128	@ 0x80
 8001ef8:	6093      	str	r3, [r2, #8]
 8001efa:	78fa      	ldrb	r2, [r7, #3]
 8001efc:	6879      	ldr	r1, [r7, #4]
 8001efe:	4613      	mov	r3, r2
 8001f00:	011b      	lsls	r3, r3, #4
 8001f02:	1a9b      	subs	r3, r3, r2
 8001f04:	009b      	lsls	r3, r3, #2
 8001f06:	440b      	add	r3, r1
 8001f08:	334d      	adds	r3, #77	@ 0x4d
 8001f0a:	2207      	movs	r2, #7
 8001f0c:	701a      	strb	r2, [r3, #0]
 8001f0e:	687b      	ldr	r3, [r7, #4]
 8001f10:	681b      	ldr	r3, [r3, #0]
 8001f12:	78fa      	ldrb	r2, [r7, #3]
 8001f14:	4611      	mov	r1, r2
 8001f16:	4618      	mov	r0, r3
 8001f18:	f003 ff41 	bl	8005d9e <USB_HC_Halt>
 8001f1c:	687b      	ldr	r3, [r7, #4]
 8001f1e:	681b      	ldr	r3, [r3, #0]
 8001f20:	78fa      	ldrb	r2, [r7, #3]
 8001f22:	4611      	mov	r1, r2
 8001f24:	4618      	mov	r0, r3
 8001f26:	f003 f997 	bl	8005258 <USB_ReadChInterrupts>
 8001f2a:	4603      	mov	r3, r0
 8001f2c:	f403 7300 	and.w	r3, r3, #512	@ 0x200
 8001f30:	f5b3 7f00 	cmp.w	r3, #512	@ 0x200
 8001f34:	d112      	bne.n	8001f5c <HCD_HC_IN_IRQHandler+0x1e2>
 8001f36:	687b      	ldr	r3, [r7, #4]
 8001f38:	681b      	ldr	r3, [r3, #0]
 8001f3a:	78fa      	ldrb	r2, [r7, #3]
 8001f3c:	4611      	mov	r1, r2
 8001f3e:	4618      	mov	r0, r3
 8001f40:	f003 ff2d 	bl	8005d9e <USB_HC_Halt>
 8001f44:	78fb      	ldrb	r3, [r7, #3]
 8001f46:	015a      	lsls	r2, r3, #5
 8001f48:	693b      	ldr	r3, [r7, #16]
 8001f4a:	4413      	add	r3, r2
 8001f4c:	f503 63a0 	add.w	r3, r3, #1280	@ 0x500
 8001f50:	461a      	mov	r2, r3
 8001f52:	f44f 7300 	mov.w	r3, #512	@ 0x200
 8001f56:	6093      	str	r3, [r2, #8]
 8001f58:	f000 bd75 	b.w	8002a46 <HCD_HC_IN_IRQHandler+0xccc>
 8001f5c:	687b      	ldr	r3, [r7, #4]
 8001f5e:	681b      	ldr	r3, [r3, #0]
 8001f60:	78fa      	ldrb	r2, [r7, #3]
 8001f62:	4611      	mov	r1, r2
 8001f64:	4618      	mov	r0, r3
 8001f66:	f003 f977 	bl	8005258 <USB_ReadChInterrupts>
 8001f6a:	4603      	mov	r3, r0
 8001f6c:	f003 0301 	and.w	r3, r3, #1
 8001f70:	2b01      	cmp	r3, #1
 8001f72:	f040 8128 	bne.w	80021c6 <HCD_HC_IN_IRQHandler+0x44c>
 8001f76:	78fb      	ldrb	r3, [r7, #3]
 8001f78:	015a      	lsls	r2, r3, #5
 8001f7a:	693b      	ldr	r3, [r7, #16]
 8001f7c:	4413      	add	r3, r2
 8001f7e:	f503 63a0 	add.w	r3, r3, #1280	@ 0x500
 8001f82:	461a      	mov	r2, r3
 8001f84:	2320      	movs	r3, #32
 8001f86:	6093      	str	r3, [r2, #8]
 8001f88:	78fa      	ldrb	r2, [r7, #3]
 8001f8a:	6879      	ldr	r1, [r7, #4]
 8001f8c:	4613      	mov	r3, r2
 8001f8e:	011b      	lsls	r3, r3, #4
 8001f90:	1a9b      	subs	r3, r3, r2
 8001f92:	009b      	lsls	r3, r3, #2
 8001f94:	440b      	add	r3, r1
 8001f96:	331b      	adds	r3, #27
 8001f98:	781b      	ldrb	r3, [r3, #0]
 8001f9a:	2b01      	cmp	r3, #1
 8001f9c:	d119      	bne.n	8001fd2 <HCD_HC_IN_IRQHandler+0x258>
 8001f9e:	78fa      	ldrb	r2, [r7, #3]
 8001fa0:	6879      	ldr	r1, [r7, #4]
 8001fa2:	4613      	mov	r3, r2
 8001fa4:	011b      	lsls	r3, r3, #4
 8001fa6:	1a9b      	subs	r3, r3, r2
 8001fa8:	009b      	lsls	r3, r3, #2
 8001faa:	440b      	add	r3, r1
 8001fac:	331b      	adds	r3, #27
 8001fae:	2200      	movs	r2, #0
 8001fb0:	701a      	strb	r2, [r3, #0]
 8001fb2:	78fb      	ldrb	r3, [r7, #3]
 8001fb4:	015a      	lsls	r2, r3, #5
 8001fb6:	693b      	ldr	r3, [r7, #16]
 8001fb8:	4413      	add	r3, r2
 8001fba:	f503 63a0 	add.w	r3, r3, #1280	@ 0x500
 8001fbe:	685b      	ldr	r3, [r3, #4]
 8001fc0:	78fa      	ldrb	r2, [r7, #3]
 8001fc2:	0151      	lsls	r1, r2, #5
 8001fc4:	693a      	ldr	r2, [r7, #16]
 8001fc6:	440a      	add	r2, r1
 8001fc8:	f502 62a0 	add.w	r2, r2, #1280	@ 0x500
 8001fcc:	f423 3380 	bic.w	r3, r3, #65536	@ 0x10000
 8001fd0:	6053      	str	r3, [r2, #4]
 8001fd2:	687b      	ldr	r3, [r7, #4]
 8001fd4:	799b      	ldrb	r3, [r3, #6]
 8001fd6:	2b00      	cmp	r3, #0
 8001fd8:	d01b      	beq.n	8002012 <HCD_HC_IN_IRQHandler+0x298>
 8001fda:	78fa      	ldrb	r2, [r7, #3]
 8001fdc:	6879      	ldr	r1, [r7, #4]
 8001fde:	4613      	mov	r3, r2
 8001fe0:	011b      	lsls	r3, r3, #4
 8001fe2:	1a9b      	subs	r3, r3, r2
 8001fe4:	009b      	lsls	r3, r3, #2
 8001fe6:	440b      	add	r3, r1
 8001fe8:	3330      	adds	r3, #48	@ 0x30
 8001fea:	6819      	ldr	r1, [r3, #0]
 8001fec:	78fb      	ldrb	r3, [r7, #3]
 8001fee:	015a      	lsls	r2, r3, #5
 8001ff0:	693b      	ldr	r3, [r7, #16]
 8001ff2:	4413      	add	r3, r2
 8001ff4:	f503 63a0 	add.w	r3, r3, #1280	@ 0x500
 8001ff8:	691b      	ldr	r3, [r3, #16]
 8001ffa:	f3c3 0312 	ubfx	r3, r3, #0, #19
 8001ffe:	78fa      	ldrb	r2, [r7, #3]
 8002000:	1ac9      	subs	r1, r1, r3
 8002002:	6878      	ldr	r0, [r7, #4]
 8002004:	4613      	mov	r3, r2
 8002006:	011b      	lsls	r3, r3, #4
 8002008:	1a9b      	subs	r3, r3, r2
 800200a:	009b      	lsls	r3, r3, #2
 800200c:	4403      	add	r3, r0
 800200e:	3338      	adds	r3, #56	@ 0x38
 8002010:	6019      	str	r1, [r3, #0]
 8002012:	78fa      	ldrb	r2, [r7, #3]
 8002014:	6879      	ldr	r1, [r7, #4]
 8002016:	4613      	mov	r3, r2
 8002018:	011b      	lsls	r3, r3, #4
 800201a:	1a9b      	subs	r3, r3, r2
 800201c:	009b      	lsls	r3, r3, #2
 800201e:	440b      	add	r3, r1
 8002020:	334d      	adds	r3, #77	@ 0x4d
 8002022:	2201      	movs	r2, #1
 8002024:	701a      	strb	r2, [r3, #0]
 8002026:	78fa      	ldrb	r2, [r7, #3]
 8002028:	6879      	ldr	r1, [r7, #4]
 800202a:	4613      	mov	r3, r2
 800202c:	011b      	lsls	r3, r3, #4
 800202e:	1a9b      	subs	r3, r3, r2
 8002030:	009b      	lsls	r3, r3, #2
 8002032:	440b      	add	r3, r1
 8002034:	3344      	adds	r3, #68	@ 0x44
 8002036:	2200      	movs	r2, #0
 8002038:	601a      	str	r2, [r3, #0]
 800203a:	78fb      	ldrb	r3, [r7, #3]
 800203c:	015a      	lsls	r2, r3, #5
 800203e:	693b      	ldr	r3, [r7, #16]
 8002040:	4413      	add	r3, r2
 8002042:	f503 63a0 	add.w	r3, r3, #1280	@ 0x500
 8002046:	461a      	mov	r2, r3
 8002048:	2301      	movs	r3, #1
 800204a:	6093      	str	r3, [r2, #8]
 800204c:	78fa      	ldrb	r2, [r7, #3]
 800204e:	6879      	ldr	r1, [r7, #4]
 8002050:	4613      	mov	r3, r2
 8002052:	011b      	lsls	r3, r3, #4
 8002054:	1a9b      	subs	r3, r3, r2
 8002056:	009b      	lsls	r3, r3, #2
 8002058:	440b      	add	r3, r1
 800205a:	3326      	adds	r3, #38	@ 0x26
 800205c:	781b      	ldrb	r3, [r3, #0]
 800205e:	2b00      	cmp	r3, #0
 8002060:	d00a      	beq.n	8002078 <HCD_HC_IN_IRQHandler+0x2fe>
 8002062:	78fa      	ldrb	r2, [r7, #3]
 8002064:	6879      	ldr	r1, [r7, #4]
 8002066:	4613      	mov	r3, r2
 8002068:	011b      	lsls	r3, r3, #4
 800206a:	1a9b      	subs	r3, r3, r2
 800206c:	009b      	lsls	r3, r3, #2
 800206e:	440b      	add	r3, r1
 8002070:	3326      	adds	r3, #38	@ 0x26
 8002072:	781b      	ldrb	r3, [r3, #0]
 8002074:	2b02      	cmp	r3, #2
 8002076:	d110      	bne.n	800209a <HCD_HC_IN_IRQHandler+0x320>
 8002078:	687b      	ldr	r3, [r7, #4]
 800207a:	681b      	ldr	r3, [r3, #0]
 800207c:	78fa      	ldrb	r2, [r7, #3]
 800207e:	4611      	mov	r1, r2
 8002080:	4618      	mov	r0, r3
 8002082:	f003 fe8c 	bl	8005d9e <USB_HC_Halt>
 8002086:	78fb      	ldrb	r3, [r7, #3]
 8002088:	015a      	lsls	r2, r3, #5
 800208a:	693b      	ldr	r3, [r7, #16]
 800208c:	4413      	add	r3, r2
 800208e:	f503 63a0 	add.w	r3, r3, #1280	@ 0x500
 8002092:	461a      	mov	r2, r3
 8002094:	2310      	movs	r3, #16
 8002096:	6093      	str	r3, [r2, #8]
 8002098:	e03d      	b.n	8002116 <HCD_HC_IN_IRQHandler+0x39c>
 800209a:	78fa      	ldrb	r2, [r7, #3]
 800209c:	6879      	ldr	r1, [r7, #4]
 800209e:	4613      	mov	r3, r2
 80020a0:	011b      	lsls	r3, r3, #4
 80020a2:	1a9b      	subs	r3, r3, r2
 80020a4:	009b      	lsls	r3, r3, #2
 80020a6:	440b      	add	r3, r1
 80020a8:	3326      	adds	r3, #38	@ 0x26
 80020aa:	781b      	ldrb	r3, [r3, #0]
 80020ac:	2b03      	cmp	r3, #3
 80020ae:	d00a      	beq.n	80020c6 <HCD_HC_IN_IRQHandler+0x34c>
 80020b0:	78fa      	ldrb	r2, [r7, #3]
 80020b2:	6879      	ldr	r1, [r7, #4]
 80020b4:	4613      	mov	r3, r2
 80020b6:	011b      	lsls	r3, r3, #4
 80020b8:	1a9b      	subs	r3, r3, r2
 80020ba:	009b      	lsls	r3, r3, #2
 80020bc:	440b      	add	r3, r1
 80020be:	3326      	adds	r3, #38	@ 0x26
 80020c0:	781b      	ldrb	r3, [r3, #0]
 80020c2:	2b01      	cmp	r3, #1
 80020c4:	d127      	bne.n	8002116 <HCD_HC_IN_IRQHandler+0x39c>
 80020c6:	78fb      	ldrb	r3, [r7, #3]
 80020c8:	015a      	lsls	r2, r3, #5
 80020ca:	693b      	ldr	r3, [r7, #16]
 80020cc:	4413      	add	r3, r2
 80020ce:	f503 63a0 	add.w	r3, r3, #1280	@ 0x500
 80020d2:	681b      	ldr	r3, [r3, #0]
 80020d4:	78fa      	ldrb	r2, [r7, #3]
 80020d6:	0151      	lsls	r1, r2, #5
 80020d8:	693a      	ldr	r2, [r7, #16]
 80020da:	440a      	add	r2, r1
 80020dc:	f502 62a0 	add.w	r2, r2, #1280	@ 0x500
 80020e0:	f043 5300 	orr.w	r3, r3, #536870912	@ 0x20000000
 80020e4:	6013      	str	r3, [r2, #0]
 80020e6:	78fa      	ldrb	r2, [r7, #3]
 80020e8:	6879      	ldr	r1, [r7, #4]
 80020ea:	4613      	mov	r3, r2
 80020ec:	011b      	lsls	r3, r3, #4
 80020ee:	1a9b      	subs	r3, r3, r2
 80020f0:	009b      	lsls	r3, r3, #2
 80020f2:	440b      	add	r3, r1
 80020f4:	334c      	adds	r3, #76	@ 0x4c
 80020f6:	2201      	movs	r2, #1
 80020f8:	701a      	strb	r2, [r3, #0]
 80020fa:	78fa      	ldrb	r2, [r7, #3]
 80020fc:	6879      	ldr	r1, [r7, #4]
 80020fe:	4613      	mov	r3, r2
 8002100:	011b      	lsls	r3, r3, #4
 8002102:	1a9b      	subs	r3, r3, r2
 8002104:	009b      	lsls	r3, r3, #2
 8002106:	440b      	add	r3, r1
 8002108:	334c      	adds	r3, #76	@ 0x4c
 800210a:	781a      	ldrb	r2, [r3, #0]
 800210c:	78fb      	ldrb	r3, [r7, #3]
 800210e:	4619      	mov	r1, r3
 8002110:	6878      	ldr	r0, [r7, #4]
 8002112:	f006 f99d 	bl	8008450 <HAL_HCD_HC_NotifyURBChange_Callback>
 8002116:	687b      	ldr	r3, [r7, #4]
 8002118:	799b      	ldrb	r3, [r3, #6]
 800211a:	2b01      	cmp	r3, #1
 800211c:	d13b      	bne.n	8002196 <HCD_HC_IN_IRQHandler+0x41c>
 800211e:	78fa      	ldrb	r2, [r7, #3]
 8002120:	6879      	ldr	r1, [r7, #4]
 8002122:	4613      	mov	r3, r2
 8002124:	011b      	lsls	r3, r3, #4
 8002126:	1a9b      	subs	r3, r3, r2
 8002128:	009b      	lsls	r3, r3, #2
 800212a:	440b      	add	r3, r1
 800212c:	3338      	adds	r3, #56	@ 0x38
 800212e:	6819      	ldr	r1, [r3, #0]
 8002130:	78fa      	ldrb	r2, [r7, #3]
 8002132:	6878      	ldr	r0, [r7, #4]
 8002134:	4613      	mov	r3, r2
 8002136:	011b      	lsls	r3, r3, #4
 8002138:	1a9b      	subs	r3, r3, r2
 800213a:	009b      	lsls	r3, r3, #2
 800213c:	4403      	add	r3, r0
 800213e:	3328      	adds	r3, #40	@ 0x28
 8002140:	881b      	ldrh	r3, [r3, #0]
 8002142:	440b      	add	r3, r1
 8002144:	1e59      	subs	r1, r3, #1
 8002146:	78fa      	ldrb	r2, [r7, #3]
 8002148:	6878      	ldr	r0, [r7, #4]
 800214a:	4613      	mov	r3, r2
 800214c:	011b      	lsls	r3, r3, #4
 800214e:	1a9b      	subs	r3, r3, r2
 8002150:	009b      	lsls	r3, r3, #2
 8002152:	4403      	add	r3, r0
 8002154:	3328      	adds	r3, #40	@ 0x28
 8002156:	881b      	ldrh	r3, [r3, #0]
 8002158:	fbb1 f3f3 	udiv	r3, r1, r3
 800215c:	f003 0301 	and.w	r3, r3, #1
 8002160:	2b00      	cmp	r3, #0
 8002162:	f000 8470 	beq.w	8002a46 <HCD_HC_IN_IRQHandler+0xccc>
 8002166:	78fa      	ldrb	r2, [r7, #3]
 8002168:	6879      	ldr	r1, [r7, #4]
 800216a:	4613      	mov	r3, r2
 800216c:	011b      	lsls	r3, r3, #4
 800216e:	1a9b      	subs	r3, r3, r2
 8002170:	009b      	lsls	r3, r3, #2
 8002172:	440b      	add	r3, r1
 8002174:	333c      	adds	r3, #60	@ 0x3c
 8002176:	781b      	ldrb	r3, [r3, #0]
 8002178:	78fa      	ldrb	r2, [r7, #3]
 800217a:	f083 0301 	eor.w	r3, r3, #1
 800217e:	b2d8      	uxtb	r0, r3
 8002180:	6879      	ldr	r1, [r7, #4]
 8002182:	4613      	mov	r3, r2
 8002184:	011b      	lsls	r3, r3, #4
 8002186:	1a9b      	subs	r3, r3, r2
 8002188:	009b      	lsls	r3, r3, #2
 800218a:	440b      	add	r3, r1
 800218c:	333c      	adds	r3, #60	@ 0x3c
 800218e:	4602      	mov	r2, r0
 8002190:	701a      	strb	r2, [r3, #0]
 8002192:	f000 bc58 	b.w	8002a46 <HCD_HC_IN_IRQHandler+0xccc>
 8002196:	78fa      	ldrb	r2, [r7, #3]
 8002198:	6879      	ldr	r1, [r7, #4]
 800219a:	4613      	mov	r3, r2
 800219c:	011b      	lsls	r3, r3, #4
 800219e:	1a9b      	subs	r3, r3, r2
 80021a0:	009b      	lsls	r3, r3, #2
 80021a2:	440b      	add	r3, r1
 80021a4:	333c      	adds	r3, #60	@ 0x3c
 80021a6:	781b      	ldrb	r3, [r3, #0]
 80021a8:	78fa      	ldrb	r2, [r7, #3]
 80021aa:	f083 0301 	eor.w	r3, r3, #1
 80021ae:	b2d8      	uxtb	r0, r3
 80021b0:	6879      	ldr	r1, [r7, #4]
 80021b2:	4613      	mov	r3, r2
 80021b4:	011b      	lsls	r3, r3, #4
 80021b6:	1a9b      	subs	r3, r3, r2
 80021b8:	009b      	lsls	r3, r3, #2
 80021ba:	440b      	add	r3, r1
 80021bc:	333c      	adds	r3, #60	@ 0x3c
 80021be:	4602      	mov	r2, r0
 80021c0:	701a      	strb	r2, [r3, #0]
 80021c2:	f000 bc40 	b.w	8002a46 <HCD_HC_IN_IRQHandler+0xccc>
 80021c6:	687b      	ldr	r3, [r7, #4]
 80021c8:	681b      	ldr	r3, [r3, #0]
 80021ca:	78fa      	ldrb	r2, [r7, #3]
 80021cc:	4611      	mov	r1, r2
 80021ce:	4618      	mov	r0, r3
 80021d0:	f003 f842 	bl	8005258 <USB_ReadChInterrupts>
 80021d4:	4603      	mov	r3, r0
 80021d6:	f003 0320 	and.w	r3, r3, #32
 80021da:	2b20      	cmp	r3, #32
 80021dc:	d131      	bne.n	8002242 <HCD_HC_IN_IRQHandler+0x4c8>
 80021de:	78fb      	ldrb	r3, [r7, #3]
 80021e0:	015a      	lsls	r2, r3, #5
 80021e2:	693b      	ldr	r3, [r7, #16]
 80021e4:	4413      	add	r3, r2
 80021e6:	f503 63a0 	add.w	r3, r3, #1280	@ 0x500
 80021ea:	461a      	mov	r2, r3
 80021ec:	2320      	movs	r3, #32
 80021ee:	6093      	str	r3, [r2, #8]
 80021f0:	78fa      	ldrb	r2, [r7, #3]
 80021f2:	6879      	ldr	r1, [r7, #4]
 80021f4:	4613      	mov	r3, r2
 80021f6:	011b      	lsls	r3, r3, #4
 80021f8:	1a9b      	subs	r3, r3, r2
 80021fa:	009b      	lsls	r3, r3, #2
 80021fc:	440b      	add	r3, r1
 80021fe:	331a      	adds	r3, #26
 8002200:	781b      	ldrb	r3, [r3, #0]
 8002202:	2b01      	cmp	r3, #1
 8002204:	f040 841f 	bne.w	8002a46 <HCD_HC_IN_IRQHandler+0xccc>
 8002208:	78fa      	ldrb	r2, [r7, #3]
 800220a:	6879      	ldr	r1, [r7, #4]
 800220c:	4613      	mov	r3, r2
 800220e:	011b      	lsls	r3, r3, #4
 8002210:	1a9b      	subs	r3, r3, r2
 8002212:	009b      	lsls	r3, r3, #2
 8002214:	440b      	add	r3, r1
 8002216:	331b      	adds	r3, #27
 8002218:	2201      	movs	r2, #1
 800221a:	701a      	strb	r2, [r3, #0]
 800221c:	78fa      	ldrb	r2, [r7, #3]
 800221e:	6879      	ldr	r1, [r7, #4]
 8002220:	4613      	mov	r3, r2
 8002222:	011b      	lsls	r3, r3, #4
 8002224:	1a9b      	subs	r3, r3, r2
 8002226:	009b      	lsls	r3, r3, #2
 8002228:	440b      	add	r3, r1
 800222a:	334d      	adds	r3, #77	@ 0x4d
 800222c:	2203      	movs	r2, #3
 800222e:	701a      	strb	r2, [r3, #0]
 8002230:	687b      	ldr	r3, [r7, #4]
 8002232:	681b      	ldr	r3, [r3, #0]
 8002234:	78fa      	ldrb	r2, [r7, #3]
 8002236:	4611      	mov	r1, r2
 8002238:	4618      	mov	r0, r3
 800223a:	f003 fdb0 	bl	8005d9e <USB_HC_Halt>
 800223e:	f000 bc02 	b.w	8002a46 <HCD_HC_IN_IRQHandler+0xccc>
 8002242:	687b      	ldr	r3, [r7, #4]
 8002244:	681b      	ldr	r3, [r3, #0]
 8002246:	78fa      	ldrb	r2, [r7, #3]
 8002248:	4611      	mov	r1, r2
 800224a:	4618      	mov	r0, r3
 800224c:	f003 f804 	bl	8005258 <USB_ReadChInterrupts>
 8002250:	4603      	mov	r3, r0
 8002252:	f003 0302 	and.w	r3, r3, #2
 8002256:	2b02      	cmp	r3, #2
 8002258:	f040 8305 	bne.w	8002866 <HCD_HC_IN_IRQHandler+0xaec>
 800225c:	78fb      	ldrb	r3, [r7, #3]
 800225e:	015a      	lsls	r2, r3, #5
 8002260:	693b      	ldr	r3, [r7, #16]
 8002262:	4413      	add	r3, r2
 8002264:	f503 63a0 	add.w	r3, r3, #1280	@ 0x500
 8002268:	461a      	mov	r2, r3
 800226a:	2302      	movs	r3, #2
 800226c:	6093      	str	r3, [r2, #8]
 800226e:	78fa      	ldrb	r2, [r7, #3]
 8002270:	6879      	ldr	r1, [r7, #4]
 8002272:	4613      	mov	r3, r2
 8002274:	011b      	lsls	r3, r3, #4
 8002276:	1a9b      	subs	r3, r3, r2
 8002278:	009b      	lsls	r3, r3, #2
 800227a:	440b      	add	r3, r1
 800227c:	334d      	adds	r3, #77	@ 0x4d
 800227e:	781b      	ldrb	r3, [r3, #0]
 8002280:	2b01      	cmp	r3, #1
 8002282:	d114      	bne.n	80022ae <HCD_HC_IN_IRQHandler+0x534>
 8002284:	78fa      	ldrb	r2, [r7, #3]
 8002286:	6879      	ldr	r1, [r7, #4]
 8002288:	4613      	mov	r3, r2
 800228a:	011b      	lsls	r3, r3, #4
 800228c:	1a9b      	subs	r3, r3, r2
 800228e:	009b      	lsls	r3, r3, #2
 8002290:	440b      	add	r3, r1
 8002292:	334d      	adds	r3, #77	@ 0x4d
 8002294:	2202      	movs	r2, #2
 8002296:	701a      	strb	r2, [r3, #0]
 8002298:	78fa      	ldrb	r2, [r7, #3]
 800229a:	6879      	ldr	r1, [r7, #4]
 800229c:	4613      	mov	r3, r2
 800229e:	011b      	lsls	r3, r3, #4
 80022a0:	1a9b      	subs	r3, r3, r2
 80022a2:	009b      	lsls	r3, r3, #2
 80022a4:	440b      	add	r3, r1
 80022a6:	334c      	adds	r3, #76	@ 0x4c
 80022a8:	2201      	movs	r2, #1
 80022aa:	701a      	strb	r2, [r3, #0]
 80022ac:	e2cc      	b.n	8002848 <HCD_HC_IN_IRQHandler+0xace>
 80022ae:	78fa      	ldrb	r2, [r7, #3]
 80022b0:	6879      	ldr	r1, [r7, #4]
 80022b2:	4613      	mov	r3, r2
 80022b4:	011b      	lsls	r3, r3, #4
 80022b6:	1a9b      	subs	r3, r3, r2
 80022b8:	009b      	lsls	r3, r3, #2
 80022ba:	440b      	add	r3, r1
 80022bc:	334d      	adds	r3, #77	@ 0x4d
 80022be:	781b      	ldrb	r3, [r3, #0]
 80022c0:	2b06      	cmp	r3, #6
 80022c2:	d114      	bne.n	80022ee <HCD_HC_IN_IRQHandler+0x574>
 80022c4:	78fa      	ldrb	r2, [r7, #3]
 80022c6:	6879      	ldr	r1, [r7, #4]
 80022c8:	4613      	mov	r3, r2
 80022ca:	011b      	lsls	r3, r3, #4
 80022cc:	1a9b      	subs	r3, r3, r2
 80022ce:	009b      	lsls	r3, r3, #2
 80022d0:	440b      	add	r3, r1
 80022d2:	334d      	adds	r3, #77	@ 0x4d
 80022d4:	2202      	movs	r2, #2
 80022d6:	701a      	strb	r2, [r3, #0]
 80022d8:	78fa      	ldrb	r2, [r7, #3]
 80022da:	6879      	ldr	r1, [r7, #4]
 80022dc:	4613      	mov	r3, r2
 80022de:	011b      	lsls	r3, r3, #4
 80022e0:	1a9b      	subs	r3, r3, r2
 80022e2:	009b      	lsls	r3, r3, #2
 80022e4:	440b      	add	r3, r1
 80022e6:	334c      	adds	r3, #76	@ 0x4c
 80022e8:	2205      	movs	r2, #5
 80022ea:	701a      	strb	r2, [r3, #0]
 80022ec:	e2ac      	b.n	8002848 <HCD_HC_IN_IRQHandler+0xace>
 80022ee:	78fa      	ldrb	r2, [r7, #3]
 80022f0:	6879      	ldr	r1, [r7, #4]
 80022f2:	4613      	mov	r3, r2
 80022f4:	011b      	lsls	r3, r3, #4
 80022f6:	1a9b      	subs	r3, r3, r2
 80022f8:	009b      	lsls	r3, r3, #2
 80022fa:	440b      	add	r3, r1
 80022fc:	334d      	adds	r3, #77	@ 0x4d
 80022fe:	781b      	ldrb	r3, [r3, #0]
 8002300:	2b07      	cmp	r3, #7
 8002302:	d00b      	beq.n	800231c <HCD_HC_IN_IRQHandler+0x5a2>
 8002304:	78fa      	ldrb	r2, [r7, #3]
 8002306:	6879      	ldr	r1, [r7, #4]
 8002308:	4613      	mov	r3, r2
 800230a:	011b      	lsls	r3, r3, #4
 800230c:	1a9b      	subs	r3, r3, r2
 800230e:	009b      	lsls	r3, r3, #2
 8002310:	440b      	add	r3, r1
 8002312:	334d      	adds	r3, #77	@ 0x4d
 8002314:	781b      	ldrb	r3, [r3, #0]
 8002316:	2b09      	cmp	r3, #9
 8002318:	f040 80a6 	bne.w	8002468 <HCD_HC_IN_IRQHandler+0x6ee>
 800231c:	78fa      	ldrb	r2, [r7, #3]
 800231e:	6879      	ldr	r1, [r7, #4]
 8002320:	4613      	mov	r3, r2
 8002322:	011b      	lsls	r3, r3, #4
 8002324:	1a9b      	subs	r3, r3, r2
 8002326:	009b      	lsls	r3, r3, #2
 8002328:	440b      	add	r3, r1
 800232a:	334d      	adds	r3, #77	@ 0x4d
 800232c:	2202      	movs	r2, #2
 800232e:	701a      	strb	r2, [r3, #0]
 8002330:	78fa      	ldrb	r2, [r7, #3]
 8002332:	6879      	ldr	r1, [r7, #4]
 8002334:	4613      	mov	r3, r2
 8002336:	011b      	lsls	r3, r3, #4
 8002338:	1a9b      	subs	r3, r3, r2
 800233a:	009b      	lsls	r3, r3, #2
 800233c:	440b      	add	r3, r1
 800233e:	3344      	adds	r3, #68	@ 0x44
 8002340:	681b      	ldr	r3, [r3, #0]
 8002342:	1c59      	adds	r1, r3, #1
 8002344:	6878      	ldr	r0, [r7, #4]
 8002346:	4613      	mov	r3, r2
 8002348:	011b      	lsls	r3, r3, #4
 800234a:	1a9b      	subs	r3, r3, r2
 800234c:	009b      	lsls	r3, r3, #2
 800234e:	4403      	add	r3, r0
 8002350:	3344      	adds	r3, #68	@ 0x44
 8002352:	6019      	str	r1, [r3, #0]
 8002354:	78fa      	ldrb	r2, [r7, #3]
 8002356:	6879      	ldr	r1, [r7, #4]
 8002358:	4613      	mov	r3, r2
 800235a:	011b      	lsls	r3, r3, #4
 800235c:	1a9b      	subs	r3, r3, r2
 800235e:	009b      	lsls	r3, r3, #2
 8002360:	440b      	add	r3, r1
 8002362:	3344      	adds	r3, #68	@ 0x44
 8002364:	681b      	ldr	r3, [r3, #0]
 8002366:	2b02      	cmp	r3, #2
 8002368:	d943      	bls.n	80023f2 <HCD_HC_IN_IRQHandler+0x678>
 800236a:	78fa      	ldrb	r2, [r7, #3]
 800236c:	6879      	ldr	r1, [r7, #4]
 800236e:	4613      	mov	r3, r2
 8002370:	011b      	lsls	r3, r3, #4
 8002372:	1a9b      	subs	r3, r3, r2
 8002374:	009b      	lsls	r3, r3, #2
 8002376:	440b      	add	r3, r1
 8002378:	3344      	adds	r3, #68	@ 0x44
 800237a:	2200      	movs	r2, #0
 800237c:	601a      	str	r2, [r3, #0]
 800237e:	78fa      	ldrb	r2, [r7, #3]
 8002380:	6879      	ldr	r1, [r7, #4]
 8002382:	4613      	mov	r3, r2
 8002384:	011b      	lsls	r3, r3, #4
 8002386:	1a9b      	subs	r3, r3, r2
 8002388:	009b      	lsls	r3, r3, #2
 800238a:	440b      	add	r3, r1
 800238c:	331a      	adds	r3, #26
 800238e:	781b      	ldrb	r3, [r3, #0]
 8002390:	2b01      	cmp	r3, #1
 8002392:	d123      	bne.n	80023dc <HCD_HC_IN_IRQHandler+0x662>
 8002394:	78fa      	ldrb	r2, [r7, #3]
 8002396:	6879      	ldr	r1, [r7, #4]
 8002398:	4613      	mov	r3, r2
 800239a:	011b      	lsls	r3, r3, #4
 800239c:	1a9b      	subs	r3, r3, r2
 800239e:	009b      	lsls	r3, r3, #2
 80023a0:	440b      	add	r3, r1
 80023a2:	331b      	adds	r3, #27
 80023a4:	2200      	movs	r2, #0
 80023a6:	701a      	strb	r2, [r3, #0]
 80023a8:	78fa      	ldrb	r2, [r7, #3]
 80023aa:	6879      	ldr	r1, [r7, #4]
 80023ac:	4613      	mov	r3, r2
 80023ae:	011b      	lsls	r3, r3, #4
 80023b0:	1a9b      	subs	r3, r3, r2
 80023b2:	009b      	lsls	r3, r3, #2
 80023b4:	440b      	add	r3, r1
 80023b6:	331c      	adds	r3, #28
 80023b8:	2200      	movs	r2, #0
 80023ba:	701a      	strb	r2, [r3, #0]
 80023bc:	78fb      	ldrb	r3, [r7, #3]
 80023be:	015a      	lsls	r2, r3, #5
 80023c0:	693b      	ldr	r3, [r7, #16]
 80023c2:	4413      	add	r3, r2
 80023c4:	f503 63a0 	add.w	r3, r3, #1280	@ 0x500
 80023c8:	685b      	ldr	r3, [r3, #4]
 80023ca:	78fa      	ldrb	r2, [r7, #3]
 80023cc:	0151      	lsls	r1, r2, #5
 80023ce:	693a      	ldr	r2, [r7, #16]
 80023d0:	440a      	add	r2, r1
 80023d2:	f502 62a0 	add.w	r2, r2, #1280	@ 0x500
 80023d6:	f423 3380 	bic.w	r3, r3, #65536	@ 0x10000
 80023da:	6053      	str	r3, [r2, #4]
 80023dc:	78fa      	ldrb	r2, [r7, #3]
 80023de:	6879      	ldr	r1, [r7, #4]
 80023e0:	4613      	mov	r3, r2
 80023e2:	011b      	lsls	r3, r3, #4
 80023e4:	1a9b      	subs	r3, r3, r2
 80023e6:	009b      	lsls	r3, r3, #2
 80023e8:	440b      	add	r3, r1
 80023ea:	334c      	adds	r3, #76	@ 0x4c
 80023ec:	2204      	movs	r2, #4
 80023ee:	701a      	strb	r2, [r3, #0]
 80023f0:	e229      	b.n	8002846 <HCD_HC_IN_IRQHandler+0xacc>
 80023f2:	78fa      	ldrb	r2, [r7, #3]
 80023f4:	6879      	ldr	r1, [r7, #4]
 80023f6:	4613      	mov	r3, r2
 80023f8:	011b      	lsls	r3, r3, #4
 80023fa:	1a9b      	subs	r3, r3, r2
 80023fc:	009b      	lsls	r3, r3, #2
 80023fe:	440b      	add	r3, r1
 8002400:	334c      	adds	r3, #76	@ 0x4c
 8002402:	2202      	movs	r2, #2
 8002404:	701a      	strb	r2, [r3, #0]
 8002406:	78fa      	ldrb	r2, [r7, #3]
 8002408:	6879      	ldr	r1, [r7, #4]
 800240a:	4613      	mov	r3, r2
 800240c:	011b      	lsls	r3, r3, #4
 800240e:	1a9b      	subs	r3, r3, r2
 8002410:	009b      	lsls	r3, r3, #2
 8002412:	440b      	add	r3, r1
 8002414:	3326      	adds	r3, #38	@ 0x26
 8002416:	781b      	ldrb	r3, [r3, #0]
 8002418:	2b00      	cmp	r3, #0
 800241a:	d00b      	beq.n	8002434 <HCD_HC_IN_IRQHandler+0x6ba>
 800241c:	78fa      	ldrb	r2, [r7, #3]
 800241e:	6879      	ldr	r1, [r7, #4]
 8002420:	4613      	mov	r3, r2
 8002422:	011b      	lsls	r3, r3, #4
 8002424:	1a9b      	subs	r3, r3, r2
 8002426:	009b      	lsls	r3, r3, #2
 8002428:	440b      	add	r3, r1
 800242a:	3326      	adds	r3, #38	@ 0x26
 800242c:	781b      	ldrb	r3, [r3, #0]
 800242e:	2b02      	cmp	r3, #2
 8002430:	f040 8209 	bne.w	8002846 <HCD_HC_IN_IRQHandler+0xacc>
 8002434:	78fb      	ldrb	r3, [r7, #3]
 8002436:	015a      	lsls	r2, r3, #5
 8002438:	693b      	ldr	r3, [r7, #16]
 800243a:	4413      	add	r3, r2
 800243c:	f503 63a0 	add.w	r3, r3, #1280	@ 0x500
 8002440:	681b      	ldr	r3, [r3, #0]
 8002442:	60fb      	str	r3, [r7, #12]
 8002444:	68fb      	ldr	r3, [r7, #12]
 8002446:	f023 4380 	bic.w	r3, r3, #1073741824	@ 0x40000000
 800244a:	60fb      	str	r3, [r7, #12]
 800244c:	68fb      	ldr	r3, [r7, #12]
 800244e:	f043 4300 	orr.w	r3, r3, #2147483648	@ 0x80000000
 8002452:	60fb      	str	r3, [r7, #12]
 8002454:	78fb      	ldrb	r3, [r7, #3]
 8002456:	015a      	lsls	r2, r3, #5
 8002458:	693b      	ldr	r3, [r7, #16]
 800245a:	4413      	add	r3, r2
 800245c:	f503 63a0 	add.w	r3, r3, #1280	@ 0x500
 8002460:	461a      	mov	r2, r3
 8002462:	68fb      	ldr	r3, [r7, #12]
 8002464:	6013      	str	r3, [r2, #0]
 8002466:	e1ee      	b.n	8002846 <HCD_HC_IN_IRQHandler+0xacc>
 8002468:	78fa      	ldrb	r2, [r7, #3]
 800246a:	6879      	ldr	r1, [r7, #4]
 800246c:	4613      	mov	r3, r2
 800246e:	011b      	lsls	r3, r3, #4
 8002470:	1a9b      	subs	r3, r3, r2
 8002472:	009b      	lsls	r3, r3, #2
 8002474:	440b      	add	r3, r1
 8002476:	334d      	adds	r3, #77	@ 0x4d
 8002478:	781b      	ldrb	r3, [r3, #0]
 800247a:	2b05      	cmp	r3, #5
 800247c:	f040 80c8 	bne.w	8002610 <HCD_HC_IN_IRQHandler+0x896>
 8002480:	78fa      	ldrb	r2, [r7, #3]
 8002482:	6879      	ldr	r1, [r7, #4]
 8002484:	4613      	mov	r3, r2
 8002486:	011b      	lsls	r3, r3, #4
 8002488:	1a9b      	subs	r3, r3, r2
 800248a:	009b      	lsls	r3, r3, #2
 800248c:	440b      	add	r3, r1
 800248e:	334d      	adds	r3, #77	@ 0x4d
 8002490:	2202      	movs	r2, #2
 8002492:	701a      	strb	r2, [r3, #0]
 8002494:	78fa      	ldrb	r2, [r7, #3]
 8002496:	6879      	ldr	r1, [r7, #4]
 8002498:	4613      	mov	r3, r2
 800249a:	011b      	lsls	r3, r3, #4
 800249c:	1a9b      	subs	r3, r3, r2
 800249e:	009b      	lsls	r3, r3, #2
 80024a0:	440b      	add	r3, r1
 80024a2:	331b      	adds	r3, #27
 80024a4:	781b      	ldrb	r3, [r3, #0]
 80024a6:	2b01      	cmp	r3, #1
 80024a8:	f040 81ce 	bne.w	8002848 <HCD_HC_IN_IRQHandler+0xace>
 80024ac:	78fa      	ldrb	r2, [r7, #3]
 80024ae:	6879      	ldr	r1, [r7, #4]
 80024b0:	4613      	mov	r3, r2
 80024b2:	011b      	lsls	r3, r3, #4
 80024b4:	1a9b      	subs	r3, r3, r2
 80024b6:	009b      	lsls	r3, r3, #2
 80024b8:	440b      	add	r3, r1
 80024ba:	3326      	adds	r3, #38	@ 0x26
 80024bc:	781b      	ldrb	r3, [r3, #0]
 80024be:	2b03      	cmp	r3, #3
 80024c0:	d16b      	bne.n	800259a <HCD_HC_IN_IRQHandler+0x820>
 80024c2:	78fa      	ldrb	r2, [r7, #3]
 80024c4:	6879      	ldr	r1, [r7, #4]
 80024c6:	4613      	mov	r3, r2
 80024c8:	011b      	lsls	r3, r3, #4
 80024ca:	1a9b      	subs	r3, r3, r2
 80024cc:	009b      	lsls	r3, r3, #2
 80024ce:	440b      	add	r3, r1
 80024d0:	3348      	adds	r3, #72	@ 0x48
 80024d2:	681b      	ldr	r3, [r3, #0]
 80024d4:	1c59      	adds	r1, r3, #1
 80024d6:	6878      	ldr	r0, [r7, #4]
 80024d8:	4613      	mov	r3, r2
 80024da:	011b      	lsls	r3, r3, #4
 80024dc:	1a9b      	subs	r3, r3, r2
 80024de:	009b      	lsls	r3, r3, #2
 80024e0:	4403      	add	r3, r0
 80024e2:	3348      	adds	r3, #72	@ 0x48
 80024e4:	6019      	str	r1, [r3, #0]
 80024e6:	78fa      	ldrb	r2, [r7, #3]
 80024e8:	6879      	ldr	r1, [r7, #4]
 80024ea:	4613      	mov	r3, r2
 80024ec:	011b      	lsls	r3, r3, #4
 80024ee:	1a9b      	subs	r3, r3, r2
 80024f0:	009b      	lsls	r3, r3, #2
 80024f2:	440b      	add	r3, r1
 80024f4:	3348      	adds	r3, #72	@ 0x48
 80024f6:	681b      	ldr	r3, [r3, #0]
 80024f8:	2b02      	cmp	r3, #2
 80024fa:	d943      	bls.n	8002584 <HCD_HC_IN_IRQHandler+0x80a>
 80024fc:	78fa      	ldrb	r2, [r7, #3]
 80024fe:	6879      	ldr	r1, [r7, #4]
 8002500:	4613      	mov	r3, r2
 8002502:	011b      	lsls	r3, r3, #4
 8002504:	1a9b      	subs	r3, r3, r2
 8002506:	009b      	lsls	r3, r3, #2
 8002508:	440b      	add	r3, r1
 800250a:	3348      	adds	r3, #72	@ 0x48
 800250c:	2200      	movs	r2, #0
 800250e:	601a      	str	r2, [r3, #0]
 8002510:	78fa      	ldrb	r2, [r7, #3]
 8002512:	6879      	ldr	r1, [r7, #4]
 8002514:	4613      	mov	r3, r2
 8002516:	011b      	lsls	r3, r3, #4
 8002518:	1a9b      	subs	r3, r3, r2
 800251a:	009b      	lsls	r3, r3, #2
 800251c:	440b      	add	r3, r1
 800251e:	331b      	adds	r3, #27
 8002520:	2200      	movs	r2, #0
 8002522:	701a      	strb	r2, [r3, #0]
 8002524:	78fa      	ldrb	r2, [r7, #3]
 8002526:	6879      	ldr	r1, [r7, #4]
 8002528:	4613      	mov	r3, r2
 800252a:	011b      	lsls	r3, r3, #4
 800252c:	1a9b      	subs	r3, r3, r2
 800252e:	009b      	lsls	r3, r3, #2
 8002530:	440b      	add	r3, r1
 8002532:	3344      	adds	r3, #68	@ 0x44
 8002534:	681b      	ldr	r3, [r3, #0]
 8002536:	2b02      	cmp	r3, #2
 8002538:	d809      	bhi.n	800254e <HCD_HC_IN_IRQHandler+0x7d4>
 800253a:	78fa      	ldrb	r2, [r7, #3]
 800253c:	6879      	ldr	r1, [r7, #4]
 800253e:	4613      	mov	r3, r2
 8002540:	011b      	lsls	r3, r3, #4
 8002542:	1a9b      	subs	r3, r3, r2
 8002544:	009b      	lsls	r3, r3, #2
 8002546:	440b      	add	r3, r1
 8002548:	331c      	adds	r3, #28
 800254a:	2201      	movs	r2, #1
 800254c:	701a      	strb	r2, [r3, #0]
 800254e:	78fb      	ldrb	r3, [r7, #3]
 8002550:	015a      	lsls	r2, r3, #5
 8002552:	693b      	ldr	r3, [r7, #16]
 8002554:	4413      	add	r3, r2
 8002556:	f503 63a0 	add.w	r3, r3, #1280	@ 0x500
 800255a:	685b      	ldr	r3, [r3, #4]
 800255c:	78fa      	ldrb	r2, [r7, #3]
 800255e:	0151      	lsls	r1, r2, #5
 8002560:	693a      	ldr	r2, [r7, #16]
 8002562:	440a      	add	r2, r1
 8002564:	f502 62a0 	add.w	r2, r2, #1280	@ 0x500
 8002568:	f423 3380 	bic.w	r3, r3, #65536	@ 0x10000
 800256c:	6053      	str	r3, [r2, #4]
 800256e:	78fa      	ldrb	r2, [r7, #3]
 8002570:	6879      	ldr	r1, [r7, #4]
 8002572:	4613      	mov	r3, r2
 8002574:	011b      	lsls	r3, r3, #4
 8002576:	1a9b      	subs	r3, r3, r2
 8002578:	009b      	lsls	r3, r3, #2
 800257a:	440b      	add	r3, r1
 800257c:	334c      	adds	r3, #76	@ 0x4c
 800257e:	2204      	movs	r2, #4
 8002580:	701a      	strb	r2, [r3, #0]
 8002582:	e014      	b.n	80025ae <HCD_HC_IN_IRQHandler+0x834>
 8002584:	78fa      	ldrb	r2, [r7, #3]
 8002586:	6879      	ldr	r1, [r7, #4]
 8002588:	4613      	mov	r3, r2
 800258a:	011b      	lsls	r3, r3, #4
 800258c:	1a9b      	subs	r3, r3, r2
 800258e:	009b      	lsls	r3, r3, #2
 8002590:	440b      	add	r3, r1
 8002592:	334c      	adds	r3, #76	@ 0x4c
 8002594:	2202      	movs	r2, #2
 8002596:	701a      	strb	r2, [r3, #0]
 8002598:	e009      	b.n	80025ae <HCD_HC_IN_IRQHandler+0x834>
 800259a:	78fa      	ldrb	r2, [r7, #3]
 800259c:	6879      	ldr	r1, [r7, #4]
 800259e:	4613      	mov	r3, r2
 80025a0:	011b      	lsls	r3, r3, #4
 80025a2:	1a9b      	subs	r3, r3, r2
 80025a4:	009b      	lsls	r3, r3, #2
 80025a6:	440b      	add	r3, r1
 80025a8:	334c      	adds	r3, #76	@ 0x4c
 80025aa:	2202      	movs	r2, #2
 80025ac:	701a      	strb	r2, [r3, #0]
 80025ae:	78fa      	ldrb	r2, [r7, #3]
 80025b0:	6879      	ldr	r1, [r7, #4]
 80025b2:	4613      	mov	r3, r2
 80025b4:	011b      	lsls	r3, r3, #4
 80025b6:	1a9b      	subs	r3, r3, r2
 80025b8:	009b      	lsls	r3, r3, #2
 80025ba:	440b      	add	r3, r1
 80025bc:	3326      	adds	r3, #38	@ 0x26
 80025be:	781b      	ldrb	r3, [r3, #0]
 80025c0:	2b00      	cmp	r3, #0
 80025c2:	d00b      	beq.n	80025dc <HCD_HC_IN_IRQHandler+0x862>
 80025c4:	78fa      	ldrb	r2, [r7, #3]
 80025c6:	6879      	ldr	r1, [r7, #4]
 80025c8:	4613      	mov	r3, r2
 80025ca:	011b      	lsls	r3, r3, #4
 80025cc:	1a9b      	subs	r3, r3, r2
 80025ce:	009b      	lsls	r3, r3, #2
 80025d0:	440b      	add	r3, r1
 80025d2:	3326      	adds	r3, #38	@ 0x26
 80025d4:	781b      	ldrb	r3, [r3, #0]
 80025d6:	2b02      	cmp	r3, #2
 80025d8:	f040 8136 	bne.w	8002848 <HCD_HC_IN_IRQHandler+0xace>
 80025dc:	78fb      	ldrb	r3, [r7, #3]
 80025de:	015a      	lsls	r2, r3, #5
 80025e0:	693b      	ldr	r3, [r7, #16]
 80025e2:	4413      	add	r3, r2
 80025e4:	f503 63a0 	add.w	r3, r3, #1280	@ 0x500
 80025e8:	681b      	ldr	r3, [r3, #0]
 80025ea:	60fb      	str	r3, [r7, #12]
 80025ec:	68fb      	ldr	r3, [r7, #12]
 80025ee:	f023 4380 	bic.w	r3, r3, #1073741824	@ 0x40000000
 80025f2:	60fb      	str	r3, [r7, #12]
 80025f4:	68fb      	ldr	r3, [r7, #12]
 80025f6:	f043 4300 	orr.w	r3, r3, #2147483648	@ 0x80000000
 80025fa:	60fb      	str	r3, [r7, #12]
 80025fc:	78fb      	ldrb	r3, [r7, #3]
 80025fe:	015a      	lsls	r2, r3, #5
 8002600:	693b      	ldr	r3, [r7, #16]
 8002602:	4413      	add	r3, r2
 8002604:	f503 63a0 	add.w	r3, r3, #1280	@ 0x500
 8002608:	461a      	mov	r2, r3
 800260a:	68fb      	ldr	r3, [r7, #12]
 800260c:	6013      	str	r3, [r2, #0]
 800260e:	e11b      	b.n	8002848 <HCD_HC_IN_IRQHandler+0xace>
 8002610:	78fa      	ldrb	r2, [r7, #3]
 8002612:	6879      	ldr	r1, [r7, #4]
 8002614:	4613      	mov	r3, r2
 8002616:	011b      	lsls	r3, r3, #4
 8002618:	1a9b      	subs	r3, r3, r2
 800261a:	009b      	lsls	r3, r3, #2
 800261c:	440b      	add	r3, r1
 800261e:	334d      	adds	r3, #77	@ 0x4d
 8002620:	781b      	ldrb	r3, [r3, #0]
 8002622:	2b03      	cmp	r3, #3
 8002624:	f040 8081 	bne.w	800272a <HCD_HC_IN_IRQHandler+0x9b0>
 8002628:	78fa      	ldrb	r2, [r7, #3]
 800262a:	6879      	ldr	r1, [r7, #4]
 800262c:	4613      	mov	r3, r2
 800262e:	011b      	lsls	r3, r3, #4
 8002630:	1a9b      	subs	r3, r3, r2
 8002632:	009b      	lsls	r3, r3, #2
 8002634:	440b      	add	r3, r1
 8002636:	334d      	adds	r3, #77	@ 0x4d
 8002638:	2202      	movs	r2, #2
 800263a:	701a      	strb	r2, [r3, #0]
 800263c:	78fa      	ldrb	r2, [r7, #3]
 800263e:	6879      	ldr	r1, [r7, #4]
 8002640:	4613      	mov	r3, r2
 8002642:	011b      	lsls	r3, r3, #4
 8002644:	1a9b      	subs	r3, r3, r2
 8002646:	009b      	lsls	r3, r3, #2
 8002648:	440b      	add	r3, r1
 800264a:	331b      	adds	r3, #27
 800264c:	781b      	ldrb	r3, [r3, #0]
 800264e:	2b01      	cmp	r3, #1
 8002650:	f040 80fa 	bne.w	8002848 <HCD_HC_IN_IRQHandler+0xace>
 8002654:	78fa      	ldrb	r2, [r7, #3]
 8002656:	6879      	ldr	r1, [r7, #4]
 8002658:	4613      	mov	r3, r2
 800265a:	011b      	lsls	r3, r3, #4
 800265c:	1a9b      	subs	r3, r3, r2
 800265e:	009b      	lsls	r3, r3, #2
 8002660:	440b      	add	r3, r1
 8002662:	334c      	adds	r3, #76	@ 0x4c
 8002664:	2202      	movs	r2, #2
 8002666:	701a      	strb	r2, [r3, #0]
 8002668:	78fb      	ldrb	r3, [r7, #3]
 800266a:	015a      	lsls	r2, r3, #5
 800266c:	693b      	ldr	r3, [r7, #16]
 800266e:	4413      	add	r3, r2
 8002670:	f503 63a0 	add.w	r3, r3, #1280	@ 0x500
 8002674:	685b      	ldr	r3, [r3, #4]
 8002676:	78fa      	ldrb	r2, [r7, #3]
 8002678:	0151      	lsls	r1, r2, #5
 800267a:	693a      	ldr	r2, [r7, #16]
 800267c:	440a      	add	r2, r1
 800267e:	f502 62a0 	add.w	r2, r2, #1280	@ 0x500
 8002682:	f443 3380 	orr.w	r3, r3, #65536	@ 0x10000
 8002686:	6053      	str	r3, [r2, #4]
 8002688:	78fb      	ldrb	r3, [r7, #3]
 800268a:	015a      	lsls	r2, r3, #5
 800268c:	693b      	ldr	r3, [r7, #16]
 800268e:	4413      	add	r3, r2
 8002690:	f503 63a0 	add.w	r3, r3, #1280	@ 0x500
 8002694:	68db      	ldr	r3, [r3, #12]
 8002696:	78fa      	ldrb	r2, [r7, #3]
 8002698:	0151      	lsls	r1, r2, #5
 800269a:	693a      	ldr	r2, [r7, #16]
 800269c:	440a      	add	r2, r1
 800269e:	f502 62a0 	add.w	r2, r2, #1280	@ 0x500
 80026a2:	f043 0340 	orr.w	r3, r3, #64	@ 0x40
 80026a6:	60d3      	str	r3, [r2, #12]
 80026a8:	78fb      	ldrb	r3, [r7, #3]
 80026aa:	015a      	lsls	r2, r3, #5
 80026ac:	693b      	ldr	r3, [r7, #16]
 80026ae:	4413      	add	r3, r2
 80026b0:	f503 63a0 	add.w	r3, r3, #1280	@ 0x500
 80026b4:	68db      	ldr	r3, [r3, #12]
 80026b6:	78fa      	ldrb	r2, [r7, #3]
 80026b8:	0151      	lsls	r1, r2, #5
 80026ba:	693a      	ldr	r2, [r7, #16]
 80026bc:	440a      	add	r2, r1
 80026be:	f502 62a0 	add.w	r2, r2, #1280	@ 0x500
 80026c2:	f023 0320 	bic.w	r3, r3, #32
 80026c6:	60d3      	str	r3, [r2, #12]
 80026c8:	78fa      	ldrb	r2, [r7, #3]
 80026ca:	6879      	ldr	r1, [r7, #4]
 80026cc:	4613      	mov	r3, r2
 80026ce:	011b      	lsls	r3, r3, #4
 80026d0:	1a9b      	subs	r3, r3, r2
 80026d2:	009b      	lsls	r3, r3, #2
 80026d4:	440b      	add	r3, r1
 80026d6:	3326      	adds	r3, #38	@ 0x26
 80026d8:	781b      	ldrb	r3, [r3, #0]
 80026da:	2b00      	cmp	r3, #0
 80026dc:	d00b      	beq.n	80026f6 <HCD_HC_IN_IRQHandler+0x97c>
 80026de:	78fa      	ldrb	r2, [r7, #3]
 80026e0:	6879      	ldr	r1, [r7, #4]
 80026e2:	4613      	mov	r3, r2
 80026e4:	011b      	lsls	r3, r3, #4
 80026e6:	1a9b      	subs	r3, r3, r2
 80026e8:	009b      	lsls	r3, r3, #2
 80026ea:	440b      	add	r3, r1
 80026ec:	3326      	adds	r3, #38	@ 0x26
 80026ee:	781b      	ldrb	r3, [r3, #0]
 80026f0:	2b02      	cmp	r3, #2
 80026f2:	f040 80a9 	bne.w	8002848 <HCD_HC_IN_IRQHandler+0xace>
 80026f6:	78fb      	ldrb	r3, [r7, #3]
 80026f8:	015a      	lsls	r2, r3, #5
 80026fa:	693b      	ldr	r3, [r7, #16]
 80026fc:	4413      	add	r3, r2
 80026fe:	f503 63a0 	add.w	r3, r3, #1280	@ 0x500
 8002702:	681b      	ldr	r3, [r3, #0]
 8002704:	60fb      	str	r3, [r7, #12]
 8002706:	68fb      	ldr	r3, [r7, #12]
 8002708:	f023 4380 	bic.w	r3, r3, #1073741824	@ 0x40000000
 800270c:	60fb      	str	r3, [r7, #12]
 800270e:	68fb      	ldr	r3, [r7, #12]
 8002710:	f043 4300 	orr.w	r3, r3, #2147483648	@ 0x80000000
 8002714:	60fb      	str	r3, [r7, #12]
 8002716:	78fb      	ldrb	r3, [r7, #3]
 8002718:	015a      	lsls	r2, r3, #5
 800271a:	693b      	ldr	r3, [r7, #16]
 800271c:	4413      	add	r3, r2
 800271e:	f503 63a0 	add.w	r3, r3, #1280	@ 0x500
 8002722:	461a      	mov	r2, r3
 8002724:	68fb      	ldr	r3, [r7, #12]
 8002726:	6013      	str	r3, [r2, #0]
 8002728:	e08e      	b.n	8002848 <HCD_HC_IN_IRQHandler+0xace>
 800272a:	78fa      	ldrb	r2, [r7, #3]
 800272c:	6879      	ldr	r1, [r7, #4]
 800272e:	4613      	mov	r3, r2
 8002730:	011b      	lsls	r3, r3, #4
 8002732:	1a9b      	subs	r3, r3, r2
 8002734:	009b      	lsls	r3, r3, #2
 8002736:	440b      	add	r3, r1
 8002738:	334d      	adds	r3, #77	@ 0x4d
 800273a:	781b      	ldrb	r3, [r3, #0]
 800273c:	2b04      	cmp	r3, #4
 800273e:	d143      	bne.n	80027c8 <HCD_HC_IN_IRQHandler+0xa4e>
 8002740:	78fa      	ldrb	r2, [r7, #3]
 8002742:	6879      	ldr	r1, [r7, #4]
 8002744:	4613      	mov	r3, r2
 8002746:	011b      	lsls	r3, r3, #4
 8002748:	1a9b      	subs	r3, r3, r2
 800274a:	009b      	lsls	r3, r3, #2
 800274c:	440b      	add	r3, r1
 800274e:	334d      	adds	r3, #77	@ 0x4d
 8002750:	2202      	movs	r2, #2
 8002752:	701a      	strb	r2, [r3, #0]
 8002754:	78fa      	ldrb	r2, [r7, #3]
 8002756:	6879      	ldr	r1, [r7, #4]
 8002758:	4613      	mov	r3, r2
 800275a:	011b      	lsls	r3, r3, #4
 800275c:	1a9b      	subs	r3, r3, r2
 800275e:	009b      	lsls	r3, r3, #2
 8002760:	440b      	add	r3, r1
 8002762:	334c      	adds	r3, #76	@ 0x4c
 8002764:	2202      	movs	r2, #2
 8002766:	701a      	strb	r2, [r3, #0]
 8002768:	78fa      	ldrb	r2, [r7, #3]
 800276a:	6879      	ldr	r1, [r7, #4]
 800276c:	4613      	mov	r3, r2
 800276e:	011b      	lsls	r3, r3, #4
 8002770:	1a9b      	subs	r3, r3, r2
 8002772:	009b      	lsls	r3, r3, #2
 8002774:	440b      	add	r3, r1
 8002776:	3326      	adds	r3, #38	@ 0x26
 8002778:	781b      	ldrb	r3, [r3, #0]
 800277a:	2b00      	cmp	r3, #0
 800277c:	d00a      	beq.n	8002794 <HCD_HC_IN_IRQHandler+0xa1a>
 800277e:	78fa      	ldrb	r2, [r7, #3]
 8002780:	6879      	ldr	r1, [r7, #4]
 8002782:	4613      	mov	r3, r2
 8002784:	011b      	lsls	r3, r3, #4
 8002786:	1a9b      	subs	r3, r3, r2
 8002788:	009b      	lsls	r3, r3, #2
 800278a:	440b      	add	r3, r1
 800278c:	3326      	adds	r3, #38	@ 0x26
 800278e:	781b      	ldrb	r3, [r3, #0]
 8002790:	2b02      	cmp	r3, #2
 8002792:	d159      	bne.n	8002848 <HCD_HC_IN_IRQHandler+0xace>
 8002794:	78fb      	ldrb	r3, [r7, #3]
 8002796:	015a      	lsls	r2, r3, #5
 8002798:	693b      	ldr	r3, [r7, #16]
 800279a:	4413      	add	r3, r2
 800279c:	f503 63a0 	add.w	r3, r3, #1280	@ 0x500
 80027a0:	681b      	ldr	r3, [r3, #0]
 80027a2:	60fb      	str	r3, [r7, #12]
 80027a4:	68fb      	ldr	r3, [r7, #12]
 80027a6:	f023 4380 	bic.w	r3, r3, #1073741824	@ 0x40000000
 80027aa:	60fb      	str	r3, [r7, #12]
 80027ac:	68fb      	ldr	r3, [r7, #12]
 80027ae:	f043 4300 	orr.w	r3, r3, #2147483648	@ 0x80000000
 80027b2:	60fb      	str	r3, [r7, #12]
 80027b4:	78fb      	ldrb	r3, [r7, #3]
 80027b6:	015a      	lsls	r2, r3, #5
 80027b8:	693b      	ldr	r3, [r7, #16]
 80027ba:	4413      	add	r3, r2
 80027bc:	f503 63a0 	add.w	r3, r3, #1280	@ 0x500
 80027c0:	461a      	mov	r2, r3
 80027c2:	68fb      	ldr	r3, [r7, #12]
 80027c4:	6013      	str	r3, [r2, #0]
 80027c6:	e03f      	b.n	8002848 <HCD_HC_IN_IRQHandler+0xace>
 80027c8:	78fa      	ldrb	r2, [r7, #3]
 80027ca:	6879      	ldr	r1, [r7, #4]
 80027cc:	4613      	mov	r3, r2
 80027ce:	011b      	lsls	r3, r3, #4
 80027d0:	1a9b      	subs	r3, r3, r2
 80027d2:	009b      	lsls	r3, r3, #2
 80027d4:	440b      	add	r3, r1
 80027d6:	334d      	adds	r3, #77	@ 0x4d
 80027d8:	781b      	ldrb	r3, [r3, #0]
 80027da:	2b08      	cmp	r3, #8
 80027dc:	d126      	bne.n	800282c <HCD_HC_IN_IRQHandler+0xab2>
 80027de:	78fa      	ldrb	r2, [r7, #3]
 80027e0:	6879      	ldr	r1, [r7, #4]
 80027e2:	4613      	mov	r3, r2
 80027e4:	011b      	lsls	r3, r3, #4
 80027e6:	1a9b      	subs	r3, r3, r2
 80027e8:	009b      	lsls	r3, r3, #2
 80027ea:	440b      	add	r3, r1
 80027ec:	334d      	adds	r3, #77	@ 0x4d
 80027ee:	2202      	movs	r2, #2
 80027f0:	701a      	strb	r2, [r3, #0]
 80027f2:	78fa      	ldrb	r2, [r7, #3]
 80027f4:	6879      	ldr	r1, [r7, #4]
 80027f6:	4613      	mov	r3, r2
 80027f8:	011b      	lsls	r3, r3, #4
 80027fa:	1a9b      	subs	r3, r3, r2
 80027fc:	009b      	lsls	r3, r3, #2
 80027fe:	440b      	add	r3, r1
 8002800:	3344      	adds	r3, #68	@ 0x44
 8002802:	681b      	ldr	r3, [r3, #0]
 8002804:	1c59      	adds	r1, r3, #1
 8002806:	6878      	ldr	r0, [r7, #4]
 8002808:	4613      	mov	r3, r2
 800280a:	011b      	lsls	r3, r3, #4
 800280c:	1a9b      	subs	r3, r3, r2
 800280e:	009b      	lsls	r3, r3, #2
 8002810:	4403      	add	r3, r0
 8002812:	3344      	adds	r3, #68	@ 0x44
 8002814:	6019      	str	r1, [r3, #0]
 8002816:	78fa      	ldrb	r2, [r7, #3]
 8002818:	6879      	ldr	r1, [r7, #4]
 800281a:	4613      	mov	r3, r2
 800281c:	011b      	lsls	r3, r3, #4
 800281e:	1a9b      	subs	r3, r3, r2
 8002820:	009b      	lsls	r3, r3, #2
 8002822:	440b      	add	r3, r1
 8002824:	334c      	adds	r3, #76	@ 0x4c
 8002826:	2204      	movs	r2, #4
 8002828:	701a      	strb	r2, [r3, #0]
 800282a:	e00d      	b.n	8002848 <HCD_HC_IN_IRQHandler+0xace>
 800282c:	78fa      	ldrb	r2, [r7, #3]
 800282e:	6879      	ldr	r1, [r7, #4]
 8002830:	4613      	mov	r3, r2
 8002832:	011b      	lsls	r3, r3, #4
 8002834:	1a9b      	subs	r3, r3, r2
 8002836:	009b      	lsls	r3, r3, #2
 8002838:	440b      	add	r3, r1
 800283a:	334d      	adds	r3, #77	@ 0x4d
 800283c:	781b      	ldrb	r3, [r3, #0]
 800283e:	2b02      	cmp	r3, #2
 8002840:	f000 8100 	beq.w	8002a44 <HCD_HC_IN_IRQHandler+0xcca>
 8002844:	e000      	b.n	8002848 <HCD_HC_IN_IRQHandler+0xace>
 8002846:	bf00      	nop
 8002848:	78fa      	ldrb	r2, [r7, #3]
 800284a:	6879      	ldr	r1, [r7, #4]
 800284c:	4613      	mov	r3, r2
 800284e:	011b      	lsls	r3, r3, #4
 8002850:	1a9b      	subs	r3, r3, r2
 8002852:	009b      	lsls	r3, r3, #2
 8002854:	440b      	add	r3, r1
 8002856:	334c      	adds	r3, #76	@ 0x4c
 8002858:	781a      	ldrb	r2, [r3, #0]
 800285a:	78fb      	ldrb	r3, [r7, #3]
 800285c:	4619      	mov	r1, r3
 800285e:	6878      	ldr	r0, [r7, #4]
 8002860:	f005 fdf6 	bl	8008450 <HAL_HCD_HC_NotifyURBChange_Callback>
 8002864:	e0ef      	b.n	8002a46 <HCD_HC_IN_IRQHandler+0xccc>
 8002866:	687b      	ldr	r3, [r7, #4]
 8002868:	681b      	ldr	r3, [r3, #0]
 800286a:	78fa      	ldrb	r2, [r7, #3]
 800286c:	4611      	mov	r1, r2
 800286e:	4618      	mov	r0, r3
 8002870:	f002 fcf2 	bl	8005258 <USB_ReadChInterrupts>
 8002874:	4603      	mov	r3, r0
 8002876:	f003 0340 	and.w	r3, r3, #64	@ 0x40
 800287a:	2b40      	cmp	r3, #64	@ 0x40
 800287c:	d12f      	bne.n	80028de <HCD_HC_IN_IRQHandler+0xb64>
 800287e:	78fb      	ldrb	r3, [r7, #3]
 8002880:	015a      	lsls	r2, r3, #5
 8002882:	693b      	ldr	r3, [r7, #16]
 8002884:	4413      	add	r3, r2
 8002886:	f503 63a0 	add.w	r3, r3, #1280	@ 0x500
 800288a:	461a      	mov	r2, r3
 800288c:	2340      	movs	r3, #64	@ 0x40
 800288e:	6093      	str	r3, [r2, #8]
 8002890:	78fa      	ldrb	r2, [r7, #3]
 8002892:	6879      	ldr	r1, [r7, #4]
 8002894:	4613      	mov	r3, r2
 8002896:	011b      	lsls	r3, r3, #4
 8002898:	1a9b      	subs	r3, r3, r2
 800289a:	009b      	lsls	r3, r3, #2
 800289c:	440b      	add	r3, r1
 800289e:	334d      	adds	r3, #77	@ 0x4d
 80028a0:	2205      	movs	r2, #5
 80028a2:	701a      	strb	r2, [r3, #0]
 80028a4:	78fa      	ldrb	r2, [r7, #3]
 80028a6:	6879      	ldr	r1, [r7, #4]
 80028a8:	4613      	mov	r3, r2
 80028aa:	011b      	lsls	r3, r3, #4
 80028ac:	1a9b      	subs	r3, r3, r2
 80028ae:	009b      	lsls	r3, r3, #2
 80028b0:	440b      	add	r3, r1
 80028b2:	331a      	adds	r3, #26
 80028b4:	781b      	ldrb	r3, [r3, #0]
 80028b6:	2b00      	cmp	r3, #0
 80028b8:	d109      	bne.n	80028ce <HCD_HC_IN_IRQHandler+0xb54>
 80028ba:	78fa      	ldrb	r2, [r7, #3]
 80028bc:	6879      	ldr	r1, [r7, #4]
 80028be:	4613      	mov	r3, r2
 80028c0:	011b      	lsls	r3, r3, #4
 80028c2:	1a9b      	subs	r3, r3, r2
 80028c4:	009b      	lsls	r3, r3, #2
 80028c6:	440b      	add	r3, r1
 80028c8:	3344      	adds	r3, #68	@ 0x44
 80028ca:	2200      	movs	r2, #0
 80028cc:	601a      	str	r2, [r3, #0]
 80028ce:	687b      	ldr	r3, [r7, #4]
 80028d0:	681b      	ldr	r3, [r3, #0]
 80028d2:	78fa      	ldrb	r2, [r7, #3]
 80028d4:	4611      	mov	r1, r2
 80028d6:	4618      	mov	r0, r3
 80028d8:	f003 fa61 	bl	8005d9e <USB_HC_Halt>
 80028dc:	e0b3      	b.n	8002a46 <HCD_HC_IN_IRQHandler+0xccc>
 80028de:	687b      	ldr	r3, [r7, #4]
 80028e0:	681b      	ldr	r3, [r3, #0]
 80028e2:	78fa      	ldrb	r2, [r7, #3]
 80028e4:	4611      	mov	r1, r2
 80028e6:	4618      	mov	r0, r3
 80028e8:	f002 fcb6 	bl	8005258 <USB_ReadChInterrupts>
 80028ec:	4603      	mov	r3, r0
 80028ee:	f003 0310 	and.w	r3, r3, #16
 80028f2:	2b10      	cmp	r3, #16
 80028f4:	f040 80a7 	bne.w	8002a46 <HCD_HC_IN_IRQHandler+0xccc>
 80028f8:	78fa      	ldrb	r2, [r7, #3]
 80028fa:	6879      	ldr	r1, [r7, #4]
 80028fc:	4613      	mov	r3, r2
 80028fe:	011b      	lsls	r3, r3, #4
 8002900:	1a9b      	subs	r3, r3, r2
 8002902:	009b      	lsls	r3, r3, #2
 8002904:	440b      	add	r3, r1
 8002906:	3326      	adds	r3, #38	@ 0x26
 8002908:	781b      	ldrb	r3, [r3, #0]
 800290a:	2b03      	cmp	r3, #3
 800290c:	d11b      	bne.n	8002946 <HCD_HC_IN_IRQHandler+0xbcc>
 800290e:	78fa      	ldrb	r2, [r7, #3]
 8002910:	6879      	ldr	r1, [r7, #4]
 8002912:	4613      	mov	r3, r2
 8002914:	011b      	lsls	r3, r3, #4
 8002916:	1a9b      	subs	r3, r3, r2
 8002918:	009b      	lsls	r3, r3, #2
 800291a:	440b      	add	r3, r1
 800291c:	3344      	adds	r3, #68	@ 0x44
 800291e:	2200      	movs	r2, #0
 8002920:	601a      	str	r2, [r3, #0]
 8002922:	78fa      	ldrb	r2, [r7, #3]
 8002924:	6879      	ldr	r1, [r7, #4]
 8002926:	4613      	mov	r3, r2
 8002928:	011b      	lsls	r3, r3, #4
 800292a:	1a9b      	subs	r3, r3, r2
 800292c:	009b      	lsls	r3, r3, #2
 800292e:	440b      	add	r3, r1
 8002930:	334d      	adds	r3, #77	@ 0x4d
 8002932:	2204      	movs	r2, #4
 8002934:	701a      	strb	r2, [r3, #0]
 8002936:	687b      	ldr	r3, [r7, #4]
 8002938:	681b      	ldr	r3, [r3, #0]
 800293a:	78fa      	ldrb	r2, [r7, #3]
 800293c:	4611      	mov	r1, r2
 800293e:	4618      	mov	r0, r3
 8002940:	f003 fa2d 	bl	8005d9e <USB_HC_Halt>
 8002944:	e03f      	b.n	80029c6 <HCD_HC_IN_IRQHandler+0xc4c>
 8002946:	78fa      	ldrb	r2, [r7, #3]
 8002948:	6879      	ldr	r1, [r7, #4]
 800294a:	4613      	mov	r3, r2
 800294c:	011b      	lsls	r3, r3, #4
 800294e:	1a9b      	subs	r3, r3, r2
 8002950:	009b      	lsls	r3, r3, #2
 8002952:	440b      	add	r3, r1
 8002954:	3326      	adds	r3, #38	@ 0x26
 8002956:	781b      	ldrb	r3, [r3, #0]
 8002958:	2b00      	cmp	r3, #0
 800295a:	d00a      	beq.n	8002972 <HCD_HC_IN_IRQHandler+0xbf8>
 800295c:	78fa      	ldrb	r2, [r7, #3]
 800295e:	6879      	ldr	r1, [r7, #4]
 8002960:	4613      	mov	r3, r2
 8002962:	011b      	lsls	r3, r3, #4
 8002964:	1a9b      	subs	r3, r3, r2
 8002966:	009b      	lsls	r3, r3, #2
 8002968:	440b      	add	r3, r1
 800296a:	3326      	adds	r3, #38	@ 0x26
 800296c:	781b      	ldrb	r3, [r3, #0]
 800296e:	2b02      	cmp	r3, #2
 8002970:	d129      	bne.n	80029c6 <HCD_HC_IN_IRQHandler+0xc4c>
 8002972:	78fa      	ldrb	r2, [r7, #3]
 8002974:	6879      	ldr	r1, [r7, #4]
 8002976:	4613      	mov	r3, r2
 8002978:	011b      	lsls	r3, r3, #4
 800297a:	1a9b      	subs	r3, r3, r2
 800297c:	009b      	lsls	r3, r3, #2
 800297e:	440b      	add	r3, r1
 8002980:	3344      	adds	r3, #68	@ 0x44
 8002982:	2200      	movs	r2, #0
 8002984:	601a      	str	r2, [r3, #0]
 8002986:	687b      	ldr	r3, [r7, #4]
 8002988:	799b      	ldrb	r3, [r3, #6]
 800298a:	2b00      	cmp	r3, #0
 800298c:	d00a      	beq.n	80029a4 <HCD_HC_IN_IRQHandler+0xc2a>
 800298e:	78fa      	ldrb	r2, [r7, #3]
 8002990:	6879      	ldr	r1, [r7, #4]
 8002992:	4613      	mov	r3, r2
 8002994:	011b      	lsls	r3, r3, #4
 8002996:	1a9b      	subs	r3, r3, r2
 8002998:	009b      	lsls	r3, r3, #2
 800299a:	440b      	add	r3, r1
 800299c:	331b      	adds	r3, #27
 800299e:	781b      	ldrb	r3, [r3, #0]
 80029a0:	2b01      	cmp	r3, #1
 80029a2:	d110      	bne.n	80029c6 <HCD_HC_IN_IRQHandler+0xc4c>
 80029a4:	78fa      	ldrb	r2, [r7, #3]
 80029a6:	6879      	ldr	r1, [r7, #4]
 80029a8:	4613      	mov	r3, r2
 80029aa:	011b      	lsls	r3, r3, #4
 80029ac:	1a9b      	subs	r3, r3, r2
 80029ae:	009b      	lsls	r3, r3, #2
 80029b0:	440b      	add	r3, r1
 80029b2:	334d      	adds	r3, #77	@ 0x4d
 80029b4:	2204      	movs	r2, #4
 80029b6:	701a      	strb	r2, [r3, #0]
 80029b8:	687b      	ldr	r3, [r7, #4]
 80029ba:	681b      	ldr	r3, [r3, #0]
 80029bc:	78fa      	ldrb	r2, [r7, #3]
 80029be:	4611      	mov	r1, r2
 80029c0:	4618      	mov	r0, r3
 80029c2:	f003 f9ec 	bl	8005d9e <USB_HC_Halt>
 80029c6:	78fa      	ldrb	r2, [r7, #3]
 80029c8:	6879      	ldr	r1, [r7, #4]
 80029ca:	4613      	mov	r3, r2
 80029cc:	011b      	lsls	r3, r3, #4
 80029ce:	1a9b      	subs	r3, r3, r2
 80029d0:	009b      	lsls	r3, r3, #2
 80029d2:	440b      	add	r3, r1
 80029d4:	331b      	adds	r3, #27
 80029d6:	781b      	ldrb	r3, [r3, #0]
 80029d8:	2b01      	cmp	r3, #1
 80029da:	d129      	bne.n	8002a30 <HCD_HC_IN_IRQHandler+0xcb6>
 80029dc:	78fa      	ldrb	r2, [r7, #3]
 80029de:	6879      	ldr	r1, [r7, #4]
 80029e0:	4613      	mov	r3, r2
 80029e2:	011b      	lsls	r3, r3, #4
 80029e4:	1a9b      	subs	r3, r3, r2
 80029e6:	009b      	lsls	r3, r3, #2
 80029e8:	440b      	add	r3, r1
 80029ea:	331b      	adds	r3, #27
 80029ec:	2200      	movs	r2, #0
 80029ee:	701a      	strb	r2, [r3, #0]
 80029f0:	78fb      	ldrb	r3, [r7, #3]
 80029f2:	015a      	lsls	r2, r3, #5
 80029f4:	693b      	ldr	r3, [r7, #16]
 80029f6:	4413      	add	r3, r2
 80029f8:	f503 63a0 	add.w	r3, r3, #1280	@ 0x500
 80029fc:	685b      	ldr	r3, [r3, #4]
 80029fe:	78fa      	ldrb	r2, [r7, #3]
 8002a00:	0151      	lsls	r1, r2, #5
 8002a02:	693a      	ldr	r2, [r7, #16]
 8002a04:	440a      	add	r2, r1
 8002a06:	f502 62a0 	add.w	r2, r2, #1280	@ 0x500
 8002a0a:	f423 3380 	bic.w	r3, r3, #65536	@ 0x10000
 8002a0e:	6053      	str	r3, [r2, #4]
 8002a10:	78fb      	ldrb	r3, [r7, #3]
 8002a12:	015a      	lsls	r2, r3, #5
 8002a14:	693b      	ldr	r3, [r7, #16]
 8002a16:	4413      	add	r3, r2
 8002a18:	f503 63a0 	add.w	r3, r3, #1280	@ 0x500
 8002a1c:	68db      	ldr	r3, [r3, #12]
 8002a1e:	78fa      	ldrb	r2, [r7, #3]
 8002a20:	0151      	lsls	r1, r2, #5
 8002a22:	693a      	ldr	r2, [r7, #16]
 8002a24:	440a      	add	r2, r1
 8002a26:	f502 62a0 	add.w	r2, r2, #1280	@ 0x500
 8002a2a:	f043 0320 	orr.w	r3, r3, #32
 8002a2e:	60d3      	str	r3, [r2, #12]
 8002a30:	78fb      	ldrb	r3, [r7, #3]
 8002a32:	015a      	lsls	r2, r3, #5
 8002a34:	693b      	ldr	r3, [r7, #16]
 8002a36:	4413      	add	r3, r2
 8002a38:	f503 63a0 	add.w	r3, r3, #1280	@ 0x500
 8002a3c:	461a      	mov	r2, r3
 8002a3e:	2310      	movs	r3, #16
 8002a40:	6093      	str	r3, [r2, #8]
 8002a42:	e000      	b.n	8002a46 <HCD_HC_IN_IRQHandler+0xccc>
 8002a44:	bf00      	nop
 8002a46:	3718      	adds	r7, #24
 8002a48:	46bd      	mov	sp, r7
 8002a4a:	bd80      	pop	{r7, pc}

08002a4c <HCD_HC_OUT_IRQHandler>:
 8002a4c:	b580      	push	{r7, lr}
 8002a4e:	b086      	sub	sp, #24
 8002a50:	af00      	add	r7, sp, #0
 8002a52:	6078      	str	r0, [r7, #4]
 8002a54:	460b      	mov	r3, r1
 8002a56:	70fb      	strb	r3, [r7, #3]
 8002a58:	687b      	ldr	r3, [r7, #4]
 8002a5a:	681b      	ldr	r3, [r3, #0]
 8002a5c:	617b      	str	r3, [r7, #20]
 8002a5e:	697b      	ldr	r3, [r7, #20]
 8002a60:	613b      	str	r3, [r7, #16]
 8002a62:	687b      	ldr	r3, [r7, #4]
 8002a64:	681b      	ldr	r3, [r3, #0]
 8002a66:	78fa      	ldrb	r2, [r7, #3]
 8002a68:	4611      	mov	r1, r2
 8002a6a:	4618      	mov	r0, r3
 8002a6c:	f002 fbf4 	bl	8005258 <USB_ReadChInterrupts>
 8002a70:	4603      	mov	r3, r0
 8002a72:	f003 0304 	and.w	r3, r3, #4
 8002a76:	2b04      	cmp	r3, #4
 8002a78:	d11b      	bne.n	8002ab2 <HCD_HC_OUT_IRQHandler+0x66>
 8002a7a:	78fb      	ldrb	r3, [r7, #3]
 8002a7c:	015a      	lsls	r2, r3, #5
 8002a7e:	693b      	ldr	r3, [r7, #16]
 8002a80:	4413      	add	r3, r2
 8002a82:	f503 63a0 	add.w	r3, r3, #1280	@ 0x500
 8002a86:	461a      	mov	r2, r3
 8002a88:	2304      	movs	r3, #4
 8002a8a:	6093      	str	r3, [r2, #8]
 8002a8c:	78fa      	ldrb	r2, [r7, #3]
 8002a8e:	6879      	ldr	r1, [r7, #4]
 8002a90:	4613      	mov	r3, r2
 8002a92:	011b      	lsls	r3, r3, #4
 8002a94:	1a9b      	subs	r3, r3, r2
 8002a96:	009b      	lsls	r3, r3, #2
 8002a98:	440b      	add	r3, r1
 8002a9a:	334d      	adds	r3, #77	@ 0x4d
 8002a9c:	2207      	movs	r2, #7
 8002a9e:	701a      	strb	r2, [r3, #0]
 8002aa0:	687b      	ldr	r3, [r7, #4]
 8002aa2:	681b      	ldr	r3, [r3, #0]
 8002aa4:	78fa      	ldrb	r2, [r7, #3]
 8002aa6:	4611      	mov	r1, r2
 8002aa8:	4618      	mov	r0, r3
 8002aaa:	f003 f978 	bl	8005d9e <USB_HC_Halt>
 8002aae:	f000 bc6f 	b.w	8003390 <HCD_HC_OUT_IRQHandler+0x944>
 8002ab2:	687b      	ldr	r3, [r7, #4]
 8002ab4:	681b      	ldr	r3, [r3, #0]
 8002ab6:	78fa      	ldrb	r2, [r7, #3]
 8002ab8:	4611      	mov	r1, r2
 8002aba:	4618      	mov	r0, r3
 8002abc:	f002 fbcc 	bl	8005258 <USB_ReadChInterrupts>
 8002ac0:	4603      	mov	r3, r0
 8002ac2:	f003 0320 	and.w	r3, r3, #32
 8002ac6:	2b20      	cmp	r3, #32
 8002ac8:	f040 8082 	bne.w	8002bd0 <HCD_HC_OUT_IRQHandler+0x184>
 8002acc:	78fb      	ldrb	r3, [r7, #3]
 8002ace:	015a      	lsls	r2, r3, #5
 8002ad0:	693b      	ldr	r3, [r7, #16]
 8002ad2:	4413      	add	r3, r2
 8002ad4:	f503 63a0 	add.w	r3, r3, #1280	@ 0x500
 8002ad8:	461a      	mov	r2, r3
 8002ada:	2320      	movs	r3, #32
 8002adc:	6093      	str	r3, [r2, #8]
 8002ade:	78fa      	ldrb	r2, [r7, #3]
 8002ae0:	6879      	ldr	r1, [r7, #4]
 8002ae2:	4613      	mov	r3, r2
 8002ae4:	011b      	lsls	r3, r3, #4
 8002ae6:	1a9b      	subs	r3, r3, r2
 8002ae8:	009b      	lsls	r3, r3, #2
 8002aea:	440b      	add	r3, r1
 8002aec:	3319      	adds	r3, #25
 8002aee:	781b      	ldrb	r3, [r3, #0]
 8002af0:	2b01      	cmp	r3, #1
 8002af2:	d124      	bne.n	8002b3e <HCD_HC_OUT_IRQHandler+0xf2>
 8002af4:	78fa      	ldrb	r2, [r7, #3]
 8002af6:	6879      	ldr	r1, [r7, #4]
 8002af8:	4613      	mov	r3, r2
 8002afa:	011b      	lsls	r3, r3, #4
 8002afc:	1a9b      	subs	r3, r3, r2
 8002afe:	009b      	lsls	r3, r3, #2
 8002b00:	440b      	add	r3, r1
 8002b02:	3319      	adds	r3, #25
 8002b04:	2200      	movs	r2, #0
 8002b06:	701a      	strb	r2, [r3, #0]
 8002b08:	78fa      	ldrb	r2, [r7, #3]
 8002b0a:	6879      	ldr	r1, [r7, #4]
 8002b0c:	4613      	mov	r3, r2
 8002b0e:	011b      	lsls	r3, r3, #4
 8002b10:	1a9b      	subs	r3, r3, r2
 8002b12:	009b      	lsls	r3, r3, #2
 8002b14:	440b      	add	r3, r1
 8002b16:	334c      	adds	r3, #76	@ 0x4c
 8002b18:	2202      	movs	r2, #2
 8002b1a:	701a      	strb	r2, [r3, #0]
 8002b1c:	78fa      	ldrb	r2, [r7, #3]
 8002b1e:	6879      	ldr	r1, [r7, #4]
 8002b20:	4613      	mov	r3, r2
 8002b22:	011b      	lsls	r3, r3, #4
 8002b24:	1a9b      	subs	r3, r3, r2
 8002b26:	009b      	lsls	r3, r3, #2
 8002b28:	440b      	add	r3, r1
 8002b2a:	334d      	adds	r3, #77	@ 0x4d
 8002b2c:	2203      	movs	r2, #3
 8002b2e:	701a      	strb	r2, [r3, #0]
 8002b30:	687b      	ldr	r3, [r7, #4]
 8002b32:	681b      	ldr	r3, [r3, #0]
 8002b34:	78fa      	ldrb	r2, [r7, #3]
 8002b36:	4611      	mov	r1, r2
 8002b38:	4618      	mov	r0, r3
 8002b3a:	f003 f930 	bl	8005d9e <USB_HC_Halt>
 8002b3e:	78fa      	ldrb	r2, [r7, #3]
 8002b40:	6879      	ldr	r1, [r7, #4]
 8002b42:	4613      	mov	r3, r2
 8002b44:	011b      	lsls	r3, r3, #4
 8002b46:	1a9b      	subs	r3, r3, r2
 8002b48:	009b      	lsls	r3, r3, #2
 8002b4a:	440b      	add	r3, r1
 8002b4c:	331a      	adds	r3, #26
 8002b4e:	781b      	ldrb	r3, [r3, #0]
 8002b50:	2b01      	cmp	r3, #1
 8002b52:	f040 841d 	bne.w	8003390 <HCD_HC_OUT_IRQHandler+0x944>
 8002b56:	78fa      	ldrb	r2, [r7, #3]
 8002b58:	6879      	ldr	r1, [r7, #4]
 8002b5a:	4613      	mov	r3, r2
 8002b5c:	011b      	lsls	r3, r3, #4
 8002b5e:	1a9b      	subs	r3, r3, r2
 8002b60:	009b      	lsls	r3, r3, #2
 8002b62:	440b      	add	r3, r1
 8002b64:	331b      	adds	r3, #27
 8002b66:	781b      	ldrb	r3, [r3, #0]
 8002b68:	2b00      	cmp	r3, #0
 8002b6a:	f040 8411 	bne.w	8003390 <HCD_HC_OUT_IRQHandler+0x944>
 8002b6e:	78fa      	ldrb	r2, [r7, #3]
 8002b70:	6879      	ldr	r1, [r7, #4]
 8002b72:	4613      	mov	r3, r2
 8002b74:	011b      	lsls	r3, r3, #4
 8002b76:	1a9b      	subs	r3, r3, r2
 8002b78:	009b      	lsls	r3, r3, #2
 8002b7a:	440b      	add	r3, r1
 8002b7c:	3326      	adds	r3, #38	@ 0x26
 8002b7e:	781b      	ldrb	r3, [r3, #0]
 8002b80:	2b01      	cmp	r3, #1
 8002b82:	d009      	beq.n	8002b98 <HCD_HC_OUT_IRQHandler+0x14c>
 8002b84:	78fa      	ldrb	r2, [r7, #3]
 8002b86:	6879      	ldr	r1, [r7, #4]
 8002b88:	4613      	mov	r3, r2
 8002b8a:	011b      	lsls	r3, r3, #4
 8002b8c:	1a9b      	subs	r3, r3, r2
 8002b8e:	009b      	lsls	r3, r3, #2
 8002b90:	440b      	add	r3, r1
 8002b92:	331b      	adds	r3, #27
 8002b94:	2201      	movs	r2, #1
 8002b96:	701a      	strb	r2, [r3, #0]
 8002b98:	78fa      	ldrb	r2, [r7, #3]
 8002b9a:	6879      	ldr	r1, [r7, #4]
 8002b9c:	4613      	mov	r3, r2
 8002b9e:	011b      	lsls	r3, r3, #4
 8002ba0:	1a9b      	subs	r3, r3, r2
 8002ba2:	009b      	lsls	r3, r3, #2
 8002ba4:	440b      	add	r3, r1
 8002ba6:	334d      	adds	r3, #77	@ 0x4d
 8002ba8:	2203      	movs	r2, #3
 8002baa:	701a      	strb	r2, [r3, #0]
 8002bac:	687b      	ldr	r3, [r7, #4]
 8002bae:	681b      	ldr	r3, [r3, #0]
 8002bb0:	78fa      	ldrb	r2, [r7, #3]
 8002bb2:	4611      	mov	r1, r2
 8002bb4:	4618      	mov	r0, r3
 8002bb6:	f003 f8f2 	bl	8005d9e <USB_HC_Halt>
 8002bba:	78fa      	ldrb	r2, [r7, #3]
 8002bbc:	6879      	ldr	r1, [r7, #4]
 8002bbe:	4613      	mov	r3, r2
 8002bc0:	011b      	lsls	r3, r3, #4
 8002bc2:	1a9b      	subs	r3, r3, r2
 8002bc4:	009b      	lsls	r3, r3, #2
 8002bc6:	440b      	add	r3, r1
 8002bc8:	3344      	adds	r3, #68	@ 0x44
 8002bca:	2200      	movs	r2, #0
 8002bcc:	601a      	str	r2, [r3, #0]
 8002bce:	e3df      	b.n	8003390 <HCD_HC_OUT_IRQHandler+0x944>
 8002bd0:	687b      	ldr	r3, [r7, #4]
 8002bd2:	681b      	ldr	r3, [r3, #0]
 8002bd4:	78fa      	ldrb	r2, [r7, #3]
 8002bd6:	4611      	mov	r1, r2
 8002bd8:	4618      	mov	r0, r3
 8002bda:	f002 fb3d 	bl	8005258 <USB_ReadChInterrupts>
 8002bde:	4603      	mov	r3, r0
 8002be0:	f403 7300 	and.w	r3, r3, #512	@ 0x200
 8002be4:	f5b3 7f00 	cmp.w	r3, #512	@ 0x200
 8002be8:	d111      	bne.n	8002c0e <HCD_HC_OUT_IRQHandler+0x1c2>
 8002bea:	78fb      	ldrb	r3, [r7, #3]
 8002bec:	015a      	lsls	r2, r3, #5
 8002bee:	693b      	ldr	r3, [r7, #16]
 8002bf0:	4413      	add	r3, r2
 8002bf2:	f503 63a0 	add.w	r3, r3, #1280	@ 0x500
 8002bf6:	461a      	mov	r2, r3
 8002bf8:	f44f 7300 	mov.w	r3, #512	@ 0x200
 8002bfc:	6093      	str	r3, [r2, #8]
 8002bfe:	687b      	ldr	r3, [r7, #4]
 8002c00:	681b      	ldr	r3, [r3, #0]
 8002c02:	78fa      	ldrb	r2, [r7, #3]
 8002c04:	4611      	mov	r1, r2
 8002c06:	4618      	mov	r0, r3
 8002c08:	f003 f8c9 	bl	8005d9e <USB_HC_Halt>
 8002c0c:	e3c0      	b.n	8003390 <HCD_HC_OUT_IRQHandler+0x944>
 8002c0e:	687b      	ldr	r3, [r7, #4]
 8002c10:	681b      	ldr	r3, [r3, #0]
 8002c12:	78fa      	ldrb	r2, [r7, #3]
 8002c14:	4611      	mov	r1, r2
 8002c16:	4618      	mov	r0, r3
 8002c18:	f002 fb1e 	bl	8005258 <USB_ReadChInterrupts>
 8002c1c:	4603      	mov	r3, r0
 8002c1e:	f003 0301 	and.w	r3, r3, #1
 8002c22:	2b01      	cmp	r3, #1
 8002c24:	d168      	bne.n	8002cf8 <HCD_HC_OUT_IRQHandler+0x2ac>
 8002c26:	78fa      	ldrb	r2, [r7, #3]
 8002c28:	6879      	ldr	r1, [r7, #4]
 8002c2a:	4613      	mov	r3, r2
 8002c2c:	011b      	lsls	r3, r3, #4
 8002c2e:	1a9b      	subs	r3, r3, r2
 8002c30:	009b      	lsls	r3, r3, #2
 8002c32:	440b      	add	r3, r1
 8002c34:	3344      	adds	r3, #68	@ 0x44
 8002c36:	2200      	movs	r2, #0
 8002c38:	601a      	str	r2, [r3, #0]
 8002c3a:	687b      	ldr	r3, [r7, #4]
 8002c3c:	681b      	ldr	r3, [r3, #0]
 8002c3e:	78fa      	ldrb	r2, [r7, #3]
 8002c40:	4611      	mov	r1, r2
 8002c42:	4618      	mov	r0, r3
 8002c44:	f002 fb08 	bl	8005258 <USB_ReadChInterrupts>
 8002c48:	4603      	mov	r3, r0
 8002c4a:	f003 0340 	and.w	r3, r3, #64	@ 0x40
 8002c4e:	2b40      	cmp	r3, #64	@ 0x40
 8002c50:	d112      	bne.n	8002c78 <HCD_HC_OUT_IRQHandler+0x22c>
 8002c52:	78fa      	ldrb	r2, [r7, #3]
 8002c54:	6879      	ldr	r1, [r7, #4]
 8002c56:	4613      	mov	r3, r2
 8002c58:	011b      	lsls	r3, r3, #4
 8002c5a:	1a9b      	subs	r3, r3, r2
 8002c5c:	009b      	lsls	r3, r3, #2
 8002c5e:	440b      	add	r3, r1
 8002c60:	3319      	adds	r3, #25
 8002c62:	2201      	movs	r2, #1
 8002c64:	701a      	strb	r2, [r3, #0]
 8002c66:	78fb      	ldrb	r3, [r7, #3]
 8002c68:	015a      	lsls	r2, r3, #5
 8002c6a:	693b      	ldr	r3, [r7, #16]
 8002c6c:	4413      	add	r3, r2
 8002c6e:	f503 63a0 	add.w	r3, r3, #1280	@ 0x500
 8002c72:	461a      	mov	r2, r3
 8002c74:	2340      	movs	r3, #64	@ 0x40
 8002c76:	6093      	str	r3, [r2, #8]
 8002c78:	78fa      	ldrb	r2, [r7, #3]
 8002c7a:	6879      	ldr	r1, [r7, #4]
 8002c7c:	4613      	mov	r3, r2
 8002c7e:	011b      	lsls	r3, r3, #4
 8002c80:	1a9b      	subs	r3, r3, r2
 8002c82:	009b      	lsls	r3, r3, #2
 8002c84:	440b      	add	r3, r1
 8002c86:	331b      	adds	r3, #27
 8002c88:	781b      	ldrb	r3, [r3, #0]
 8002c8a:	2b00      	cmp	r3, #0
 8002c8c:	d019      	beq.n	8002cc2 <HCD_HC_OUT_IRQHandler+0x276>
 8002c8e:	78fa      	ldrb	r2, [r7, #3]
 8002c90:	6879      	ldr	r1, [r7, #4]
 8002c92:	4613      	mov	r3, r2
 8002c94:	011b      	lsls	r3, r3, #4
 8002c96:	1a9b      	subs	r3, r3, r2
 8002c98:	009b      	lsls	r3, r3, #2
 8002c9a:	440b      	add	r3, r1
 8002c9c:	331b      	adds	r3, #27
 8002c9e:	2200      	movs	r2, #0
 8002ca0:	701a      	strb	r2, [r3, #0]
 8002ca2:	78fb      	ldrb	r3, [r7, #3]
 8002ca4:	015a      	lsls	r2, r3, #5
 8002ca6:	693b      	ldr	r3, [r7, #16]
 8002ca8:	4413      	add	r3, r2
 8002caa:	f503 63a0 	add.w	r3, r3, #1280	@ 0x500
 8002cae:	685b      	ldr	r3, [r3, #4]
 8002cb0:	78fa      	ldrb	r2, [r7, #3]
 8002cb2:	0151      	lsls	r1, r2, #5
 8002cb4:	693a      	ldr	r2, [r7, #16]
 8002cb6:	440a      	add	r2, r1
 8002cb8:	f502 62a0 	add.w	r2, r2, #1280	@ 0x500
 8002cbc:	f423 3380 	bic.w	r3, r3, #65536	@ 0x10000
 8002cc0:	6053      	str	r3, [r2, #4]
 8002cc2:	78fb      	ldrb	r3, [r7, #3]
 8002cc4:	015a      	lsls	r2, r3, #5
 8002cc6:	693b      	ldr	r3, [r7, #16]
 8002cc8:	4413      	add	r3, r2
 8002cca:	f503 63a0 	add.w	r3, r3, #1280	@ 0x500
 8002cce:	461a      	mov	r2, r3
 8002cd0:	2301      	movs	r3, #1
 8002cd2:	6093      	str	r3, [r2, #8]
 8002cd4:	78fa      	ldrb	r2, [r7, #3]
 8002cd6:	6879      	ldr	r1, [r7, #4]
 8002cd8:	4613      	mov	r3, r2
 8002cda:	011b      	lsls	r3, r3, #4
 8002cdc:	1a9b      	subs	r3, r3, r2
 8002cde:	009b      	lsls	r3, r3, #2
 8002ce0:	440b      	add	r3, r1
 8002ce2:	334d      	adds	r3, #77	@ 0x4d
 8002ce4:	2201      	movs	r2, #1
 8002ce6:	701a      	strb	r2, [r3, #0]
 8002ce8:	687b      	ldr	r3, [r7, #4]
 8002cea:	681b      	ldr	r3, [r3, #0]
 8002cec:	78fa      	ldrb	r2, [r7, #3]
 8002cee:	4611      	mov	r1, r2
 8002cf0:	4618      	mov	r0, r3
 8002cf2:	f003 f854 	bl	8005d9e <USB_HC_Halt>
 8002cf6:	e34b      	b.n	8003390 <HCD_HC_OUT_IRQHandler+0x944>
 8002cf8:	687b      	ldr	r3, [r7, #4]
 8002cfa:	681b      	ldr	r3, [r3, #0]
 8002cfc:	78fa      	ldrb	r2, [r7, #3]
 8002cfe:	4611      	mov	r1, r2
 8002d00:	4618      	mov	r0, r3
 8002d02:	f002 faa9 	bl	8005258 <USB_ReadChInterrupts>
 8002d06:	4603      	mov	r3, r0
 8002d08:	f003 0340 	and.w	r3, r3, #64	@ 0x40
 8002d0c:	2b40      	cmp	r3, #64	@ 0x40
 8002d0e:	d139      	bne.n	8002d84 <HCD_HC_OUT_IRQHandler+0x338>
 8002d10:	78fa      	ldrb	r2, [r7, #3]
 8002d12:	6879      	ldr	r1, [r7, #4]
 8002d14:	4613      	mov	r3, r2
 8002d16:	011b      	lsls	r3, r3, #4
 8002d18:	1a9b      	subs	r3, r3, r2
 8002d1a:	009b      	lsls	r3, r3, #2
 8002d1c:	440b      	add	r3, r1
 8002d1e:	334d      	adds	r3, #77	@ 0x4d
 8002d20:	2205      	movs	r2, #5
 8002d22:	701a      	strb	r2, [r3, #0]
 8002d24:	78fa      	ldrb	r2, [r7, #3]
 8002d26:	6879      	ldr	r1, [r7, #4]
 8002d28:	4613      	mov	r3, r2
 8002d2a:	011b      	lsls	r3, r3, #4
 8002d2c:	1a9b      	subs	r3, r3, r2
 8002d2e:	009b      	lsls	r3, r3, #2
 8002d30:	440b      	add	r3, r1
 8002d32:	331a      	adds	r3, #26
 8002d34:	781b      	ldrb	r3, [r3, #0]
 8002d36:	2b00      	cmp	r3, #0
 8002d38:	d109      	bne.n	8002d4e <HCD_HC_OUT_IRQHandler+0x302>
 8002d3a:	78fa      	ldrb	r2, [r7, #3]
 8002d3c:	6879      	ldr	r1, [r7, #4]
 8002d3e:	4613      	mov	r3, r2
 8002d40:	011b      	lsls	r3, r3, #4
 8002d42:	1a9b      	subs	r3, r3, r2
 8002d44:	009b      	lsls	r3, r3, #2
 8002d46:	440b      	add	r3, r1
 8002d48:	3319      	adds	r3, #25
 8002d4a:	2201      	movs	r2, #1
 8002d4c:	701a      	strb	r2, [r3, #0]
 8002d4e:	78fa      	ldrb	r2, [r7, #3]
 8002d50:	6879      	ldr	r1, [r7, #4]
 8002d52:	4613      	mov	r3, r2
 8002d54:	011b      	lsls	r3, r3, #4
 8002d56:	1a9b      	subs	r3, r3, r2
 8002d58:	009b      	lsls	r3, r3, #2
 8002d5a:	440b      	add	r3, r1
 8002d5c:	3344      	adds	r3, #68	@ 0x44
 8002d5e:	2200      	movs	r2, #0
 8002d60:	601a      	str	r2, [r3, #0]
 8002d62:	687b      	ldr	r3, [r7, #4]
 8002d64:	681b      	ldr	r3, [r3, #0]
 8002d66:	78fa      	ldrb	r2, [r7, #3]
 8002d68:	4611      	mov	r1, r2
 8002d6a:	4618      	mov	r0, r3
 8002d6c:	f003 f817 	bl	8005d9e <USB_HC_Halt>
 8002d70:	78fb      	ldrb	r3, [r7, #3]
 8002d72:	015a      	lsls	r2, r3, #5
 8002d74:	693b      	ldr	r3, [r7, #16]
 8002d76:	4413      	add	r3, r2
 8002d78:	f503 63a0 	add.w	r3, r3, #1280	@ 0x500
 8002d7c:	461a      	mov	r2, r3
 8002d7e:	2340      	movs	r3, #64	@ 0x40
 8002d80:	6093      	str	r3, [r2, #8]
 8002d82:	e305      	b.n	8003390 <HCD_HC_OUT_IRQHandler+0x944>
 8002d84:	687b      	ldr	r3, [r7, #4]
 8002d86:	681b      	ldr	r3, [r3, #0]
 8002d88:	78fa      	ldrb	r2, [r7, #3]
 8002d8a:	4611      	mov	r1, r2
 8002d8c:	4618      	mov	r0, r3
 8002d8e:	f002 fa63 	bl	8005258 <USB_ReadChInterrupts>
 8002d92:	4603      	mov	r3, r0
 8002d94:	f003 0308 	and.w	r3, r3, #8
 8002d98:	2b08      	cmp	r3, #8
 8002d9a:	d11a      	bne.n	8002dd2 <HCD_HC_OUT_IRQHandler+0x386>
 8002d9c:	78fb      	ldrb	r3, [r7, #3]
 8002d9e:	015a      	lsls	r2, r3, #5
 8002da0:	693b      	ldr	r3, [r7, #16]
 8002da2:	4413      	add	r3, r2
 8002da4:	f503 63a0 	add.w	r3, r3, #1280	@ 0x500
 8002da8:	461a      	mov	r2, r3
 8002daa:	2308      	movs	r3, #8
 8002dac:	6093      	str	r3, [r2, #8]
 8002dae:	78fa      	ldrb	r2, [r7, #3]
 8002db0:	6879      	ldr	r1, [r7, #4]
 8002db2:	4613      	mov	r3, r2
 8002db4:	011b      	lsls	r3, r3, #4
 8002db6:	1a9b      	subs	r3, r3, r2
 8002db8:	009b      	lsls	r3, r3, #2
 8002dba:	440b      	add	r3, r1
 8002dbc:	334d      	adds	r3, #77	@ 0x4d
 8002dbe:	2206      	movs	r2, #6
 8002dc0:	701a      	strb	r2, [r3, #0]
 8002dc2:	687b      	ldr	r3, [r7, #4]
 8002dc4:	681b      	ldr	r3, [r3, #0]
 8002dc6:	78fa      	ldrb	r2, [r7, #3]
 8002dc8:	4611      	mov	r1, r2
 8002dca:	4618      	mov	r0, r3
 8002dcc:	f002 ffe7 	bl	8005d9e <USB_HC_Halt>
 8002dd0:	e2de      	b.n	8003390 <HCD_HC_OUT_IRQHandler+0x944>
 8002dd2:	687b      	ldr	r3, [r7, #4]
 8002dd4:	681b      	ldr	r3, [r3, #0]
 8002dd6:	78fa      	ldrb	r2, [r7, #3]
 8002dd8:	4611      	mov	r1, r2
 8002dda:	4618      	mov	r0, r3
 8002ddc:	f002 fa3c 	bl	8005258 <USB_ReadChInterrupts>
 8002de0:	4603      	mov	r3, r0
 8002de2:	f003 0310 	and.w	r3, r3, #16
 8002de6:	2b10      	cmp	r3, #16
 8002de8:	d144      	bne.n	8002e74 <HCD_HC_OUT_IRQHandler+0x428>
 8002dea:	78fa      	ldrb	r2, [r7, #3]
 8002dec:	6879      	ldr	r1, [r7, #4]
 8002dee:	4613      	mov	r3, r2
 8002df0:	011b      	lsls	r3, r3, #4
 8002df2:	1a9b      	subs	r3, r3, r2
 8002df4:	009b      	lsls	r3, r3, #2
 8002df6:	440b      	add	r3, r1
 8002df8:	3344      	adds	r3, #68	@ 0x44
 8002dfa:	2200      	movs	r2, #0
 8002dfc:	601a      	str	r2, [r3, #0]
 8002dfe:	78fa      	ldrb	r2, [r7, #3]
 8002e00:	6879      	ldr	r1, [r7, #4]
 8002e02:	4613      	mov	r3, r2
 8002e04:	011b      	lsls	r3, r3, #4
 8002e06:	1a9b      	subs	r3, r3, r2
 8002e08:	009b      	lsls	r3, r3, #2
 8002e0a:	440b      	add	r3, r1
 8002e0c:	334d      	adds	r3, #77	@ 0x4d
 8002e0e:	2204      	movs	r2, #4
 8002e10:	701a      	strb	r2, [r3, #0]
 8002e12:	78fa      	ldrb	r2, [r7, #3]
 8002e14:	6879      	ldr	r1, [r7, #4]
 8002e16:	4613      	mov	r3, r2
 8002e18:	011b      	lsls	r3, r3, #4
 8002e1a:	1a9b      	subs	r3, r3, r2
 8002e1c:	009b      	lsls	r3, r3, #2
 8002e1e:	440b      	add	r3, r1
 8002e20:	3319      	adds	r3, #25
 8002e22:	781b      	ldrb	r3, [r3, #0]
 8002e24:	2b00      	cmp	r3, #0
 8002e26:	d114      	bne.n	8002e52 <HCD_HC_OUT_IRQHandler+0x406>
 8002e28:	78fa      	ldrb	r2, [r7, #3]
 8002e2a:	6879      	ldr	r1, [r7, #4]
 8002e2c:	4613      	mov	r3, r2
 8002e2e:	011b      	lsls	r3, r3, #4
 8002e30:	1a9b      	subs	r3, r3, r2
 8002e32:	009b      	lsls	r3, r3, #2
 8002e34:	440b      	add	r3, r1
 8002e36:	3318      	adds	r3, #24
 8002e38:	781b      	ldrb	r3, [r3, #0]
 8002e3a:	2b00      	cmp	r3, #0
 8002e3c:	d109      	bne.n	8002e52 <HCD_HC_OUT_IRQHandler+0x406>
 8002e3e:	78fa      	ldrb	r2, [r7, #3]
 8002e40:	6879      	ldr	r1, [r7, #4]
 8002e42:	4613      	mov	r3, r2
 8002e44:	011b      	lsls	r3, r3, #4
 8002e46:	1a9b      	subs	r3, r3, r2
 8002e48:	009b      	lsls	r3, r3, #2
 8002e4a:	440b      	add	r3, r1
 8002e4c:	3319      	adds	r3, #25
 8002e4e:	2201      	movs	r2, #1
 8002e50:	701a      	strb	r2, [r3, #0]
 8002e52:	687b      	ldr	r3, [r7, #4]
 8002e54:	681b      	ldr	r3, [r3, #0]
 8002e56:	78fa      	ldrb	r2, [r7, #3]
 8002e58:	4611      	mov	r1, r2
 8002e5a:	4618      	mov	r0, r3
 8002e5c:	f002 ff9f 	bl	8005d9e <USB_HC_Halt>
 8002e60:	78fb      	ldrb	r3, [r7, #3]
 8002e62:	015a      	lsls	r2, r3, #5
 8002e64:	693b      	ldr	r3, [r7, #16]
 8002e66:	4413      	add	r3, r2
 8002e68:	f503 63a0 	add.w	r3, r3, #1280	@ 0x500
 8002e6c:	461a      	mov	r2, r3
 8002e6e:	2310      	movs	r3, #16
 8002e70:	6093      	str	r3, [r2, #8]
 8002e72:	e28d      	b.n	8003390 <HCD_HC_OUT_IRQHandler+0x944>
 8002e74:	687b      	ldr	r3, [r7, #4]
 8002e76:	681b      	ldr	r3, [r3, #0]
 8002e78:	78fa      	ldrb	r2, [r7, #3]
 8002e7a:	4611      	mov	r1, r2
 8002e7c:	4618      	mov	r0, r3
 8002e7e:	f002 f9eb 	bl	8005258 <USB_ReadChInterrupts>
 8002e82:	4603      	mov	r3, r0
 8002e84:	f003 0380 	and.w	r3, r3, #128	@ 0x80
 8002e88:	2b80      	cmp	r3, #128	@ 0x80
 8002e8a:	d169      	bne.n	8002f60 <HCD_HC_OUT_IRQHandler+0x514>
 8002e8c:	687b      	ldr	r3, [r7, #4]
 8002e8e:	799b      	ldrb	r3, [r3, #6]
 8002e90:	2b00      	cmp	r3, #0
 8002e92:	d111      	bne.n	8002eb8 <HCD_HC_OUT_IRQHandler+0x46c>
 8002e94:	78fa      	ldrb	r2, [r7, #3]
 8002e96:	6879      	ldr	r1, [r7, #4]
 8002e98:	4613      	mov	r3, r2
 8002e9a:	011b      	lsls	r3, r3, #4
 8002e9c:	1a9b      	subs	r3, r3, r2
 8002e9e:	009b      	lsls	r3, r3, #2
 8002ea0:	440b      	add	r3, r1
 8002ea2:	334d      	adds	r3, #77	@ 0x4d
 8002ea4:	2207      	movs	r2, #7
 8002ea6:	701a      	strb	r2, [r3, #0]
 8002ea8:	687b      	ldr	r3, [r7, #4]
 8002eaa:	681b      	ldr	r3, [r3, #0]
 8002eac:	78fa      	ldrb	r2, [r7, #3]
 8002eae:	4611      	mov	r1, r2
 8002eb0:	4618      	mov	r0, r3
 8002eb2:	f002 ff74 	bl	8005d9e <USB_HC_Halt>
 8002eb6:	e049      	b.n	8002f4c <HCD_HC_OUT_IRQHandler+0x500>
 8002eb8:	78fa      	ldrb	r2, [r7, #3]
 8002eba:	6879      	ldr	r1, [r7, #4]
 8002ebc:	4613      	mov	r3, r2
 8002ebe:	011b      	lsls	r3, r3, #4
 8002ec0:	1a9b      	subs	r3, r3, r2
 8002ec2:	009b      	lsls	r3, r3, #2
 8002ec4:	440b      	add	r3, r1
 8002ec6:	3344      	adds	r3, #68	@ 0x44
 8002ec8:	681b      	ldr	r3, [r3, #0]
 8002eca:	1c59      	adds	r1, r3, #1
 8002ecc:	6878      	ldr	r0, [r7, #4]
 8002ece:	4613      	mov	r3, r2
 8002ed0:	011b      	lsls	r3, r3, #4
 8002ed2:	1a9b      	subs	r3, r3, r2
 8002ed4:	009b      	lsls	r3, r3, #2
 8002ed6:	4403      	add	r3, r0
 8002ed8:	3344      	adds	r3, #68	@ 0x44
 8002eda:	6019      	str	r1, [r3, #0]
 8002edc:	78fa      	ldrb	r2, [r7, #3]
 8002ede:	6879      	ldr	r1, [r7, #4]
 8002ee0:	4613      	mov	r3, r2
 8002ee2:	011b      	lsls	r3, r3, #4
 8002ee4:	1a9b      	subs	r3, r3, r2
 8002ee6:	009b      	lsls	r3, r3, #2
 8002ee8:	440b      	add	r3, r1
 8002eea:	3344      	adds	r3, #68	@ 0x44
 8002eec:	681b      	ldr	r3, [r3, #0]
 8002eee:	2b02      	cmp	r3, #2
 8002ef0:	d922      	bls.n	8002f38 <HCD_HC_OUT_IRQHandler+0x4ec>
 8002ef2:	78fa      	ldrb	r2, [r7, #3]
 8002ef4:	6879      	ldr	r1, [r7, #4]
 8002ef6:	4613      	mov	r3, r2
 8002ef8:	011b      	lsls	r3, r3, #4
 8002efa:	1a9b      	subs	r3, r3, r2
 8002efc:	009b      	lsls	r3, r3, #2
 8002efe:	440b      	add	r3, r1
 8002f00:	3344      	adds	r3, #68	@ 0x44
 8002f02:	2200      	movs	r2, #0
 8002f04:	601a      	str	r2, [r3, #0]
 8002f06:	78fa      	ldrb	r2, [r7, #3]
 8002f08:	6879      	ldr	r1, [r7, #4]
 8002f0a:	4613      	mov	r3, r2
 8002f0c:	011b      	lsls	r3, r3, #4
 8002f0e:	1a9b      	subs	r3, r3, r2
 8002f10:	009b      	lsls	r3, r3, #2
 8002f12:	440b      	add	r3, r1
 8002f14:	334c      	adds	r3, #76	@ 0x4c
 8002f16:	2204      	movs	r2, #4
 8002f18:	701a      	strb	r2, [r3, #0]
 8002f1a:	78fa      	ldrb	r2, [r7, #3]
 8002f1c:	6879      	ldr	r1, [r7, #4]
 8002f1e:	4613      	mov	r3, r2
 8002f20:	011b      	lsls	r3, r3, #4
 8002f22:	1a9b      	subs	r3, r3, r2
 8002f24:	009b      	lsls	r3, r3, #2
 8002f26:	440b      	add	r3, r1
 8002f28:	334c      	adds	r3, #76	@ 0x4c
 8002f2a:	781a      	ldrb	r2, [r3, #0]
 8002f2c:	78fb      	ldrb	r3, [r7, #3]
 8002f2e:	4619      	mov	r1, r3
 8002f30:	6878      	ldr	r0, [r7, #4]
 8002f32:	f005 fa8d 	bl	8008450 <HAL_HCD_HC_NotifyURBChange_Callback>
 8002f36:	e009      	b.n	8002f4c <HCD_HC_OUT_IRQHandler+0x500>
 8002f38:	78fa      	ldrb	r2, [r7, #3]
 8002f3a:	6879      	ldr	r1, [r7, #4]
 8002f3c:	4613      	mov	r3, r2
 8002f3e:	011b      	lsls	r3, r3, #4
 8002f40:	1a9b      	subs	r3, r3, r2
 8002f42:	009b      	lsls	r3, r3, #2
 8002f44:	440b      	add	r3, r1
 8002f46:	334c      	adds	r3, #76	@ 0x4c
 8002f48:	2202      	movs	r2, #2
 8002f4a:	701a      	strb	r2, [r3, #0]
 8002f4c:	78fb      	ldrb	r3, [r7, #3]
 8002f4e:	015a      	lsls	r2, r3, #5
 8002f50:	693b      	ldr	r3, [r7, #16]
 8002f52:	4413      	add	r3, r2
 8002f54:	f503 63a0 	add.w	r3, r3, #1280	@ 0x500
 8002f58:	461a      	mov	r2, r3
 8002f5a:	2380      	movs	r3, #128	@ 0x80
 8002f5c:	6093      	str	r3, [r2, #8]
 8002f5e:	e217      	b.n	8003390 <HCD_HC_OUT_IRQHandler+0x944>
 8002f60:	687b      	ldr	r3, [r7, #4]
 8002f62:	681b      	ldr	r3, [r3, #0]
 8002f64:	78fa      	ldrb	r2, [r7, #3]
 8002f66:	4611      	mov	r1, r2
 8002f68:	4618      	mov	r0, r3
 8002f6a:	f002 f975 	bl	8005258 <USB_ReadChInterrupts>
 8002f6e:	4603      	mov	r3, r0
 8002f70:	f403 6380 	and.w	r3, r3, #1024	@ 0x400
 8002f74:	f5b3 6f80 	cmp.w	r3, #1024	@ 0x400
 8002f78:	d11b      	bne.n	8002fb2 <HCD_HC_OUT_IRQHandler+0x566>
 8002f7a:	78fa      	ldrb	r2, [r7, #3]
 8002f7c:	6879      	ldr	r1, [r7, #4]
 8002f7e:	4613      	mov	r3, r2
 8002f80:	011b      	lsls	r3, r3, #4
 8002f82:	1a9b      	subs	r3, r3, r2
 8002f84:	009b      	lsls	r3, r3, #2
 8002f86:	440b      	add	r3, r1
 8002f88:	334d      	adds	r3, #77	@ 0x4d
 8002f8a:	2209      	movs	r2, #9
 8002f8c:	701a      	strb	r2, [r3, #0]
 8002f8e:	687b      	ldr	r3, [r7, #4]
 8002f90:	681b      	ldr	r3, [r3, #0]
 8002f92:	78fa      	ldrb	r2, [r7, #3]
 8002f94:	4611      	mov	r1, r2
 8002f96:	4618      	mov	r0, r3
 8002f98:	f002 ff01 	bl	8005d9e <USB_HC_Halt>
 8002f9c:	78fb      	ldrb	r3, [r7, #3]
 8002f9e:	015a      	lsls	r2, r3, #5
 8002fa0:	693b      	ldr	r3, [r7, #16]
 8002fa2:	4413      	add	r3, r2
 8002fa4:	f503 63a0 	add.w	r3, r3, #1280	@ 0x500
 8002fa8:	461a      	mov	r2, r3
 8002faa:	f44f 6380 	mov.w	r3, #1024	@ 0x400
 8002fae:	6093      	str	r3, [r2, #8]
 8002fb0:	e1ee      	b.n	8003390 <HCD_HC_OUT_IRQHandler+0x944>
 8002fb2:	687b      	ldr	r3, [r7, #4]
 8002fb4:	681b      	ldr	r3, [r3, #0]
 8002fb6:	78fa      	ldrb	r2, [r7, #3]
 8002fb8:	4611      	mov	r1, r2
 8002fba:	4618      	mov	r0, r3
 8002fbc:	f002 f94c 	bl	8005258 <USB_ReadChInterrupts>
 8002fc0:	4603      	mov	r3, r0
 8002fc2:	f003 0302 	and.w	r3, r3, #2
 8002fc6:	2b02      	cmp	r3, #2
 8002fc8:	f040 81df 	bne.w	800338a <HCD_HC_OUT_IRQHandler+0x93e>
 8002fcc:	78fb      	ldrb	r3, [r7, #3]
 8002fce:	015a      	lsls	r2, r3, #5
 8002fd0:	693b      	ldr	r3, [r7, #16]
 8002fd2:	4413      	add	r3, r2
 8002fd4:	f503 63a0 	add.w	r3, r3, #1280	@ 0x500
 8002fd8:	461a      	mov	r2, r3
 8002fda:	2302      	movs	r3, #2
 8002fdc:	6093      	str	r3, [r2, #8]
 8002fde:	78fa      	ldrb	r2, [r7, #3]
 8002fe0:	6879      	ldr	r1, [r7, #4]
 8002fe2:	4613      	mov	r3, r2
 8002fe4:	011b      	lsls	r3, r3, #4
 8002fe6:	1a9b      	subs	r3, r3, r2
 8002fe8:	009b      	lsls	r3, r3, #2
 8002fea:	440b      	add	r3, r1
 8002fec:	334d      	adds	r3, #77	@ 0x4d
 8002fee:	781b      	ldrb	r3, [r3, #0]
 8002ff0:	2b01      	cmp	r3, #1
 8002ff2:	f040 8093 	bne.w	800311c <HCD_HC_OUT_IRQHandler+0x6d0>
 8002ff6:	78fa      	ldrb	r2, [r7, #3]
 8002ff8:	6879      	ldr	r1, [r7, #4]
 8002ffa:	4613      	mov	r3, r2
 8002ffc:	011b      	lsls	r3, r3, #4
 8002ffe:	1a9b      	subs	r3, r3, r2
 8003000:	009b      	lsls	r3, r3, #2
 8003002:	440b      	add	r3, r1
 8003004:	334d      	adds	r3, #77	@ 0x4d
 8003006:	2202      	movs	r2, #2
 8003008:	701a      	strb	r2, [r3, #0]
 800300a:	78fa      	ldrb	r2, [r7, #3]
 800300c:	6879      	ldr	r1, [r7, #4]
 800300e:	4613      	mov	r3, r2
 8003010:	011b      	lsls	r3, r3, #4
 8003012:	1a9b      	subs	r3, r3, r2
 8003014:	009b      	lsls	r3, r3, #2
 8003016:	440b      	add	r3, r1
 8003018:	334c      	adds	r3, #76	@ 0x4c
 800301a:	2201      	movs	r2, #1
 800301c:	701a      	strb	r2, [r3, #0]
 800301e:	78fa      	ldrb	r2, [r7, #3]
 8003020:	6879      	ldr	r1, [r7, #4]
 8003022:	4613      	mov	r3, r2
 8003024:	011b      	lsls	r3, r3, #4
 8003026:	1a9b      	subs	r3, r3, r2
 8003028:	009b      	lsls	r3, r3, #2
 800302a:	440b      	add	r3, r1
 800302c:	3326      	adds	r3, #38	@ 0x26
 800302e:	781b      	ldrb	r3, [r3, #0]
 8003030:	2b02      	cmp	r3, #2
 8003032:	d00b      	beq.n	800304c <HCD_HC_OUT_IRQHandler+0x600>
 8003034:	78fa      	ldrb	r2, [r7, #3]
 8003036:	6879      	ldr	r1, [r7, #4]
 8003038:	4613      	mov	r3, r2
 800303a:	011b      	lsls	r3, r3, #4
 800303c:	1a9b      	subs	r3, r3, r2
 800303e:	009b      	lsls	r3, r3, #2
 8003040:	440b      	add	r3, r1
 8003042:	3326      	adds	r3, #38	@ 0x26
 8003044:	781b      	ldrb	r3, [r3, #0]
 8003046:	2b03      	cmp	r3, #3
 8003048:	f040 8190 	bne.w	800336c <HCD_HC_OUT_IRQHandler+0x920>
 800304c:	687b      	ldr	r3, [r7, #4]
 800304e:	799b      	ldrb	r3, [r3, #6]
 8003050:	2b00      	cmp	r3, #0
 8003052:	d115      	bne.n	8003080 <HCD_HC_OUT_IRQHandler+0x634>
 8003054:	78fa      	ldrb	r2, [r7, #3]
 8003056:	6879      	ldr	r1, [r7, #4]
 8003058:	4613      	mov	r3, r2
 800305a:	011b      	lsls	r3, r3, #4
 800305c:	1a9b      	subs	r3, r3, r2
 800305e:	009b      	lsls	r3, r3, #2
 8003060:	440b      	add	r3, r1
 8003062:	333d      	adds	r3, #61	@ 0x3d
 8003064:	781b      	ldrb	r3, [r3, #0]
 8003066:	78fa      	ldrb	r2, [r7, #3]
 8003068:	f083 0301 	eor.w	r3, r3, #1
 800306c:	b2d8      	uxtb	r0, r3
 800306e:	6879      	ldr	r1, [r7, #4]
 8003070:	4613      	mov	r3, r2
 8003072:	011b      	lsls	r3, r3, #4
 8003074:	1a9b      	subs	r3, r3, r2
 8003076:	009b      	lsls	r3, r3, #2
 8003078:	440b      	add	r3, r1
 800307a:	333d      	adds	r3, #61	@ 0x3d
 800307c:	4602      	mov	r2, r0
 800307e:	701a      	strb	r2, [r3, #0]
 8003080:	687b      	ldr	r3, [r7, #4]
 8003082:	799b      	ldrb	r3, [r3, #6]
 8003084:	2b01      	cmp	r3, #1
 8003086:	f040 8171 	bne.w	800336c <HCD_HC_OUT_IRQHandler+0x920>
 800308a:	78fa      	ldrb	r2, [r7, #3]
 800308c:	6879      	ldr	r1, [r7, #4]
 800308e:	4613      	mov	r3, r2
 8003090:	011b      	lsls	r3, r3, #4
 8003092:	1a9b      	subs	r3, r3, r2
 8003094:	009b      	lsls	r3, r3, #2
 8003096:	440b      	add	r3, r1
 8003098:	3334      	adds	r3, #52	@ 0x34
 800309a:	681b      	ldr	r3, [r3, #0]
 800309c:	2b00      	cmp	r3, #0
 800309e:	f000 8165 	beq.w	800336c <HCD_HC_OUT_IRQHandler+0x920>
 80030a2:	78fa      	ldrb	r2, [r7, #3]
 80030a4:	6879      	ldr	r1, [r7, #4]
 80030a6:	4613      	mov	r3, r2
 80030a8:	011b      	lsls	r3, r3, #4
 80030aa:	1a9b      	subs	r3, r3, r2
 80030ac:	009b      	lsls	r3, r3, #2
 80030ae:	440b      	add	r3, r1
 80030b0:	3334      	adds	r3, #52	@ 0x34
 80030b2:	6819      	ldr	r1, [r3, #0]
 80030b4:	78fa      	ldrb	r2, [r7, #3]
 80030b6:	6878      	ldr	r0, [r7, #4]
 80030b8:	4613      	mov	r3, r2
 80030ba:	011b      	lsls	r3, r3, #4
 80030bc:	1a9b      	subs	r3, r3, r2
 80030be:	009b      	lsls	r3, r3, #2
 80030c0:	4403      	add	r3, r0
 80030c2:	3328      	adds	r3, #40	@ 0x28
 80030c4:	881b      	ldrh	r3, [r3, #0]
 80030c6:	440b      	add	r3, r1
 80030c8:	1e59      	subs	r1, r3, #1
 80030ca:	78fa      	ldrb	r2, [r7, #3]
 80030cc:	6878      	ldr	r0, [r7, #4]
 80030ce:	4613      	mov	r3, r2
 80030d0:	011b      	lsls	r3, r3, #4
 80030d2:	1a9b      	subs	r3, r3, r2
 80030d4:	009b      	lsls	r3, r3, #2
 80030d6:	4403      	add	r3, r0
 80030d8:	3328      	adds	r3, #40	@ 0x28
 80030da:	881b      	ldrh	r3, [r3, #0]
 80030dc:	fbb1 f3f3 	udiv	r3, r1, r3
 80030e0:	60bb      	str	r3, [r7, #8]
 80030e2:	68bb      	ldr	r3, [r7, #8]
 80030e4:	f003 0301 	and.w	r3, r3, #1
 80030e8:	2b00      	cmp	r3, #0
 80030ea:	f000 813f 	beq.w	800336c <HCD_HC_OUT_IRQHandler+0x920>
 80030ee:	78fa      	ldrb	r2, [r7, #3]
 80030f0:	6879      	ldr	r1, [r7, #4]
 80030f2:	4613      	mov	r3, r2
 80030f4:	011b      	lsls	r3, r3, #4
 80030f6:	1a9b      	subs	r3, r3, r2
 80030f8:	009b      	lsls	r3, r3, #2
 80030fa:	440b      	add	r3, r1
 80030fc:	333d      	adds	r3, #61	@ 0x3d
 80030fe:	781b      	ldrb	r3, [r3, #0]
 8003100:	78fa      	ldrb	r2, [r7, #3]
 8003102:	f083 0301 	eor.w	r3, r3, #1
 8003106:	b2d8      	uxtb	r0, r3
 8003108:	6879      	ldr	r1, [r7, #4]
 800310a:	4613      	mov	r3, r2
 800310c:	011b      	lsls	r3, r3, #4
 800310e:	1a9b      	subs	r3, r3, r2
 8003110:	009b      	lsls	r3, r3, #2
 8003112:	440b      	add	r3, r1
 8003114:	333d      	adds	r3, #61	@ 0x3d
 8003116:	4602      	mov	r2, r0
 8003118:	701a      	strb	r2, [r3, #0]
 800311a:	e127      	b.n	800336c <HCD_HC_OUT_IRQHandler+0x920>
 800311c:	78fa      	ldrb	r2, [r7, #3]
 800311e:	6879      	ldr	r1, [r7, #4]
 8003120:	4613      	mov	r3, r2
 8003122:	011b      	lsls	r3, r3, #4
 8003124:	1a9b      	subs	r3, r3, r2
 8003126:	009b      	lsls	r3, r3, #2
 8003128:	440b      	add	r3, r1
 800312a:	334d      	adds	r3, #77	@ 0x4d
 800312c:	781b      	ldrb	r3, [r3, #0]
 800312e:	2b03      	cmp	r3, #3
 8003130:	d120      	bne.n	8003174 <HCD_HC_OUT_IRQHandler+0x728>
 8003132:	78fa      	ldrb	r2, [r7, #3]
 8003134:	6879      	ldr	r1, [r7, #4]
 8003136:	4613      	mov	r3, r2
 8003138:	011b      	lsls	r3, r3, #4
 800313a:	1a9b      	subs	r3, r3, r2
 800313c:	009b      	lsls	r3, r3, #2
 800313e:	440b      	add	r3, r1
 8003140:	334d      	adds	r3, #77	@ 0x4d
 8003142:	2202      	movs	r2, #2
 8003144:	701a      	strb	r2, [r3, #0]
 8003146:	78fa      	ldrb	r2, [r7, #3]
 8003148:	6879      	ldr	r1, [r7, #4]
 800314a:	4613      	mov	r3, r2
 800314c:	011b      	lsls	r3, r3, #4
 800314e:	1a9b      	subs	r3, r3, r2
 8003150:	009b      	lsls	r3, r3, #2
 8003152:	440b      	add	r3, r1
 8003154:	331b      	adds	r3, #27
 8003156:	781b      	ldrb	r3, [r3, #0]
 8003158:	2b01      	cmp	r3, #1
 800315a:	f040 8107 	bne.w	800336c <HCD_HC_OUT_IRQHandler+0x920>
 800315e:	78fa      	ldrb	r2, [r7, #3]
 8003160:	6879      	ldr	r1, [r7, #4]
 8003162:	4613      	mov	r3, r2
 8003164:	011b      	lsls	r3, r3, #4
 8003166:	1a9b      	subs	r3, r3, r2
 8003168:	009b      	lsls	r3, r3, #2
 800316a:	440b      	add	r3, r1
 800316c:	334c      	adds	r3, #76	@ 0x4c
 800316e:	2202      	movs	r2, #2
 8003170:	701a      	strb	r2, [r3, #0]
 8003172:	e0fb      	b.n	800336c <HCD_HC_OUT_IRQHandler+0x920>
 8003174:	78fa      	ldrb	r2, [r7, #3]
 8003176:	6879      	ldr	r1, [r7, #4]
 8003178:	4613      	mov	r3, r2
 800317a:	011b      	lsls	r3, r3, #4
 800317c:	1a9b      	subs	r3, r3, r2
 800317e:	009b      	lsls	r3, r3, #2
 8003180:	440b      	add	r3, r1
 8003182:	334d      	adds	r3, #77	@ 0x4d
 8003184:	781b      	ldrb	r3, [r3, #0]
 8003186:	2b04      	cmp	r3, #4
 8003188:	d13a      	bne.n	8003200 <HCD_HC_OUT_IRQHandler+0x7b4>
 800318a:	78fa      	ldrb	r2, [r7, #3]
 800318c:	6879      	ldr	r1, [r7, #4]
 800318e:	4613      	mov	r3, r2
 8003190:	011b      	lsls	r3, r3, #4
 8003192:	1a9b      	subs	r3, r3, r2
 8003194:	009b      	lsls	r3, r3, #2
 8003196:	440b      	add	r3, r1
 8003198:	334d      	adds	r3, #77	@ 0x4d
 800319a:	2202      	movs	r2, #2
 800319c:	701a      	strb	r2, [r3, #0]
 800319e:	78fa      	ldrb	r2, [r7, #3]
 80031a0:	6879      	ldr	r1, [r7, #4]
 80031a2:	4613      	mov	r3, r2
 80031a4:	011b      	lsls	r3, r3, #4
 80031a6:	1a9b      	subs	r3, r3, r2
 80031a8:	009b      	lsls	r3, r3, #2
 80031aa:	440b      	add	r3, r1
 80031ac:	334c      	adds	r3, #76	@ 0x4c
 80031ae:	2202      	movs	r2, #2
 80031b0:	701a      	strb	r2, [r3, #0]
 80031b2:	78fa      	ldrb	r2, [r7, #3]
 80031b4:	6879      	ldr	r1, [r7, #4]
 80031b6:	4613      	mov	r3, r2
 80031b8:	011b      	lsls	r3, r3, #4
 80031ba:	1a9b      	subs	r3, r3, r2
 80031bc:	009b      	lsls	r3, r3, #2
 80031be:	440b      	add	r3, r1
 80031c0:	331b      	adds	r3, #27
 80031c2:	781b      	ldrb	r3, [r3, #0]
 80031c4:	2b01      	cmp	r3, #1
 80031c6:	f040 80d1 	bne.w	800336c <HCD_HC_OUT_IRQHandler+0x920>
 80031ca:	78fa      	ldrb	r2, [r7, #3]
 80031cc:	6879      	ldr	r1, [r7, #4]
 80031ce:	4613      	mov	r3, r2
 80031d0:	011b      	lsls	r3, r3, #4
 80031d2:	1a9b      	subs	r3, r3, r2
 80031d4:	009b      	lsls	r3, r3, #2
 80031d6:	440b      	add	r3, r1
 80031d8:	331b      	adds	r3, #27
 80031da:	2200      	movs	r2, #0
 80031dc:	701a      	strb	r2, [r3, #0]
 80031de:	78fb      	ldrb	r3, [r7, #3]
 80031e0:	015a      	lsls	r2, r3, #5
 80031e2:	693b      	ldr	r3, [r7, #16]
 80031e4:	4413      	add	r3, r2
 80031e6:	f503 63a0 	add.w	r3, r3, #1280	@ 0x500
 80031ea:	685b      	ldr	r3, [r3, #4]
 80031ec:	78fa      	ldrb	r2, [r7, #3]
 80031ee:	0151      	lsls	r1, r2, #5
 80031f0:	693a      	ldr	r2, [r7, #16]
 80031f2:	440a      	add	r2, r1
 80031f4:	f502 62a0 	add.w	r2, r2, #1280	@ 0x500
 80031f8:	f423 3380 	bic.w	r3, r3, #65536	@ 0x10000
 80031fc:	6053      	str	r3, [r2, #4]
 80031fe:	e0b5      	b.n	800336c <HCD_HC_OUT_IRQHandler+0x920>
 8003200:	78fa      	ldrb	r2, [r7, #3]
 8003202:	6879      	ldr	r1, [r7, #4]
 8003204:	4613      	mov	r3, r2
 8003206:	011b      	lsls	r3, r3, #4
 8003208:	1a9b      	subs	r3, r3, r2
 800320a:	009b      	lsls	r3, r3, #2
 800320c:	440b      	add	r3, r1
 800320e:	334d      	adds	r3, #77	@ 0x4d
 8003210:	781b      	ldrb	r3, [r3, #0]
 8003212:	2b05      	cmp	r3, #5
 8003214:	d114      	bne.n	8003240 <HCD_HC_OUT_IRQHandler+0x7f4>
 8003216:	78fa      	ldrb	r2, [r7, #3]
 8003218:	6879      	ldr	r1, [r7, #4]
 800321a:	4613      	mov	r3, r2
 800321c:	011b      	lsls	r3, r3, #4
 800321e:	1a9b      	subs	r3, r3, r2
 8003220:	009b      	lsls	r3, r3, #2
 8003222:	440b      	add	r3, r1
 8003224:	334d      	adds	r3, #77	@ 0x4d
 8003226:	2202      	movs	r2, #2
 8003228:	701a      	strb	r2, [r3, #0]
 800322a:	78fa      	ldrb	r2, [r7, #3]
 800322c:	6879      	ldr	r1, [r7, #4]
 800322e:	4613      	mov	r3, r2
 8003230:	011b      	lsls	r3, r3, #4
 8003232:	1a9b      	subs	r3, r3, r2
 8003234:	009b      	lsls	r3, r3, #2
 8003236:	440b      	add	r3, r1
 8003238:	334c      	adds	r3, #76	@ 0x4c
 800323a:	2202      	movs	r2, #2
 800323c:	701a      	strb	r2, [r3, #0]
 800323e:	e095      	b.n	800336c <HCD_HC_OUT_IRQHandler+0x920>
 8003240:	78fa      	ldrb	r2, [r7, #3]
 8003242:	6879      	ldr	r1, [r7, #4]
 8003244:	4613      	mov	r3, r2
 8003246:	011b      	lsls	r3, r3, #4
 8003248:	1a9b      	subs	r3, r3, r2
 800324a:	009b      	lsls	r3, r3, #2
 800324c:	440b      	add	r3, r1
 800324e:	334d      	adds	r3, #77	@ 0x4d
 8003250:	781b      	ldrb	r3, [r3, #0]
 8003252:	2b06      	cmp	r3, #6
 8003254:	d114      	bne.n	8003280 <HCD_HC_OUT_IRQHandler+0x834>
 8003256:	78fa      	ldrb	r2, [r7, #3]
 8003258:	6879      	ldr	r1, [r7, #4]
 800325a:	4613      	mov	r3, r2
 800325c:	011b      	lsls	r3, r3, #4
 800325e:	1a9b      	subs	r3, r3, r2
 8003260:	009b      	lsls	r3, r3, #2
 8003262:	440b      	add	r3, r1
 8003264:	334d      	adds	r3, #77	@ 0x4d
 8003266:	2202      	movs	r2, #2
 8003268:	701a      	strb	r2, [r3, #0]
 800326a:	78fa      	ldrb	r2, [r7, #3]
 800326c:	6879      	ldr	r1, [r7, #4]
 800326e:	4613      	mov	r3, r2
 8003270:	011b      	lsls	r3, r3, #4
 8003272:	1a9b      	subs	r3, r3, r2
 8003274:	009b      	lsls	r3, r3, #2
 8003276:	440b      	add	r3, r1
 8003278:	334c      	adds	r3, #76	@ 0x4c
 800327a:	2205      	movs	r2, #5
 800327c:	701a      	strb	r2, [r3, #0]
 800327e:	e075      	b.n	800336c <HCD_HC_OUT_IRQHandler+0x920>
 8003280:	78fa      	ldrb	r2, [r7, #3]
 8003282:	6879      	ldr	r1, [r7, #4]
 8003284:	4613      	mov	r3, r2
 8003286:	011b      	lsls	r3, r3, #4
 8003288:	1a9b      	subs	r3, r3, r2
 800328a:	009b      	lsls	r3, r3, #2
 800328c:	440b      	add	r3, r1
 800328e:	334d      	adds	r3, #77	@ 0x4d
 8003290:	781b      	ldrb	r3, [r3, #0]
 8003292:	2b07      	cmp	r3, #7
 8003294:	d00a      	beq.n	80032ac <HCD_HC_OUT_IRQHandler+0x860>
 8003296:	78fa      	ldrb	r2, [r7, #3]
 8003298:	6879      	ldr	r1, [r7, #4]
 800329a:	4613      	mov	r3, r2
 800329c:	011b      	lsls	r3, r3, #4
 800329e:	1a9b      	subs	r3, r3, r2
 80032a0:	009b      	lsls	r3, r3, #2
 80032a2:	440b      	add	r3, r1
 80032a4:	334d      	adds	r3, #77	@ 0x4d
 80032a6:	781b      	ldrb	r3, [r3, #0]
 80032a8:	2b09      	cmp	r3, #9
 80032aa:	d170      	bne.n	800338e <HCD_HC_OUT_IRQHandler+0x942>
 80032ac:	78fa      	ldrb	r2, [r7, #3]
 80032ae:	6879      	ldr	r1, [r7, #4]
 80032b0:	4613      	mov	r3, r2
 80032b2:	011b      	lsls	r3, r3, #4
 80032b4:	1a9b      	subs	r3, r3, r2
 80032b6:	009b      	lsls	r3, r3, #2
 80032b8:	440b      	add	r3, r1
 80032ba:	334d      	adds	r3, #77	@ 0x4d
 80032bc:	2202      	movs	r2, #2
 80032be:	701a      	strb	r2, [r3, #0]
 80032c0:	78fa      	ldrb	r2, [r7, #3]
 80032c2:	6879      	ldr	r1, [r7, #4]
 80032c4:	4613      	mov	r3, r2
 80032c6:	011b      	lsls	r3, r3, #4
 80032c8:	1a9b      	subs	r3, r3, r2
 80032ca:	009b      	lsls	r3, r3, #2
 80032cc:	440b      	add	r3, r1
 80032ce:	3344      	adds	r3, #68	@ 0x44
 80032d0:	681b      	ldr	r3, [r3, #0]
 80032d2:	1c59      	adds	r1, r3, #1
 80032d4:	6878      	ldr	r0, [r7, #4]
 80032d6:	4613      	mov	r3, r2
 80032d8:	011b      	lsls	r3, r3, #4
 80032da:	1a9b      	subs	r3, r3, r2
 80032dc:	009b      	lsls	r3, r3, #2
 80032de:	4403      	add	r3, r0
 80032e0:	3344      	adds	r3, #68	@ 0x44
 80032e2:	6019      	str	r1, [r3, #0]
 80032e4:	78fa      	ldrb	r2, [r7, #3]
 80032e6:	6879      	ldr	r1, [r7, #4]
 80032e8:	4613      	mov	r3, r2
 80032ea:	011b      	lsls	r3, r3, #4
 80032ec:	1a9b      	subs	r3, r3, r2
 80032ee:	009b      	lsls	r3, r3, #2
 80032f0:	440b      	add	r3, r1
 80032f2:	3344      	adds	r3, #68	@ 0x44
 80032f4:	681b      	ldr	r3, [r3, #0]
 80032f6:	2b02      	cmp	r3, #2
 80032f8:	d914      	bls.n	8003324 <HCD_HC_OUT_IRQHandler+0x8d8>
 80032fa:	78fa      	ldrb	r2, [r7, #3]
 80032fc:	6879      	ldr	r1, [r7, #4]
 80032fe:	4613      	mov	r3, r2
 8003300:	011b      	lsls	r3, r3, #4
 8003302:	1a9b      	subs	r3, r3, r2
 8003304:	009b      	lsls	r3, r3, #2
 8003306:	440b      	add	r3, r1
 8003308:	3344      	adds	r3, #68	@ 0x44
 800330a:	2200      	movs	r2, #0
 800330c:	601a      	str	r2, [r3, #0]
 800330e:	78fa      	ldrb	r2, [r7, #3]
 8003310:	6879      	ldr	r1, [r7, #4]
 8003312:	4613      	mov	r3, r2
 8003314:	011b      	lsls	r3, r3, #4
 8003316:	1a9b      	subs	r3, r3, r2
 8003318:	009b      	lsls	r3, r3, #2
 800331a:	440b      	add	r3, r1
 800331c:	334c      	adds	r3, #76	@ 0x4c
 800331e:	2204      	movs	r2, #4
 8003320:	701a      	strb	r2, [r3, #0]
 8003322:	e022      	b.n	800336a <HCD_HC_OUT_IRQHandler+0x91e>
 8003324:	78fa      	ldrb	r2, [r7, #3]
 8003326:	6879      	ldr	r1, [r7, #4]
 8003328:	4613      	mov	r3, r2
 800332a:	011b      	lsls	r3, r3, #4
 800332c:	1a9b      	subs	r3, r3, r2
 800332e:	009b      	lsls	r3, r3, #2
 8003330:	440b      	add	r3, r1
 8003332:	334c      	adds	r3, #76	@ 0x4c
 8003334:	2202      	movs	r2, #2
 8003336:	701a      	strb	r2, [r3, #0]
 8003338:	78fb      	ldrb	r3, [r7, #3]
 800333a:	015a      	lsls	r2, r3, #5
 800333c:	693b      	ldr	r3, [r7, #16]
 800333e:	4413      	add	r3, r2
 8003340:	f503 63a0 	add.w	r3, r3, #1280	@ 0x500
 8003344:	681b      	ldr	r3, [r3, #0]
 8003346:	60fb      	str	r3, [r7, #12]
 8003348:	68fb      	ldr	r3, [r7, #12]
 800334a:	f023 4380 	bic.w	r3, r3, #1073741824	@ 0x40000000
 800334e:	60fb      	str	r3, [r7, #12]
 8003350:	68fb      	ldr	r3, [r7, #12]
 8003352:	f043 4300 	orr.w	r3, r3, #2147483648	@ 0x80000000
 8003356:	60fb      	str	r3, [r7, #12]
 8003358:	78fb      	ldrb	r3, [r7, #3]
 800335a:	015a      	lsls	r2, r3, #5
 800335c:	693b      	ldr	r3, [r7, #16]
 800335e:	4413      	add	r3, r2
 8003360:	f503 63a0 	add.w	r3, r3, #1280	@ 0x500
 8003364:	461a      	mov	r2, r3
 8003366:	68fb      	ldr	r3, [r7, #12]
 8003368:	6013      	str	r3, [r2, #0]
 800336a:	bf00      	nop
 800336c:	78fa      	ldrb	r2, [r7, #3]
 800336e:	6879      	ldr	r1, [r7, #4]
 8003370:	4613      	mov	r3, r2
 8003372:	011b      	lsls	r3, r3, #4
 8003374:	1a9b      	subs	r3, r3, r2
 8003376:	009b      	lsls	r3, r3, #2
 8003378:	440b      	add	r3, r1
 800337a:	334c      	adds	r3, #76	@ 0x4c
 800337c:	781a      	ldrb	r2, [r3, #0]
 800337e:	78fb      	ldrb	r3, [r7, #3]
 8003380:	4619      	mov	r1, r3
 8003382:	6878      	ldr	r0, [r7, #4]
 8003384:	f005 f864 	bl	8008450 <HAL_HCD_HC_NotifyURBChange_Callback>
 8003388:	e002      	b.n	8003390 <HCD_HC_OUT_IRQHandler+0x944>
 800338a:	bf00      	nop
 800338c:	e000      	b.n	8003390 <HCD_HC_OUT_IRQHandler+0x944>
 800338e:	bf00      	nop
 8003390:	3718      	adds	r7, #24
 8003392:	46bd      	mov	sp, r7
 8003394:	bd80      	pop	{r7, pc}

08003396 <HCD_RXQLVL_IRQHandler>:
 8003396:	b580      	push	{r7, lr}
 8003398:	b08a      	sub	sp, #40	@ 0x28
 800339a:	af00      	add	r7, sp, #0
 800339c:	6078      	str	r0, [r7, #4]
 800339e:	687b      	ldr	r3, [r7, #4]
 80033a0:	681b      	ldr	r3, [r3, #0]
 80033a2:	627b      	str	r3, [r7, #36]	@ 0x24
 80033a4:	6a7b      	ldr	r3, [r7, #36]	@ 0x24
 80033a6:	623b      	str	r3, [r7, #32]
 80033a8:	687b      	ldr	r3, [r7, #4]
 80033aa:	681b      	ldr	r3, [r3, #0]
 80033ac:	6a1b      	ldr	r3, [r3, #32]
 80033ae:	61fb      	str	r3, [r7, #28]
 80033b0:	69fb      	ldr	r3, [r7, #28]
 80033b2:	f003 030f 	and.w	r3, r3, #15
 80033b6:	61bb      	str	r3, [r7, #24]
 80033b8:	69fb      	ldr	r3, [r7, #28]
 80033ba:	0c5b      	lsrs	r3, r3, #17
 80033bc:	f003 030f 	and.w	r3, r3, #15
 80033c0:	617b      	str	r3, [r7, #20]
 80033c2:	69fb      	ldr	r3, [r7, #28]
 80033c4:	091b      	lsrs	r3, r3, #4
 80033c6:	f3c3 030a 	ubfx	r3, r3, #0, #11
 80033ca:	613b      	str	r3, [r7, #16]
 80033cc:	697b      	ldr	r3, [r7, #20]
 80033ce:	2b02      	cmp	r3, #2
 80033d0:	d004      	beq.n	80033dc <HCD_RXQLVL_IRQHandler+0x46>
 80033d2:	697b      	ldr	r3, [r7, #20]
 80033d4:	2b05      	cmp	r3, #5
 80033d6:	f000 80b6 	beq.w	8003546 <HCD_RXQLVL_IRQHandler+0x1b0>
 80033da:	e0b7      	b.n	800354c <HCD_RXQLVL_IRQHandler+0x1b6>
 80033dc:	693b      	ldr	r3, [r7, #16]
 80033de:	2b00      	cmp	r3, #0
 80033e0:	f000 80b3 	beq.w	800354a <HCD_RXQLVL_IRQHandler+0x1b4>
 80033e4:	6879      	ldr	r1, [r7, #4]
 80033e6:	69ba      	ldr	r2, [r7, #24]
 80033e8:	4613      	mov	r3, r2
 80033ea:	011b      	lsls	r3, r3, #4
 80033ec:	1a9b      	subs	r3, r3, r2
 80033ee:	009b      	lsls	r3, r3, #2
 80033f0:	440b      	add	r3, r1
 80033f2:	332c      	adds	r3, #44	@ 0x2c
 80033f4:	681b      	ldr	r3, [r3, #0]
 80033f6:	2b00      	cmp	r3, #0
 80033f8:	f000 80a7 	beq.w	800354a <HCD_RXQLVL_IRQHandler+0x1b4>
 80033fc:	6879      	ldr	r1, [r7, #4]
 80033fe:	69ba      	ldr	r2, [r7, #24]
 8003400:	4613      	mov	r3, r2
 8003402:	011b      	lsls	r3, r3, #4
 8003404:	1a9b      	subs	r3, r3, r2
 8003406:	009b      	lsls	r3, r3, #2
 8003408:	440b      	add	r3, r1
 800340a:	3338      	adds	r3, #56	@ 0x38
 800340c:	681a      	ldr	r2, [r3, #0]
 800340e:	693b      	ldr	r3, [r7, #16]
 8003410:	18d1      	adds	r1, r2, r3
 8003412:	6878      	ldr	r0, [r7, #4]
 8003414:	69ba      	ldr	r2, [r7, #24]
 8003416:	4613      	mov	r3, r2
 8003418:	011b      	lsls	r3, r3, #4
 800341a:	1a9b      	subs	r3, r3, r2
 800341c:	009b      	lsls	r3, r3, #2
 800341e:	4403      	add	r3, r0
 8003420:	3334      	adds	r3, #52	@ 0x34
 8003422:	681b      	ldr	r3, [r3, #0]
 8003424:	4299      	cmp	r1, r3
 8003426:	f200 8083 	bhi.w	8003530 <HCD_RXQLVL_IRQHandler+0x19a>
 800342a:	687b      	ldr	r3, [r7, #4]
 800342c:	6818      	ldr	r0, [r3, #0]
 800342e:	6879      	ldr	r1, [r7, #4]
 8003430:	69ba      	ldr	r2, [r7, #24]
 8003432:	4613      	mov	r3, r2
 8003434:	011b      	lsls	r3, r3, #4
 8003436:	1a9b      	subs	r3, r3, r2
 8003438:	009b      	lsls	r3, r3, #2
 800343a:	440b      	add	r3, r1
 800343c:	332c      	adds	r3, #44	@ 0x2c
 800343e:	681b      	ldr	r3, [r3, #0]
 8003440:	693a      	ldr	r2, [r7, #16]
 8003442:	b292      	uxth	r2, r2
 8003444:	4619      	mov	r1, r3
 8003446:	f001 fe9c 	bl	8005182 <USB_ReadPacket>
 800344a:	6879      	ldr	r1, [r7, #4]
 800344c:	69ba      	ldr	r2, [r7, #24]
 800344e:	4613      	mov	r3, r2
 8003450:	011b      	lsls	r3, r3, #4
 8003452:	1a9b      	subs	r3, r3, r2
 8003454:	009b      	lsls	r3, r3, #2
 8003456:	440b      	add	r3, r1
 8003458:	332c      	adds	r3, #44	@ 0x2c
 800345a:	681a      	ldr	r2, [r3, #0]
 800345c:	693b      	ldr	r3, [r7, #16]
 800345e:	18d1      	adds	r1, r2, r3
 8003460:	6878      	ldr	r0, [r7, #4]
 8003462:	69ba      	ldr	r2, [r7, #24]
 8003464:	4613      	mov	r3, r2
 8003466:	011b      	lsls	r3, r3, #4
 8003468:	1a9b      	subs	r3, r3, r2
 800346a:	009b      	lsls	r3, r3, #2
 800346c:	4403      	add	r3, r0
 800346e:	332c      	adds	r3, #44	@ 0x2c
 8003470:	6019      	str	r1, [r3, #0]
 8003472:	6879      	ldr	r1, [r7, #4]
 8003474:	69ba      	ldr	r2, [r7, #24]
 8003476:	4613      	mov	r3, r2
 8003478:	011b      	lsls	r3, r3, #4
 800347a:	1a9b      	subs	r3, r3, r2
 800347c:	009b      	lsls	r3, r3, #2
 800347e:	440b      	add	r3, r1
 8003480:	3338      	adds	r3, #56	@ 0x38
 8003482:	681a      	ldr	r2, [r3, #0]
 8003484:	693b      	ldr	r3, [r7, #16]
 8003486:	18d1      	adds	r1, r2, r3
 8003488:	6878      	ldr	r0, [r7, #4]
 800348a:	69ba      	ldr	r2, [r7, #24]
 800348c:	4613      	mov	r3, r2
 800348e:	011b      	lsls	r3, r3, #4
 8003490:	1a9b      	subs	r3, r3, r2
 8003492:	009b      	lsls	r3, r3, #2
 8003494:	4403      	add	r3, r0
 8003496:	3338      	adds	r3, #56	@ 0x38
 8003498:	6019      	str	r1, [r3, #0]
 800349a:	69bb      	ldr	r3, [r7, #24]
 800349c:	015a      	lsls	r2, r3, #5
 800349e:	6a3b      	ldr	r3, [r7, #32]
 80034a0:	4413      	add	r3, r2
 80034a2:	f503 63a0 	add.w	r3, r3, #1280	@ 0x500
 80034a6:	691b      	ldr	r3, [r3, #16]
 80034a8:	0cdb      	lsrs	r3, r3, #19
 80034aa:	f3c3 0309 	ubfx	r3, r3, #0, #10
 80034ae:	60fb      	str	r3, [r7, #12]
 80034b0:	6879      	ldr	r1, [r7, #4]
 80034b2:	69ba      	ldr	r2, [r7, #24]
 80034b4:	4613      	mov	r3, r2
 80034b6:	011b      	lsls	r3, r3, #4
 80034b8:	1a9b      	subs	r3, r3, r2
 80034ba:	009b      	lsls	r3, r3, #2
 80034bc:	440b      	add	r3, r1
 80034be:	3328      	adds	r3, #40	@ 0x28
 80034c0:	881b      	ldrh	r3, [r3, #0]
 80034c2:	461a      	mov	r2, r3
 80034c4:	693b      	ldr	r3, [r7, #16]
 80034c6:	4293      	cmp	r3, r2
 80034c8:	d13f      	bne.n	800354a <HCD_RXQLVL_IRQHandler+0x1b4>
 80034ca:	68fb      	ldr	r3, [r7, #12]
 80034cc:	2b00      	cmp	r3, #0
 80034ce:	d03c      	beq.n	800354a <HCD_RXQLVL_IRQHandler+0x1b4>
 80034d0:	69bb      	ldr	r3, [r7, #24]
 80034d2:	015a      	lsls	r2, r3, #5
 80034d4:	6a3b      	ldr	r3, [r7, #32]
 80034d6:	4413      	add	r3, r2
 80034d8:	f503 63a0 	add.w	r3, r3, #1280	@ 0x500
 80034dc:	681b      	ldr	r3, [r3, #0]
 80034de:	60bb      	str	r3, [r7, #8]
 80034e0:	68bb      	ldr	r3, [r7, #8]
 80034e2:	f023 4380 	bic.w	r3, r3, #1073741824	@ 0x40000000
 80034e6:	60bb      	str	r3, [r7, #8]
 80034e8:	68bb      	ldr	r3, [r7, #8]
 80034ea:	f043 4300 	orr.w	r3, r3, #2147483648	@ 0x80000000
 80034ee:	60bb      	str	r3, [r7, #8]
 80034f0:	69bb      	ldr	r3, [r7, #24]
 80034f2:	015a      	lsls	r2, r3, #5
 80034f4:	6a3b      	ldr	r3, [r7, #32]
 80034f6:	4413      	add	r3, r2
 80034f8:	f503 63a0 	add.w	r3, r3, #1280	@ 0x500
 80034fc:	461a      	mov	r2, r3
 80034fe:	68bb      	ldr	r3, [r7, #8]
 8003500:	6013      	str	r3, [r2, #0]
 8003502:	6879      	ldr	r1, [r7, #4]
 8003504:	69ba      	ldr	r2, [r7, #24]
 8003506:	4613      	mov	r3, r2
 8003508:	011b      	lsls	r3, r3, #4
 800350a:	1a9b      	subs	r3, r3, r2
 800350c:	009b      	lsls	r3, r3, #2
 800350e:	440b      	add	r3, r1
 8003510:	333c      	adds	r3, #60	@ 0x3c
 8003512:	781b      	ldrb	r3, [r3, #0]
 8003514:	f083 0301 	eor.w	r3, r3, #1
 8003518:	b2d8      	uxtb	r0, r3
 800351a:	6879      	ldr	r1, [r7, #4]
 800351c:	69ba      	ldr	r2, [r7, #24]
 800351e:	4613      	mov	r3, r2
 8003520:	011b      	lsls	r3, r3, #4
 8003522:	1a9b      	subs	r3, r3, r2
 8003524:	009b      	lsls	r3, r3, #2
 8003526:	440b      	add	r3, r1
 8003528:	333c      	adds	r3, #60	@ 0x3c
 800352a:	4602      	mov	r2, r0
 800352c:	701a      	strb	r2, [r3, #0]
 800352e:	e00c      	b.n	800354a <HCD_RXQLVL_IRQHandler+0x1b4>
 8003530:	6879      	ldr	r1, [r7, #4]
 8003532:	69ba      	ldr	r2, [r7, #24]
 8003534:	4613      	mov	r3, r2
 8003536:	011b      	lsls	r3, r3, #4
 8003538:	1a9b      	subs	r3, r3, r2
 800353a:	009b      	lsls	r3, r3, #2
 800353c:	440b      	add	r3, r1
 800353e:	334c      	adds	r3, #76	@ 0x4c
 8003540:	2204      	movs	r2, #4
 8003542:	701a      	strb	r2, [r3, #0]
 8003544:	e001      	b.n	800354a <HCD_RXQLVL_IRQHandler+0x1b4>
 8003546:	bf00      	nop
 8003548:	e000      	b.n	800354c <HCD_RXQLVL_IRQHandler+0x1b6>
 800354a:	bf00      	nop
 800354c:	bf00      	nop
 800354e:	3728      	adds	r7, #40	@ 0x28
 8003550:	46bd      	mov	sp, r7
 8003552:	bd80      	pop	{r7, pc}

08003554 <HCD_Port_IRQHandler>:
 8003554:	b580      	push	{r7, lr}
 8003556:	b086      	sub	sp, #24
 8003558:	af00      	add	r7, sp, #0
 800355a:	6078      	str	r0, [r7, #4]
 800355c:	687b      	ldr	r3, [r7, #4]
 800355e:	681b      	ldr	r3, [r3, #0]
 8003560:	617b      	str	r3, [r7, #20]
 8003562:	697b      	ldr	r3, [r7, #20]
 8003564:	613b      	str	r3, [r7, #16]
 8003566:	693b      	ldr	r3, [r7, #16]
 8003568:	f503 6388 	add.w	r3, r3, #1088	@ 0x440
 800356c:	681b      	ldr	r3, [r3, #0]
 800356e:	60fb      	str	r3, [r7, #12]
 8003570:	693b      	ldr	r3, [r7, #16]
 8003572:	f503 6388 	add.w	r3, r3, #1088	@ 0x440
 8003576:	681b      	ldr	r3, [r3, #0]
 8003578:	60bb      	str	r3, [r7, #8]
 800357a:	68bb      	ldr	r3, [r7, #8]
 800357c:	f023 032e 	bic.w	r3, r3, #46	@ 0x2e
 8003580:	60bb      	str	r3, [r7, #8]
 8003582:	68fb      	ldr	r3, [r7, #12]
 8003584:	f003 0302 	and.w	r3, r3, #2
 8003588:	2b02      	cmp	r3, #2
 800358a:	d10b      	bne.n	80035a4 <HCD_Port_IRQHandler+0x50>
 800358c:	68fb      	ldr	r3, [r7, #12]
 800358e:	f003 0301 	and.w	r3, r3, #1
 8003592:	2b01      	cmp	r3, #1
 8003594:	d102      	bne.n	800359c <HCD_Port_IRQHandler+0x48>
 8003596:	6878      	ldr	r0, [r7, #4]
 8003598:	f004 ff3e 	bl	8008418 <HAL_HCD_Connect_Callback>
 800359c:	68bb      	ldr	r3, [r7, #8]
 800359e:	f043 0302 	orr.w	r3, r3, #2
 80035a2:	60bb      	str	r3, [r7, #8]
 80035a4:	68fb      	ldr	r3, [r7, #12]
 80035a6:	f003 0308 	and.w	r3, r3, #8
 80035aa:	2b08      	cmp	r3, #8
 80035ac:	d132      	bne.n	8003614 <HCD_Port_IRQHandler+0xc0>
 80035ae:	68bb      	ldr	r3, [r7, #8]
 80035b0:	f043 0308 	orr.w	r3, r3, #8
 80035b4:	60bb      	str	r3, [r7, #8]
 80035b6:	68fb      	ldr	r3, [r7, #12]
 80035b8:	f003 0304 	and.w	r3, r3, #4
 80035bc:	2b04      	cmp	r3, #4
 80035be:	d126      	bne.n	800360e <HCD_Port_IRQHandler+0xba>
 80035c0:	687b      	ldr	r3, [r7, #4]
 80035c2:	7a5b      	ldrb	r3, [r3, #9]
 80035c4:	2b02      	cmp	r3, #2
 80035c6:	d113      	bne.n	80035f0 <HCD_Port_IRQHandler+0x9c>
 80035c8:	68fb      	ldr	r3, [r7, #12]
 80035ca:	f403 23c0 	and.w	r3, r3, #393216	@ 0x60000
 80035ce:	f5b3 2f80 	cmp.w	r3, #262144	@ 0x40000
 80035d2:	d106      	bne.n	80035e2 <HCD_Port_IRQHandler+0x8e>
 80035d4:	687b      	ldr	r3, [r7, #4]
 80035d6:	681b      	ldr	r3, [r3, #0]
 80035d8:	2102      	movs	r1, #2
 80035da:	4618      	mov	r0, r3
 80035dc:	f001 ff60 	bl	80054a0 <USB_InitFSLSPClkSel>
 80035e0:	e011      	b.n	8003606 <HCD_Port_IRQHandler+0xb2>
 80035e2:	687b      	ldr	r3, [r7, #4]
 80035e4:	681b      	ldr	r3, [r3, #0]
 80035e6:	2101      	movs	r1, #1
 80035e8:	4618      	mov	r0, r3
 80035ea:	f001 ff59 	bl	80054a0 <USB_InitFSLSPClkSel>
 80035ee:	e00a      	b.n	8003606 <HCD_Port_IRQHandler+0xb2>
 80035f0:	687b      	ldr	r3, [r7, #4]
 80035f2:	79db      	ldrb	r3, [r3, #7]
 80035f4:	2b01      	cmp	r3, #1
 80035f6:	d106      	bne.n	8003606 <HCD_Port_IRQHandler+0xb2>
 80035f8:	693b      	ldr	r3, [r7, #16]
 80035fa:	f503 6380 	add.w	r3, r3, #1024	@ 0x400
 80035fe:	461a      	mov	r2, r3
 8003600:	f64e 2360 	movw	r3, #60000	@ 0xea60
 8003604:	6053      	str	r3, [r2, #4]
 8003606:	6878      	ldr	r0, [r7, #4]
 8003608:	f004 ff30 	bl	800846c <HAL_HCD_PortEnabled_Callback>
 800360c:	e002      	b.n	8003614 <HCD_Port_IRQHandler+0xc0>
 800360e:	6878      	ldr	r0, [r7, #4]
 8003610:	f004 ff3a 	bl	8008488 <HAL_HCD_PortDisabled_Callback>
 8003614:	68fb      	ldr	r3, [r7, #12]
 8003616:	f003 0320 	and.w	r3, r3, #32
 800361a:	2b20      	cmp	r3, #32
 800361c:	d103      	bne.n	8003626 <HCD_Port_IRQHandler+0xd2>
 800361e:	68bb      	ldr	r3, [r7, #8]
 8003620:	f043 0320 	orr.w	r3, r3, #32
 8003624:	60bb      	str	r3, [r7, #8]
 8003626:	693b      	ldr	r3, [r7, #16]
 8003628:	f503 6388 	add.w	r3, r3, #1088	@ 0x440
 800362c:	461a      	mov	r2, r3
 800362e:	68bb      	ldr	r3, [r7, #8]
 8003630:	6013      	str	r3, [r2, #0]
 8003632:	bf00      	nop
 8003634:	3718      	adds	r7, #24
 8003636:	46bd      	mov	sp, r7
 8003638:	bd80      	pop	{r7, pc}
	...

0800363c <HAL_I2C_Init>:
 800363c:	b580      	push	{r7, lr}
 800363e:	b084      	sub	sp, #16
 8003640:	af00      	add	r7, sp, #0
 8003642:	6078      	str	r0, [r7, #4]
 8003644:	687b      	ldr	r3, [r7, #4]
 8003646:	2b00      	cmp	r3, #0
 8003648:	d101      	bne.n	800364e <HAL_I2C_Init+0x12>
 800364a:	2301      	movs	r3, #1
 800364c:	e12b      	b.n	80038a6 <HAL_I2C_Init+0x26a>
 800364e:	687b      	ldr	r3, [r7, #4]
 8003650:	f893 303d 	ldrb.w	r3, [r3, #61]	@ 0x3d
 8003654:	b2db      	uxtb	r3, r3
 8003656:	2b00      	cmp	r3, #0
 8003658:	d106      	bne.n	8003668 <HAL_I2C_Init+0x2c>
 800365a:	687b      	ldr	r3, [r7, #4]
 800365c:	2200      	movs	r2, #0
 800365e:	f883 203c 	strb.w	r2, [r3, #60]	@ 0x3c
 8003662:	6878      	ldr	r0, [r7, #4]
 8003664:	f7fd f99e 	bl	80009a4 <HAL_I2C_MspInit>
 8003668:	687b      	ldr	r3, [r7, #4]
 800366a:	2224      	movs	r2, #36	@ 0x24
 800366c:	f883 203d 	strb.w	r2, [r3, #61]	@ 0x3d
 8003670:	687b      	ldr	r3, [r7, #4]
 8003672:	681b      	ldr	r3, [r3, #0]
 8003674:	681a      	ldr	r2, [r3, #0]
 8003676:	687b      	ldr	r3, [r7, #4]
 8003678:	681b      	ldr	r3, [r3, #0]
 800367a:	f022 0201 	bic.w	r2, r2, #1
 800367e:	601a      	str	r2, [r3, #0]
 8003680:	687b      	ldr	r3, [r7, #4]
 8003682:	681b      	ldr	r3, [r3, #0]
 8003684:	681a      	ldr	r2, [r3, #0]
 8003686:	687b      	ldr	r3, [r7, #4]
 8003688:	681b      	ldr	r3, [r3, #0]
 800368a:	f442 4200 	orr.w	r2, r2, #32768	@ 0x8000
 800368e:	601a      	str	r2, [r3, #0]
 8003690:	687b      	ldr	r3, [r7, #4]
 8003692:	681b      	ldr	r3, [r3, #0]
 8003694:	681a      	ldr	r2, [r3, #0]
 8003696:	687b      	ldr	r3, [r7, #4]
 8003698:	681b      	ldr	r3, [r3, #0]
 800369a:	f422 4200 	bic.w	r2, r2, #32768	@ 0x8000
 800369e:	601a      	str	r2, [r3, #0]
 80036a0:	f001 fa20 	bl	8004ae4 <HAL_RCC_GetPCLK1Freq>
 80036a4:	60f8      	str	r0, [r7, #12]
 80036a6:	687b      	ldr	r3, [r7, #4]
 80036a8:	685b      	ldr	r3, [r3, #4]
 80036aa:	4a81      	ldr	r2, [pc, #516]	@ (80038b0 <HAL_I2C_Init+0x274>)
 80036ac:	4293      	cmp	r3, r2
 80036ae:	d807      	bhi.n	80036c0 <HAL_I2C_Init+0x84>
 80036b0:	68fb      	ldr	r3, [r7, #12]
 80036b2:	4a80      	ldr	r2, [pc, #512]	@ (80038b4 <HAL_I2C_Init+0x278>)
 80036b4:	4293      	cmp	r3, r2
 80036b6:	bf94      	ite	ls
 80036b8:	2301      	movls	r3, #1
 80036ba:	2300      	movhi	r3, #0
 80036bc:	b2db      	uxtb	r3, r3
 80036be:	e006      	b.n	80036ce <HAL_I2C_Init+0x92>
 80036c0:	68fb      	ldr	r3, [r7, #12]
 80036c2:	4a7d      	ldr	r2, [pc, #500]	@ (80038b8 <HAL_I2C_Init+0x27c>)
 80036c4:	4293      	cmp	r3, r2
 80036c6:	bf94      	ite	ls
 80036c8:	2301      	movls	r3, #1
 80036ca:	2300      	movhi	r3, #0
 80036cc:	b2db      	uxtb	r3, r3
 80036ce:	2b00      	cmp	r3, #0
 80036d0:	d001      	beq.n	80036d6 <HAL_I2C_Init+0x9a>
 80036d2:	2301      	movs	r3, #1
 80036d4:	e0e7      	b.n	80038a6 <HAL_I2C_Init+0x26a>
 80036d6:	68fb      	ldr	r3, [r7, #12]
 80036d8:	4a78      	ldr	r2, [pc, #480]	@ (80038bc <HAL_I2C_Init+0x280>)
 80036da:	fba2 2303 	umull	r2, r3, r2, r3
 80036de:	0c9b      	lsrs	r3, r3, #18
 80036e0:	60bb      	str	r3, [r7, #8]
 80036e2:	687b      	ldr	r3, [r7, #4]
 80036e4:	681b      	ldr	r3, [r3, #0]
 80036e6:	685b      	ldr	r3, [r3, #4]
 80036e8:	f023 013f 	bic.w	r1, r3, #63	@ 0x3f
 80036ec:	687b      	ldr	r3, [r7, #4]
 80036ee:	681b      	ldr	r3, [r3, #0]
 80036f0:	68ba      	ldr	r2, [r7, #8]
 80036f2:	430a      	orrs	r2, r1
 80036f4:	605a      	str	r2, [r3, #4]
 80036f6:	687b      	ldr	r3, [r7, #4]
 80036f8:	681b      	ldr	r3, [r3, #0]
 80036fa:	6a1b      	ldr	r3, [r3, #32]
 80036fc:	f023 013f 	bic.w	r1, r3, #63	@ 0x3f
 8003700:	687b      	ldr	r3, [r7, #4]
 8003702:	685b      	ldr	r3, [r3, #4]
 8003704:	4a6a      	ldr	r2, [pc, #424]	@ (80038b0 <HAL_I2C_Init+0x274>)
 8003706:	4293      	cmp	r3, r2
 8003708:	d802      	bhi.n	8003710 <HAL_I2C_Init+0xd4>
 800370a:	68bb      	ldr	r3, [r7, #8]
 800370c:	3301      	adds	r3, #1
 800370e:	e009      	b.n	8003724 <HAL_I2C_Init+0xe8>
 8003710:	68bb      	ldr	r3, [r7, #8]
 8003712:	f44f 7296 	mov.w	r2, #300	@ 0x12c
 8003716:	fb02 f303 	mul.w	r3, r2, r3
 800371a:	4a69      	ldr	r2, [pc, #420]	@ (80038c0 <HAL_I2C_Init+0x284>)
 800371c:	fba2 2303 	umull	r2, r3, r2, r3
 8003720:	099b      	lsrs	r3, r3, #6
 8003722:	3301      	adds	r3, #1
 8003724:	687a      	ldr	r2, [r7, #4]
 8003726:	6812      	ldr	r2, [r2, #0]
 8003728:	430b      	orrs	r3, r1
 800372a:	6213      	str	r3, [r2, #32]
 800372c:	687b      	ldr	r3, [r7, #4]
 800372e:	681b      	ldr	r3, [r3, #0]
 8003730:	69db      	ldr	r3, [r3, #28]
 8003732:	f423 424f 	bic.w	r2, r3, #52992	@ 0xcf00
 8003736:	f022 02ff 	bic.w	r2, r2, #255	@ 0xff
 800373a:	687b      	ldr	r3, [r7, #4]
 800373c:	685b      	ldr	r3, [r3, #4]
 800373e:	495c      	ldr	r1, [pc, #368]	@ (80038b0 <HAL_I2C_Init+0x274>)
 8003740:	428b      	cmp	r3, r1
 8003742:	d819      	bhi.n	8003778 <HAL_I2C_Init+0x13c>
 8003744:	68fb      	ldr	r3, [r7, #12]
 8003746:	1e59      	subs	r1, r3, #1
 8003748:	687b      	ldr	r3, [r7, #4]
 800374a:	685b      	ldr	r3, [r3, #4]
 800374c:	005b      	lsls	r3, r3, #1
 800374e:	fbb1 f3f3 	udiv	r3, r1, r3
 8003752:	1c59      	adds	r1, r3, #1
 8003754:	f640 73fc 	movw	r3, #4092	@ 0xffc
 8003758:	400b      	ands	r3, r1
 800375a:	2b00      	cmp	r3, #0
 800375c:	d00a      	beq.n	8003774 <HAL_I2C_Init+0x138>
 800375e:	68fb      	ldr	r3, [r7, #12]
 8003760:	1e59      	subs	r1, r3, #1
 8003762:	687b      	ldr	r3, [r7, #4]
 8003764:	685b      	ldr	r3, [r3, #4]
 8003766:	005b      	lsls	r3, r3, #1
 8003768:	fbb1 f3f3 	udiv	r3, r1, r3
 800376c:	3301      	adds	r3, #1
 800376e:	f3c3 030b 	ubfx	r3, r3, #0, #12
 8003772:	e051      	b.n	8003818 <HAL_I2C_Init+0x1dc>
 8003774:	2304      	movs	r3, #4
 8003776:	e04f      	b.n	8003818 <HAL_I2C_Init+0x1dc>
 8003778:	687b      	ldr	r3, [r7, #4]
 800377a:	689b      	ldr	r3, [r3, #8]
 800377c:	2b00      	cmp	r3, #0
 800377e:	d111      	bne.n	80037a4 <HAL_I2C_Init+0x168>
 8003780:	68fb      	ldr	r3, [r7, #12]
 8003782:	1e58      	subs	r0, r3, #1
 8003784:	687b      	ldr	r3, [r7, #4]
 8003786:	6859      	ldr	r1, [r3, #4]
 8003788:	460b      	mov	r3, r1
 800378a:	005b      	lsls	r3, r3, #1
 800378c:	440b      	add	r3, r1
 800378e:	fbb0 f3f3 	udiv	r3, r0, r3
 8003792:	3301      	adds	r3, #1
 8003794:	f3c3 030b 	ubfx	r3, r3, #0, #12
 8003798:	2b00      	cmp	r3, #0
 800379a:	bf0c      	ite	eq
 800379c:	2301      	moveq	r3, #1
 800379e:	2300      	movne	r3, #0
 80037a0:	b2db      	uxtb	r3, r3
 80037a2:	e012      	b.n	80037ca <HAL_I2C_Init+0x18e>
 80037a4:	68fb      	ldr	r3, [r7, #12]
 80037a6:	1e58      	subs	r0, r3, #1
 80037a8:	687b      	ldr	r3, [r7, #4]
 80037aa:	6859      	ldr	r1, [r3, #4]
 80037ac:	460b      	mov	r3, r1
 80037ae:	009b      	lsls	r3, r3, #2
 80037b0:	440b      	add	r3, r1
 80037b2:	0099      	lsls	r1, r3, #2
 80037b4:	440b      	add	r3, r1
 80037b6:	fbb0 f3f3 	udiv	r3, r0, r3
 80037ba:	3301      	adds	r3, #1
 80037bc:	f3c3 030b 	ubfx	r3, r3, #0, #12
 80037c0:	2b00      	cmp	r3, #0
 80037c2:	bf0c      	ite	eq
 80037c4:	2301      	moveq	r3, #1
 80037c6:	2300      	movne	r3, #0
 80037c8:	b2db      	uxtb	r3, r3
 80037ca:	2b00      	cmp	r3, #0
 80037cc:	d001      	beq.n	80037d2 <HAL_I2C_Init+0x196>
 80037ce:	2301      	movs	r3, #1
 80037d0:	e022      	b.n	8003818 <HAL_I2C_Init+0x1dc>
 80037d2:	687b      	ldr	r3, [r7, #4]
 80037d4:	689b      	ldr	r3, [r3, #8]
 80037d6:	2b00      	cmp	r3, #0
 80037d8:	d10e      	bne.n	80037f8 <HAL_I2C_Init+0x1bc>
 80037da:	68fb      	ldr	r3, [r7, #12]
 80037dc:	1e58      	subs	r0, r3, #1
 80037de:	687b      	ldr	r3, [r7, #4]
 80037e0:	6859      	ldr	r1, [r3, #4]
 80037e2:	460b      	mov	r3, r1
 80037e4:	005b      	lsls	r3, r3, #1
 80037e6:	440b      	add	r3, r1
 80037e8:	fbb0 f3f3 	udiv	r3, r0, r3
 80037ec:	3301      	adds	r3, #1
 80037ee:	f3c3 030b 	ubfx	r3, r3, #0, #12
 80037f2:	f443 4300 	orr.w	r3, r3, #32768	@ 0x8000
 80037f6:	e00f      	b.n	8003818 <HAL_I2C_Init+0x1dc>
 80037f8:	68fb      	ldr	r3, [r7, #12]
 80037fa:	1e58      	subs	r0, r3, #1
 80037fc:	687b      	ldr	r3, [r7, #4]
 80037fe:	6859      	ldr	r1, [r3, #4]
 8003800:	460b      	mov	r3, r1
 8003802:	009b      	lsls	r3, r3, #2
 8003804:	440b      	add	r3, r1
 8003806:	0099      	lsls	r1, r3, #2
 8003808:	440b      	add	r3, r1
 800380a:	fbb0 f3f3 	udiv	r3, r0, r3
 800380e:	3301      	adds	r3, #1
 8003810:	f3c3 030b 	ubfx	r3, r3, #0, #12
 8003814:	f443 4340 	orr.w	r3, r3, #49152	@ 0xc000
 8003818:	6879      	ldr	r1, [r7, #4]
 800381a:	6809      	ldr	r1, [r1, #0]
 800381c:	4313      	orrs	r3, r2
 800381e:	61cb      	str	r3, [r1, #28]
 8003820:	687b      	ldr	r3, [r7, #4]
 8003822:	681b      	ldr	r3, [r3, #0]
 8003824:	681b      	ldr	r3, [r3, #0]
 8003826:	f023 01c0 	bic.w	r1, r3, #192	@ 0xc0
 800382a:	687b      	ldr	r3, [r7, #4]
 800382c:	69da      	ldr	r2, [r3, #28]
 800382e:	687b      	ldr	r3, [r7, #4]
 8003830:	6a1b      	ldr	r3, [r3, #32]
 8003832:	431a      	orrs	r2, r3
 8003834:	687b      	ldr	r3, [r7, #4]
 8003836:	681b      	ldr	r3, [r3, #0]
 8003838:	430a      	orrs	r2, r1
 800383a:	601a      	str	r2, [r3, #0]
 800383c:	687b      	ldr	r3, [r7, #4]
 800383e:	681b      	ldr	r3, [r3, #0]
 8003840:	689b      	ldr	r3, [r3, #8]
 8003842:	f423 4303 	bic.w	r3, r3, #33536	@ 0x8300
 8003846:	f023 03ff 	bic.w	r3, r3, #255	@ 0xff
 800384a:	687a      	ldr	r2, [r7, #4]
 800384c:	6911      	ldr	r1, [r2, #16]
 800384e:	687a      	ldr	r2, [r7, #4]
 8003850:	68d2      	ldr	r2, [r2, #12]
 8003852:	4311      	orrs	r1, r2
 8003854:	687a      	ldr	r2, [r7, #4]
 8003856:	6812      	ldr	r2, [r2, #0]
 8003858:	430b      	orrs	r3, r1
 800385a:	6093      	str	r3, [r2, #8]
 800385c:	687b      	ldr	r3, [r7, #4]
 800385e:	681b      	ldr	r3, [r3, #0]
 8003860:	68db      	ldr	r3, [r3, #12]
 8003862:	f023 01ff 	bic.w	r1, r3, #255	@ 0xff
 8003866:	687b      	ldr	r3, [r7, #4]
 8003868:	695a      	ldr	r2, [r3, #20]
 800386a:	687b      	ldr	r3, [r7, #4]
 800386c:	699b      	ldr	r3, [r3, #24]
 800386e:	431a      	orrs	r2, r3
 8003870:	687b      	ldr	r3, [r7, #4]
 8003872:	681b      	ldr	r3, [r3, #0]
 8003874:	430a      	orrs	r2, r1
 8003876:	60da      	str	r2, [r3, #12]
 8003878:	687b      	ldr	r3, [r7, #4]
 800387a:	681b      	ldr	r3, [r3, #0]
 800387c:	681a      	ldr	r2, [r3, #0]
 800387e:	687b      	ldr	r3, [r7, #4]
 8003880:	681b      	ldr	r3, [r3, #0]
 8003882:	f042 0201 	orr.w	r2, r2, #1
 8003886:	601a      	str	r2, [r3, #0]
 8003888:	687b      	ldr	r3, [r7, #4]
 800388a:	2200      	movs	r2, #0
 800388c:	641a      	str	r2, [r3, #64]	@ 0x40
 800388e:	687b      	ldr	r3, [r7, #4]
 8003890:	2220      	movs	r2, #32
 8003892:	f883 203d 	strb.w	r2, [r3, #61]	@ 0x3d
 8003896:	687b      	ldr	r3, [r7, #4]
 8003898:	2200      	movs	r2, #0
 800389a:	631a      	str	r2, [r3, #48]	@ 0x30
 800389c:	687b      	ldr	r3, [r7, #4]
 800389e:	2200      	movs	r2, #0
 80038a0:	f883 203e 	strb.w	r2, [r3, #62]	@ 0x3e
 80038a4:	2300      	movs	r3, #0
 80038a6:	4618      	mov	r0, r3
 80038a8:	3710      	adds	r7, #16
 80038aa:	46bd      	mov	sp, r7
 80038ac:	bd80      	pop	{r7, pc}
 80038ae:	bf00      	nop
 80038b0:	000186a0 	.word	0x000186a0
 80038b4:	001e847f 	.word	0x001e847f
 80038b8:	003d08ff 	.word	0x003d08ff
 80038bc:	431bde83 	.word	0x431bde83
 80038c0:	10624dd3 	.word	0x10624dd3

080038c4 <HAL_I2S_Init>:
 80038c4:	b580      	push	{r7, lr}
 80038c6:	b088      	sub	sp, #32
 80038c8:	af00      	add	r7, sp, #0
 80038ca:	6078      	str	r0, [r7, #4]
 80038cc:	687b      	ldr	r3, [r7, #4]
 80038ce:	2b00      	cmp	r3, #0
 80038d0:	d101      	bne.n	80038d6 <HAL_I2S_Init+0x12>
 80038d2:	2301      	movs	r3, #1
 80038d4:	e128      	b.n	8003b28 <HAL_I2S_Init+0x264>
 80038d6:	687b      	ldr	r3, [r7, #4]
 80038d8:	f893 3041 	ldrb.w	r3, [r3, #65]	@ 0x41
 80038dc:	b2db      	uxtb	r3, r3
 80038de:	2b00      	cmp	r3, #0
 80038e0:	d109      	bne.n	80038f6 <HAL_I2S_Init+0x32>
 80038e2:	687b      	ldr	r3, [r7, #4]
 80038e4:	2200      	movs	r2, #0
 80038e6:	f883 2040 	strb.w	r2, [r3, #64]	@ 0x40
 80038ea:	687b      	ldr	r3, [r7, #4]
 80038ec:	4a90      	ldr	r2, [pc, #576]	@ (8003b30 <HAL_I2S_Init+0x26c>)
 80038ee:	635a      	str	r2, [r3, #52]	@ 0x34
 80038f0:	6878      	ldr	r0, [r7, #4]
 80038f2:	f7fd f89f 	bl	8000a34 <HAL_I2S_MspInit>
 80038f6:	687b      	ldr	r3, [r7, #4]
 80038f8:	2202      	movs	r2, #2
 80038fa:	f883 2041 	strb.w	r2, [r3, #65]	@ 0x41
 80038fe:	687b      	ldr	r3, [r7, #4]
 8003900:	681b      	ldr	r3, [r3, #0]
 8003902:	69db      	ldr	r3, [r3, #28]
 8003904:	687a      	ldr	r2, [r7, #4]
 8003906:	6812      	ldr	r2, [r2, #0]
 8003908:	f423 637b 	bic.w	r3, r3, #4016	@ 0xfb0
 800390c:	f023 030f 	bic.w	r3, r3, #15
 8003910:	61d3      	str	r3, [r2, #28]
 8003912:	687b      	ldr	r3, [r7, #4]
 8003914:	681b      	ldr	r3, [r3, #0]
 8003916:	2202      	movs	r2, #2
 8003918:	621a      	str	r2, [r3, #32]
 800391a:	687b      	ldr	r3, [r7, #4]
 800391c:	695b      	ldr	r3, [r3, #20]
 800391e:	2b02      	cmp	r3, #2
 8003920:	d060      	beq.n	80039e4 <HAL_I2S_Init+0x120>
 8003922:	687b      	ldr	r3, [r7, #4]
 8003924:	68db      	ldr	r3, [r3, #12]
 8003926:	2b00      	cmp	r3, #0
 8003928:	d102      	bne.n	8003930 <HAL_I2S_Init+0x6c>
 800392a:	2310      	movs	r3, #16
 800392c:	617b      	str	r3, [r7, #20]
 800392e:	e001      	b.n	8003934 <HAL_I2S_Init+0x70>
 8003930:	2320      	movs	r3, #32
 8003932:	617b      	str	r3, [r7, #20]
 8003934:	687b      	ldr	r3, [r7, #4]
 8003936:	689b      	ldr	r3, [r3, #8]
 8003938:	2b20      	cmp	r3, #32
 800393a:	d802      	bhi.n	8003942 <HAL_I2S_Init+0x7e>
 800393c:	697b      	ldr	r3, [r7, #20]
 800393e:	005b      	lsls	r3, r3, #1
 8003940:	617b      	str	r3, [r7, #20]
 8003942:	2001      	movs	r0, #1
 8003944:	f001 f9c4 	bl	8004cd0 <HAL_RCCEx_GetPeriphCLKFreq>
 8003948:	60f8      	str	r0, [r7, #12]
 800394a:	687b      	ldr	r3, [r7, #4]
 800394c:	691b      	ldr	r3, [r3, #16]
 800394e:	f5b3 7f00 	cmp.w	r3, #512	@ 0x200
 8003952:	d125      	bne.n	80039a0 <HAL_I2S_Init+0xdc>
 8003954:	687b      	ldr	r3, [r7, #4]
 8003956:	68db      	ldr	r3, [r3, #12]
 8003958:	2b00      	cmp	r3, #0
 800395a:	d010      	beq.n	800397e <HAL_I2S_Init+0xba>
 800395c:	697b      	ldr	r3, [r7, #20]
 800395e:	009b      	lsls	r3, r3, #2
 8003960:	68fa      	ldr	r2, [r7, #12]
 8003962:	fbb2 f2f3 	udiv	r2, r2, r3
 8003966:	4613      	mov	r3, r2
 8003968:	009b      	lsls	r3, r3, #2
 800396a:	4413      	add	r3, r2
 800396c:	005b      	lsls	r3, r3, #1
 800396e:	461a      	mov	r2, r3
 8003970:	687b      	ldr	r3, [r7, #4]
 8003972:	695b      	ldr	r3, [r3, #20]
 8003974:	fbb2 f3f3 	udiv	r3, r2, r3
 8003978:	3305      	adds	r3, #5
 800397a:	613b      	str	r3, [r7, #16]
 800397c:	e01f      	b.n	80039be <HAL_I2S_Init+0xfa>
 800397e:	697b      	ldr	r3, [r7, #20]
 8003980:	00db      	lsls	r3, r3, #3
 8003982:	68fa      	ldr	r2, [r7, #12]
 8003984:	fbb2 f2f3 	udiv	r2, r2, r3
 8003988:	4613      	mov	r3, r2
 800398a:	009b      	lsls	r3, r3, #2
 800398c:	4413      	add	r3, r2
 800398e:	005b      	lsls	r3, r3, #1
 8003990:	461a      	mov	r2, r3
 8003992:	687b      	ldr	r3, [r7, #4]
 8003994:	695b      	ldr	r3, [r3, #20]
 8003996:	fbb2 f3f3 	udiv	r3, r2, r3
 800399a:	3305      	adds	r3, #5
 800399c:	613b      	str	r3, [r7, #16]
 800399e:	e00e      	b.n	80039be <HAL_I2S_Init+0xfa>
 80039a0:	68fa      	ldr	r2, [r7, #12]
 80039a2:	697b      	ldr	r3, [r7, #20]
 80039a4:	fbb2 f2f3 	udiv	r2, r2, r3
 80039a8:	4613      	mov	r3, r2
 80039aa:	009b      	lsls	r3, r3, #2
 80039ac:	4413      	add	r3, r2
 80039ae:	005b      	lsls	r3, r3, #1
 80039b0:	461a      	mov	r2, r3
 80039b2:	687b      	ldr	r3, [r7, #4]
 80039b4:	695b      	ldr	r3, [r3, #20]
 80039b6:	fbb2 f3f3 	udiv	r3, r2, r3
 80039ba:	3305      	adds	r3, #5
 80039bc:	613b      	str	r3, [r7, #16]
 80039be:	693b      	ldr	r3, [r7, #16]
 80039c0:	4a5c      	ldr	r2, [pc, #368]	@ (8003b34 <HAL_I2S_Init+0x270>)
 80039c2:	fba2 2303 	umull	r2, r3, r2, r3
 80039c6:	08db      	lsrs	r3, r3, #3
 80039c8:	613b      	str	r3, [r7, #16]
 80039ca:	693b      	ldr	r3, [r7, #16]
 80039cc:	f003 0301 	and.w	r3, r3, #1
 80039d0:	61bb      	str	r3, [r7, #24]
 80039d2:	693a      	ldr	r2, [r7, #16]
 80039d4:	69bb      	ldr	r3, [r7, #24]
 80039d6:	1ad3      	subs	r3, r2, r3
 80039d8:	085b      	lsrs	r3, r3, #1
 80039da:	61fb      	str	r3, [r7, #28]
 80039dc:	69bb      	ldr	r3, [r7, #24]
 80039de:	021b      	lsls	r3, r3, #8
 80039e0:	61bb      	str	r3, [r7, #24]
 80039e2:	e003      	b.n	80039ec <HAL_I2S_Init+0x128>
 80039e4:	2302      	movs	r3, #2
 80039e6:	61fb      	str	r3, [r7, #28]
 80039e8:	2300      	movs	r3, #0
 80039ea:	61bb      	str	r3, [r7, #24]
 80039ec:	69fb      	ldr	r3, [r7, #28]
 80039ee:	2b01      	cmp	r3, #1
 80039f0:	d902      	bls.n	80039f8 <HAL_I2S_Init+0x134>
 80039f2:	69fb      	ldr	r3, [r7, #28]
 80039f4:	2bff      	cmp	r3, #255	@ 0xff
 80039f6:	d907      	bls.n	8003a08 <HAL_I2S_Init+0x144>
 80039f8:	687b      	ldr	r3, [r7, #4]
 80039fa:	6c5b      	ldr	r3, [r3, #68]	@ 0x44
 80039fc:	f043 0210 	orr.w	r2, r3, #16
 8003a00:	687b      	ldr	r3, [r7, #4]
 8003a02:	645a      	str	r2, [r3, #68]	@ 0x44
 8003a04:	2301      	movs	r3, #1
 8003a06:	e08f      	b.n	8003b28 <HAL_I2S_Init+0x264>
 8003a08:	687b      	ldr	r3, [r7, #4]
 8003a0a:	691a      	ldr	r2, [r3, #16]
 8003a0c:	69bb      	ldr	r3, [r7, #24]
 8003a0e:	ea42 0103 	orr.w	r1, r2, r3
 8003a12:	687b      	ldr	r3, [r7, #4]
 8003a14:	681b      	ldr	r3, [r3, #0]
 8003a16:	69fa      	ldr	r2, [r7, #28]
 8003a18:	430a      	orrs	r2, r1
 8003a1a:	621a      	str	r2, [r3, #32]
 8003a1c:	687b      	ldr	r3, [r7, #4]
 8003a1e:	681b      	ldr	r3, [r3, #0]
 8003a20:	69db      	ldr	r3, [r3, #28]
 8003a22:	f423 637b 	bic.w	r3, r3, #4016	@ 0xfb0
 8003a26:	f023 030f 	bic.w	r3, r3, #15
 8003a2a:	687a      	ldr	r2, [r7, #4]
 8003a2c:	6851      	ldr	r1, [r2, #4]
 8003a2e:	687a      	ldr	r2, [r7, #4]
 8003a30:	6892      	ldr	r2, [r2, #8]
 8003a32:	4311      	orrs	r1, r2
 8003a34:	687a      	ldr	r2, [r7, #4]
 8003a36:	68d2      	ldr	r2, [r2, #12]
 8003a38:	4311      	orrs	r1, r2
 8003a3a:	687a      	ldr	r2, [r7, #4]
 8003a3c:	6992      	ldr	r2, [r2, #24]
 8003a3e:	430a      	orrs	r2, r1
 8003a40:	431a      	orrs	r2, r3
 8003a42:	687b      	ldr	r3, [r7, #4]
 8003a44:	681b      	ldr	r3, [r3, #0]
 8003a46:	f442 6200 	orr.w	r2, r2, #2048	@ 0x800
 8003a4a:	61da      	str	r2, [r3, #28]
 8003a4c:	687b      	ldr	r3, [r7, #4]
 8003a4e:	6a1b      	ldr	r3, [r3, #32]
 8003a50:	2b01      	cmp	r3, #1
 8003a52:	d161      	bne.n	8003b18 <HAL_I2S_Init+0x254>
 8003a54:	687b      	ldr	r3, [r7, #4]
 8003a56:	4a38      	ldr	r2, [pc, #224]	@ (8003b38 <HAL_I2S_Init+0x274>)
 8003a58:	635a      	str	r2, [r3, #52]	@ 0x34
 8003a5a:	687b      	ldr	r3, [r7, #4]
 8003a5c:	681b      	ldr	r3, [r3, #0]
 8003a5e:	4a37      	ldr	r2, [pc, #220]	@ (8003b3c <HAL_I2S_Init+0x278>)
 8003a60:	4293      	cmp	r3, r2
 8003a62:	d101      	bne.n	8003a68 <HAL_I2S_Init+0x1a4>
 8003a64:	4b36      	ldr	r3, [pc, #216]	@ (8003b40 <HAL_I2S_Init+0x27c>)
 8003a66:	e001      	b.n	8003a6c <HAL_I2S_Init+0x1a8>
 8003a68:	f04f 2340 	mov.w	r3, #1073758208	@ 0x40004000
 8003a6c:	69db      	ldr	r3, [r3, #28]
 8003a6e:	687a      	ldr	r2, [r7, #4]
 8003a70:	6812      	ldr	r2, [r2, #0]
 8003a72:	4932      	ldr	r1, [pc, #200]	@ (8003b3c <HAL_I2S_Init+0x278>)
 8003a74:	428a      	cmp	r2, r1
 8003a76:	d101      	bne.n	8003a7c <HAL_I2S_Init+0x1b8>
 8003a78:	4a31      	ldr	r2, [pc, #196]	@ (8003b40 <HAL_I2S_Init+0x27c>)
 8003a7a:	e001      	b.n	8003a80 <HAL_I2S_Init+0x1bc>
 8003a7c:	f04f 2240 	mov.w	r2, #1073758208	@ 0x40004000
 8003a80:	f423 637b 	bic.w	r3, r3, #4016	@ 0xfb0
 8003a84:	f023 030f 	bic.w	r3, r3, #15
 8003a88:	61d3      	str	r3, [r2, #28]
 8003a8a:	687b      	ldr	r3, [r7, #4]
 8003a8c:	681b      	ldr	r3, [r3, #0]
 8003a8e:	4a2b      	ldr	r2, [pc, #172]	@ (8003b3c <HAL_I2S_Init+0x278>)
 8003a90:	4293      	cmp	r3, r2
 8003a92:	d101      	bne.n	8003a98 <HAL_I2S_Init+0x1d4>
 8003a94:	4b2a      	ldr	r3, [pc, #168]	@ (8003b40 <HAL_I2S_Init+0x27c>)
 8003a96:	e001      	b.n	8003a9c <HAL_I2S_Init+0x1d8>
 8003a98:	f04f 2340 	mov.w	r3, #1073758208	@ 0x40004000
 8003a9c:	2202      	movs	r2, #2
 8003a9e:	621a      	str	r2, [r3, #32]
 8003aa0:	687b      	ldr	r3, [r7, #4]
 8003aa2:	681b      	ldr	r3, [r3, #0]
 8003aa4:	4a25      	ldr	r2, [pc, #148]	@ (8003b3c <HAL_I2S_Init+0x278>)
 8003aa6:	4293      	cmp	r3, r2
 8003aa8:	d101      	bne.n	8003aae <HAL_I2S_Init+0x1ea>
 8003aaa:	4b25      	ldr	r3, [pc, #148]	@ (8003b40 <HAL_I2S_Init+0x27c>)
 8003aac:	e001      	b.n	8003ab2 <HAL_I2S_Init+0x1ee>
 8003aae:	f04f 2340 	mov.w	r3, #1073758208	@ 0x40004000
 8003ab2:	69db      	ldr	r3, [r3, #28]
 8003ab4:	817b      	strh	r3, [r7, #10]
 8003ab6:	687b      	ldr	r3, [r7, #4]
 8003ab8:	685b      	ldr	r3, [r3, #4]
 8003aba:	f5b3 7f00 	cmp.w	r3, #512	@ 0x200
 8003abe:	d003      	beq.n	8003ac8 <HAL_I2S_Init+0x204>
 8003ac0:	687b      	ldr	r3, [r7, #4]
 8003ac2:	685b      	ldr	r3, [r3, #4]
 8003ac4:	2b00      	cmp	r3, #0
 8003ac6:	d103      	bne.n	8003ad0 <HAL_I2S_Init+0x20c>
 8003ac8:	f44f 7380 	mov.w	r3, #256	@ 0x100
 8003acc:	613b      	str	r3, [r7, #16]
 8003ace:	e001      	b.n	8003ad4 <HAL_I2S_Init+0x210>
 8003ad0:	2300      	movs	r3, #0
 8003ad2:	613b      	str	r3, [r7, #16]
 8003ad4:	693b      	ldr	r3, [r7, #16]
 8003ad6:	b29a      	uxth	r2, r3
 8003ad8:	687b      	ldr	r3, [r7, #4]
 8003ada:	689b      	ldr	r3, [r3, #8]
 8003adc:	b29b      	uxth	r3, r3
 8003ade:	4313      	orrs	r3, r2
 8003ae0:	b29a      	uxth	r2, r3
 8003ae2:	687b      	ldr	r3, [r7, #4]
 8003ae4:	68db      	ldr	r3, [r3, #12]
 8003ae6:	b29b      	uxth	r3, r3
 8003ae8:	4313      	orrs	r3, r2
 8003aea:	b29a      	uxth	r2, r3
 8003aec:	687b      	ldr	r3, [r7, #4]
 8003aee:	699b      	ldr	r3, [r3, #24]
 8003af0:	b29b      	uxth	r3, r3
 8003af2:	4313      	orrs	r3, r2
 8003af4:	b29a      	uxth	r2, r3
 8003af6:	897b      	ldrh	r3, [r7, #10]
 8003af8:	4313      	orrs	r3, r2
 8003afa:	b29b      	uxth	r3, r3
 8003afc:	f443 6300 	orr.w	r3, r3, #2048	@ 0x800
 8003b00:	817b      	strh	r3, [r7, #10]
 8003b02:	687b      	ldr	r3, [r7, #4]
 8003b04:	681b      	ldr	r3, [r3, #0]
 8003b06:	4a0d      	ldr	r2, [pc, #52]	@ (8003b3c <HAL_I2S_Init+0x278>)
 8003b08:	4293      	cmp	r3, r2
 8003b0a:	d101      	bne.n	8003b10 <HAL_I2S_Init+0x24c>
 8003b0c:	4b0c      	ldr	r3, [pc, #48]	@ (8003b40 <HAL_I2S_Init+0x27c>)
 8003b0e:	e001      	b.n	8003b14 <HAL_I2S_Init+0x250>
 8003b10:	f04f 2340 	mov.w	r3, #1073758208	@ 0x40004000
 8003b14:	897a      	ldrh	r2, [r7, #10]
 8003b16:	61da      	str	r2, [r3, #28]
 8003b18:	687b      	ldr	r3, [r7, #4]
 8003b1a:	2200      	movs	r2, #0
 8003b1c:	645a      	str	r2, [r3, #68]	@ 0x44
 8003b1e:	687b      	ldr	r3, [r7, #4]
 8003b20:	2201      	movs	r2, #1
 8003b22:	f883 2041 	strb.w	r2, [r3, #65]	@ 0x41
 8003b26:	2300      	movs	r3, #0
 8003b28:	4618      	mov	r0, r3
 8003b2a:	3720      	adds	r7, #32
 8003b2c:	46bd      	mov	sp, r7
 8003b2e:	bd80      	pop	{r7, pc}
 8003b30:	08003c3b 	.word	0x08003c3b
 8003b34:	cccccccd 	.word	0xcccccccd
 8003b38:	08003d51 	.word	0x08003d51
 8003b3c:	40003800 	.word	0x40003800
 8003b40:	40003400 	.word	0x40003400

08003b44 <HAL_I2S_TxCpltCallback>:
 8003b44:	b480      	push	{r7}
 8003b46:	b083      	sub	sp, #12
 8003b48:	af00      	add	r7, sp, #0
 8003b4a:	6078      	str	r0, [r7, #4]
 8003b4c:	bf00      	nop
 8003b4e:	370c      	adds	r7, #12
 8003b50:	46bd      	mov	sp, r7
 8003b52:	f85d 7b04 	ldr.w	r7, [sp], #4
 8003b56:	4770      	bx	lr

08003b58 <HAL_I2S_RxCpltCallback>:
 8003b58:	b480      	push	{r7}
 8003b5a:	b083      	sub	sp, #12
 8003b5c:	af00      	add	r7, sp, #0
 8003b5e:	6078      	str	r0, [r7, #4]
 8003b60:	bf00      	nop
 8003b62:	370c      	adds	r7, #12
 8003b64:	46bd      	mov	sp, r7
 8003b66:	f85d 7b04 	ldr.w	r7, [sp], #4
 8003b6a:	4770      	bx	lr

08003b6c <HAL_I2S_ErrorCallback>:
 8003b6c:	b480      	push	{r7}
 8003b6e:	b083      	sub	sp, #12
 8003b70:	af00      	add	r7, sp, #0
 8003b72:	6078      	str	r0, [r7, #4]
 8003b74:	bf00      	nop
 8003b76:	370c      	adds	r7, #12
 8003b78:	46bd      	mov	sp, r7
 8003b7a:	f85d 7b04 	ldr.w	r7, [sp], #4
 8003b7e:	4770      	bx	lr

08003b80 <I2S_Transmit_IT>:
 8003b80:	b580      	push	{r7, lr}
 8003b82:	b082      	sub	sp, #8
 8003b84:	af00      	add	r7, sp, #0
 8003b86:	6078      	str	r0, [r7, #4]
 8003b88:	687b      	ldr	r3, [r7, #4]
 8003b8a:	6a5b      	ldr	r3, [r3, #36]	@ 0x24
 8003b8c:	881a      	ldrh	r2, [r3, #0]
 8003b8e:	687b      	ldr	r3, [r7, #4]
 8003b90:	681b      	ldr	r3, [r3, #0]
 8003b92:	60da      	str	r2, [r3, #12]
 8003b94:	687b      	ldr	r3, [r7, #4]
 8003b96:	6a5b      	ldr	r3, [r3, #36]	@ 0x24
 8003b98:	1c9a      	adds	r2, r3, #2
 8003b9a:	687b      	ldr	r3, [r7, #4]
 8003b9c:	625a      	str	r2, [r3, #36]	@ 0x24
 8003b9e:	687b      	ldr	r3, [r7, #4]
 8003ba0:	8d5b      	ldrh	r3, [r3, #42]	@ 0x2a
 8003ba2:	b29b      	uxth	r3, r3
 8003ba4:	3b01      	subs	r3, #1
 8003ba6:	b29a      	uxth	r2, r3
 8003ba8:	687b      	ldr	r3, [r7, #4]
 8003baa:	855a      	strh	r2, [r3, #42]	@ 0x2a
 8003bac:	687b      	ldr	r3, [r7, #4]
 8003bae:	8d5b      	ldrh	r3, [r3, #42]	@ 0x2a
 8003bb0:	b29b      	uxth	r3, r3
 8003bb2:	2b00      	cmp	r3, #0
 8003bb4:	d10e      	bne.n	8003bd4 <I2S_Transmit_IT+0x54>
 8003bb6:	687b      	ldr	r3, [r7, #4]
 8003bb8:	681b      	ldr	r3, [r3, #0]
 8003bba:	685a      	ldr	r2, [r3, #4]
 8003bbc:	687b      	ldr	r3, [r7, #4]
 8003bbe:	681b      	ldr	r3, [r3, #0]
 8003bc0:	f022 02a0 	bic.w	r2, r2, #160	@ 0xa0
 8003bc4:	605a      	str	r2, [r3, #4]
 8003bc6:	687b      	ldr	r3, [r7, #4]
 8003bc8:	2201      	movs	r2, #1
 8003bca:	f883 2041 	strb.w	r2, [r3, #65]	@ 0x41
 8003bce:	6878      	ldr	r0, [r7, #4]
 8003bd0:	f7ff ffb8 	bl	8003b44 <HAL_I2S_TxCpltCallback>
 8003bd4:	bf00      	nop
 8003bd6:	3708      	adds	r7, #8
 8003bd8:	46bd      	mov	sp, r7
 8003bda:	bd80      	pop	{r7, pc}

08003bdc <I2S_Receive_IT>:
 8003bdc:	b580      	push	{r7, lr}
 8003bde:	b082      	sub	sp, #8
 8003be0:	af00      	add	r7, sp, #0
 8003be2:	6078      	str	r0, [r7, #4]
 8003be4:	687b      	ldr	r3, [r7, #4]
 8003be6:	681b      	ldr	r3, [r3, #0]
 8003be8:	68da      	ldr	r2, [r3, #12]
 8003bea:	687b      	ldr	r3, [r7, #4]
 8003bec:	6adb      	ldr	r3, [r3, #44]	@ 0x2c
 8003bee:	b292      	uxth	r2, r2
 8003bf0:	801a      	strh	r2, [r3, #0]
 8003bf2:	687b      	ldr	r3, [r7, #4]
 8003bf4:	6adb      	ldr	r3, [r3, #44]	@ 0x2c
 8003bf6:	1c9a      	adds	r2, r3, #2
 8003bf8:	687b      	ldr	r3, [r7, #4]
 8003bfa:	62da      	str	r2, [r3, #44]	@ 0x2c
 8003bfc:	687b      	ldr	r3, [r7, #4]
 8003bfe:	8e5b      	ldrh	r3, [r3, #50]	@ 0x32
 8003c00:	b29b      	uxth	r3, r3
 8003c02:	3b01      	subs	r3, #1
 8003c04:	b29a      	uxth	r2, r3
 8003c06:	687b      	ldr	r3, [r7, #4]
 8003c08:	865a      	strh	r2, [r3, #50]	@ 0x32
 8003c0a:	687b      	ldr	r3, [r7, #4]
 8003c0c:	8e5b      	ldrh	r3, [r3, #50]	@ 0x32
 8003c0e:	b29b      	uxth	r3, r3
 8003c10:	2b00      	cmp	r3, #0
 8003c12:	d10e      	bne.n	8003c32 <I2S_Receive_IT+0x56>
 8003c14:	687b      	ldr	r3, [r7, #4]
 8003c16:	681b      	ldr	r3, [r3, #0]
 8003c18:	685a      	ldr	r2, [r3, #4]
 8003c1a:	687b      	ldr	r3, [r7, #4]
 8003c1c:	681b      	ldr	r3, [r3, #0]
 8003c1e:	f022 0260 	bic.w	r2, r2, #96	@ 0x60
 8003c22:	605a      	str	r2, [r3, #4]
 8003c24:	687b      	ldr	r3, [r7, #4]
 8003c26:	2201      	movs	r2, #1
 8003c28:	f883 2041 	strb.w	r2, [r3, #65]	@ 0x41
 8003c2c:	6878      	ldr	r0, [r7, #4]
 8003c2e:	f7ff ff93 	bl	8003b58 <HAL_I2S_RxCpltCallback>
 8003c32:	bf00      	nop
 8003c34:	3708      	adds	r7, #8
 8003c36:	46bd      	mov	sp, r7
 8003c38:	bd80      	pop	{r7, pc}

08003c3a <I2S_IRQHandler>:
 8003c3a:	b580      	push	{r7, lr}
 8003c3c:	b086      	sub	sp, #24
 8003c3e:	af00      	add	r7, sp, #0
 8003c40:	6078      	str	r0, [r7, #4]
 8003c42:	687b      	ldr	r3, [r7, #4]
 8003c44:	681b      	ldr	r3, [r3, #0]
 8003c46:	689b      	ldr	r3, [r3, #8]
 8003c48:	617b      	str	r3, [r7, #20]
 8003c4a:	687b      	ldr	r3, [r7, #4]
 8003c4c:	f893 3041 	ldrb.w	r3, [r3, #65]	@ 0x41
 8003c50:	b2db      	uxtb	r3, r3
 8003c52:	2b04      	cmp	r3, #4
 8003c54:	d13a      	bne.n	8003ccc <I2S_IRQHandler+0x92>
 8003c56:	697b      	ldr	r3, [r7, #20]
 8003c58:	f003 0301 	and.w	r3, r3, #1
 8003c5c:	2b01      	cmp	r3, #1
 8003c5e:	d109      	bne.n	8003c74 <I2S_IRQHandler+0x3a>
 8003c60:	687b      	ldr	r3, [r7, #4]
 8003c62:	681b      	ldr	r3, [r3, #0]
 8003c64:	685b      	ldr	r3, [r3, #4]
 8003c66:	f003 0340 	and.w	r3, r3, #64	@ 0x40
 8003c6a:	2b40      	cmp	r3, #64	@ 0x40
 8003c6c:	d102      	bne.n	8003c74 <I2S_IRQHandler+0x3a>
 8003c6e:	6878      	ldr	r0, [r7, #4]
 8003c70:	f7ff ffb4 	bl	8003bdc <I2S_Receive_IT>
 8003c74:	697b      	ldr	r3, [r7, #20]
 8003c76:	f003 0340 	and.w	r3, r3, #64	@ 0x40
 8003c7a:	2b40      	cmp	r3, #64	@ 0x40
 8003c7c:	d126      	bne.n	8003ccc <I2S_IRQHandler+0x92>
 8003c7e:	687b      	ldr	r3, [r7, #4]
 8003c80:	681b      	ldr	r3, [r3, #0]
 8003c82:	685b      	ldr	r3, [r3, #4]
 8003c84:	f003 0320 	and.w	r3, r3, #32
 8003c88:	2b20      	cmp	r3, #32
 8003c8a:	d11f      	bne.n	8003ccc <I2S_IRQHandler+0x92>
 8003c8c:	687b      	ldr	r3, [r7, #4]
 8003c8e:	681b      	ldr	r3, [r3, #0]
 8003c90:	685a      	ldr	r2, [r3, #4]
 8003c92:	687b      	ldr	r3, [r7, #4]
 8003c94:	681b      	ldr	r3, [r3, #0]
 8003c96:	f022 0260 	bic.w	r2, r2, #96	@ 0x60
 8003c9a:	605a      	str	r2, [r3, #4]
 8003c9c:	2300      	movs	r3, #0
 8003c9e:	613b      	str	r3, [r7, #16]
 8003ca0:	687b      	ldr	r3, [r7, #4]
 8003ca2:	681b      	ldr	r3, [r3, #0]
 8003ca4:	68db      	ldr	r3, [r3, #12]
 8003ca6:	613b      	str	r3, [r7, #16]
 8003ca8:	687b      	ldr	r3, [r7, #4]
 8003caa:	681b      	ldr	r3, [r3, #0]
 8003cac:	689b      	ldr	r3, [r3, #8]
 8003cae:	613b      	str	r3, [r7, #16]
 8003cb0:	693b      	ldr	r3, [r7, #16]
 8003cb2:	687b      	ldr	r3, [r7, #4]
 8003cb4:	2201      	movs	r2, #1
 8003cb6:	f883 2041 	strb.w	r2, [r3, #65]	@ 0x41
 8003cba:	687b      	ldr	r3, [r7, #4]
 8003cbc:	6c5b      	ldr	r3, [r3, #68]	@ 0x44
 8003cbe:	f043 0202 	orr.w	r2, r3, #2
 8003cc2:	687b      	ldr	r3, [r7, #4]
 8003cc4:	645a      	str	r2, [r3, #68]	@ 0x44
 8003cc6:	6878      	ldr	r0, [r7, #4]
 8003cc8:	f7ff ff50 	bl	8003b6c <HAL_I2S_ErrorCallback>
 8003ccc:	687b      	ldr	r3, [r7, #4]
 8003cce:	f893 3041 	ldrb.w	r3, [r3, #65]	@ 0x41
 8003cd2:	b2db      	uxtb	r3, r3
 8003cd4:	2b03      	cmp	r3, #3
 8003cd6:	d136      	bne.n	8003d46 <I2S_IRQHandler+0x10c>
 8003cd8:	697b      	ldr	r3, [r7, #20]
 8003cda:	f003 0302 	and.w	r3, r3, #2
 8003cde:	2b02      	cmp	r3, #2
 8003ce0:	d109      	bne.n	8003cf6 <I2S_IRQHandler+0xbc>
 8003ce2:	687b      	ldr	r3, [r7, #4]
 8003ce4:	681b      	ldr	r3, [r3, #0]
 8003ce6:	685b      	ldr	r3, [r3, #4]
 8003ce8:	f003 0380 	and.w	r3, r3, #128	@ 0x80
 8003cec:	2b80      	cmp	r3, #128	@ 0x80
 8003cee:	d102      	bne.n	8003cf6 <I2S_IRQHandler+0xbc>
 8003cf0:	6878      	ldr	r0, [r7, #4]
 8003cf2:	f7ff ff45 	bl	8003b80 <I2S_Transmit_IT>
 8003cf6:	697b      	ldr	r3, [r7, #20]
 8003cf8:	f003 0308 	and.w	r3, r3, #8
 8003cfc:	2b08      	cmp	r3, #8
 8003cfe:	d122      	bne.n	8003d46 <I2S_IRQHandler+0x10c>
 8003d00:	687b      	ldr	r3, [r7, #4]
 8003d02:	681b      	ldr	r3, [r3, #0]
 8003d04:	685b      	ldr	r3, [r3, #4]
 8003d06:	f003 0320 	and.w	r3, r3, #32
 8003d0a:	2b20      	cmp	r3, #32
 8003d0c:	d11b      	bne.n	8003d46 <I2S_IRQHandler+0x10c>
 8003d0e:	687b      	ldr	r3, [r7, #4]
 8003d10:	681b      	ldr	r3, [r3, #0]
 8003d12:	685a      	ldr	r2, [r3, #4]
 8003d14:	687b      	ldr	r3, [r7, #4]
 8003d16:	681b      	ldr	r3, [r3, #0]
 8003d18:	f022 02a0 	bic.w	r2, r2, #160	@ 0xa0
 8003d1c:	605a      	str	r2, [r3, #4]
 8003d1e:	2300      	movs	r3, #0
 8003d20:	60fb      	str	r3, [r7, #12]
 8003d22:	687b      	ldr	r3, [r7, #4]
 8003d24:	681b      	ldr	r3, [r3, #0]
 8003d26:	689b      	ldr	r3, [r3, #8]
 8003d28:	60fb      	str	r3, [r7, #12]
 8003d2a:	68fb      	ldr	r3, [r7, #12]
 8003d2c:	687b      	ldr	r3, [r7, #4]
 8003d2e:	2201      	movs	r2, #1
 8003d30:	f883 2041 	strb.w	r2, [r3, #65]	@ 0x41
 8003d34:	687b      	ldr	r3, [r7, #4]
 8003d36:	6c5b      	ldr	r3, [r3, #68]	@ 0x44
 8003d38:	f043 0204 	orr.w	r2, r3, #4
 8003d3c:	687b      	ldr	r3, [r7, #4]
 8003d3e:	645a      	str	r2, [r3, #68]	@ 0x44
 8003d40:	6878      	ldr	r0, [r7, #4]
 8003d42:	f7ff ff13 	bl	8003b6c <HAL_I2S_ErrorCallback>
 8003d46:	bf00      	nop
 8003d48:	3718      	adds	r7, #24
 8003d4a:	46bd      	mov	sp, r7
 8003d4c:	bd80      	pop	{r7, pc}
	...

08003d50 <HAL_I2SEx_FullDuplex_IRQHandler>:
 8003d50:	b580      	push	{r7, lr}
 8003d52:	b088      	sub	sp, #32
 8003d54:	af00      	add	r7, sp, #0
 8003d56:	6078      	str	r0, [r7, #4]
 8003d58:	687b      	ldr	r3, [r7, #4]
 8003d5a:	681b      	ldr	r3, [r3, #0]
 8003d5c:	689b      	ldr	r3, [r3, #8]
 8003d5e:	61fb      	str	r3, [r7, #28]
 8003d60:	687b      	ldr	r3, [r7, #4]
 8003d62:	681b      	ldr	r3, [r3, #0]
 8003d64:	4a92      	ldr	r2, [pc, #584]	@ (8003fb0 <HAL_I2SEx_FullDuplex_IRQHandler+0x260>)
 8003d66:	4293      	cmp	r3, r2
 8003d68:	d101      	bne.n	8003d6e <HAL_I2SEx_FullDuplex_IRQHandler+0x1e>
 8003d6a:	4b92      	ldr	r3, [pc, #584]	@ (8003fb4 <HAL_I2SEx_FullDuplex_IRQHandler+0x264>)
 8003d6c:	e001      	b.n	8003d72 <HAL_I2SEx_FullDuplex_IRQHandler+0x22>
 8003d6e:	f04f 2340 	mov.w	r3, #1073758208	@ 0x40004000
 8003d72:	689b      	ldr	r3, [r3, #8]
 8003d74:	61bb      	str	r3, [r7, #24]
 8003d76:	687b      	ldr	r3, [r7, #4]
 8003d78:	681b      	ldr	r3, [r3, #0]
 8003d7a:	685b      	ldr	r3, [r3, #4]
 8003d7c:	617b      	str	r3, [r7, #20]
 8003d7e:	687b      	ldr	r3, [r7, #4]
 8003d80:	681b      	ldr	r3, [r3, #0]
 8003d82:	4a8b      	ldr	r2, [pc, #556]	@ (8003fb0 <HAL_I2SEx_FullDuplex_IRQHandler+0x260>)
 8003d84:	4293      	cmp	r3, r2
 8003d86:	d101      	bne.n	8003d8c <HAL_I2SEx_FullDuplex_IRQHandler+0x3c>
 8003d88:	4b8a      	ldr	r3, [pc, #552]	@ (8003fb4 <HAL_I2SEx_FullDuplex_IRQHandler+0x264>)
 8003d8a:	e001      	b.n	8003d90 <HAL_I2SEx_FullDuplex_IRQHandler+0x40>
 8003d8c:	f04f 2340 	mov.w	r3, #1073758208	@ 0x40004000
 8003d90:	685b      	ldr	r3, [r3, #4]
 8003d92:	613b      	str	r3, [r7, #16]
 8003d94:	687b      	ldr	r3, [r7, #4]
 8003d96:	685b      	ldr	r3, [r3, #4]
 8003d98:	f5b3 7f00 	cmp.w	r3, #512	@ 0x200
 8003d9c:	d004      	beq.n	8003da8 <HAL_I2SEx_FullDuplex_IRQHandler+0x58>
 8003d9e:	687b      	ldr	r3, [r7, #4]
 8003da0:	685b      	ldr	r3, [r3, #4]
 8003da2:	2b00      	cmp	r3, #0
 8003da4:	f040 8099 	bne.w	8003eda <HAL_I2SEx_FullDuplex_IRQHandler+0x18a>
 8003da8:	69fb      	ldr	r3, [r7, #28]
 8003daa:	f003 0302 	and.w	r3, r3, #2
 8003dae:	2b02      	cmp	r3, #2
 8003db0:	d107      	bne.n	8003dc2 <HAL_I2SEx_FullDuplex_IRQHandler+0x72>
 8003db2:	697b      	ldr	r3, [r7, #20]
 8003db4:	f003 0380 	and.w	r3, r3, #128	@ 0x80
 8003db8:	2b00      	cmp	r3, #0
 8003dba:	d002      	beq.n	8003dc2 <HAL_I2SEx_FullDuplex_IRQHandler+0x72>
 8003dbc:	6878      	ldr	r0, [r7, #4]
 8003dbe:	f000 f925 	bl	800400c <I2SEx_TxISR_I2S>
 8003dc2:	69bb      	ldr	r3, [r7, #24]
 8003dc4:	f003 0301 	and.w	r3, r3, #1
 8003dc8:	2b01      	cmp	r3, #1
 8003dca:	d107      	bne.n	8003ddc <HAL_I2SEx_FullDuplex_IRQHandler+0x8c>
 8003dcc:	693b      	ldr	r3, [r7, #16]
 8003dce:	f003 0340 	and.w	r3, r3, #64	@ 0x40
 8003dd2:	2b00      	cmp	r3, #0
 8003dd4:	d002      	beq.n	8003ddc <HAL_I2SEx_FullDuplex_IRQHandler+0x8c>
 8003dd6:	6878      	ldr	r0, [r7, #4]
 8003dd8:	f000 f9c8 	bl	800416c <I2SEx_RxISR_I2SExt>
 8003ddc:	69bb      	ldr	r3, [r7, #24]
 8003dde:	f003 0340 	and.w	r3, r3, #64	@ 0x40
 8003de2:	2b40      	cmp	r3, #64	@ 0x40
 8003de4:	d13a      	bne.n	8003e5c <HAL_I2SEx_FullDuplex_IRQHandler+0x10c>
 8003de6:	693b      	ldr	r3, [r7, #16]
 8003de8:	f003 0320 	and.w	r3, r3, #32
 8003dec:	2b00      	cmp	r3, #0
 8003dee:	d035      	beq.n	8003e5c <HAL_I2SEx_FullDuplex_IRQHandler+0x10c>
 8003df0:	687b      	ldr	r3, [r7, #4]
 8003df2:	681b      	ldr	r3, [r3, #0]
 8003df4:	4a6e      	ldr	r2, [pc, #440]	@ (8003fb0 <HAL_I2SEx_FullDuplex_IRQHandler+0x260>)
 8003df6:	4293      	cmp	r3, r2
 8003df8:	d101      	bne.n	8003dfe <HAL_I2SEx_FullDuplex_IRQHandler+0xae>
 8003dfa:	4b6e      	ldr	r3, [pc, #440]	@ (8003fb4 <HAL_I2SEx_FullDuplex_IRQHandler+0x264>)
 8003dfc:	e001      	b.n	8003e02 <HAL_I2SEx_FullDuplex_IRQHandler+0xb2>
 8003dfe:	f04f 2340 	mov.w	r3, #1073758208	@ 0x40004000
 8003e02:	685a      	ldr	r2, [r3, #4]
 8003e04:	687b      	ldr	r3, [r7, #4]
 8003e06:	681b      	ldr	r3, [r3, #0]
 8003e08:	4969      	ldr	r1, [pc, #420]	@ (8003fb0 <HAL_I2SEx_FullDuplex_IRQHandler+0x260>)
 8003e0a:	428b      	cmp	r3, r1
 8003e0c:	d101      	bne.n	8003e12 <HAL_I2SEx_FullDuplex_IRQHandler+0xc2>
 8003e0e:	4b69      	ldr	r3, [pc, #420]	@ (8003fb4 <HAL_I2SEx_FullDuplex_IRQHandler+0x264>)
 8003e10:	e001      	b.n	8003e16 <HAL_I2SEx_FullDuplex_IRQHandler+0xc6>
 8003e12:	f04f 2340 	mov.w	r3, #1073758208	@ 0x40004000
 8003e16:	f022 0260 	bic.w	r2, r2, #96	@ 0x60
 8003e1a:	605a      	str	r2, [r3, #4]
 8003e1c:	687b      	ldr	r3, [r7, #4]
 8003e1e:	681b      	ldr	r3, [r3, #0]
 8003e20:	685a      	ldr	r2, [r3, #4]
 8003e22:	687b      	ldr	r3, [r7, #4]
 8003e24:	681b      	ldr	r3, [r3, #0]
 8003e26:	f022 02a0 	bic.w	r2, r2, #160	@ 0xa0
 8003e2a:	605a      	str	r2, [r3, #4]
 8003e2c:	2300      	movs	r3, #0
 8003e2e:	60fb      	str	r3, [r7, #12]
 8003e30:	687b      	ldr	r3, [r7, #4]
 8003e32:	681b      	ldr	r3, [r3, #0]
 8003e34:	68db      	ldr	r3, [r3, #12]
 8003e36:	60fb      	str	r3, [r7, #12]
 8003e38:	687b      	ldr	r3, [r7, #4]
 8003e3a:	681b      	ldr	r3, [r3, #0]
 8003e3c:	689b      	ldr	r3, [r3, #8]
 8003e3e:	60fb      	str	r3, [r7, #12]
 8003e40:	68fb      	ldr	r3, [r7, #12]
 8003e42:	687b      	ldr	r3, [r7, #4]
 8003e44:	2201      	movs	r2, #1
 8003e46:	f883 2041 	strb.w	r2, [r3, #65]	@ 0x41
 8003e4a:	687b      	ldr	r3, [r7, #4]
 8003e4c:	6c5b      	ldr	r3, [r3, #68]	@ 0x44
 8003e4e:	f043 0202 	orr.w	r2, r3, #2
 8003e52:	687b      	ldr	r3, [r7, #4]
 8003e54:	645a      	str	r2, [r3, #68]	@ 0x44
 8003e56:	6878      	ldr	r0, [r7, #4]
 8003e58:	f7ff fe88 	bl	8003b6c <HAL_I2S_ErrorCallback>
 8003e5c:	69fb      	ldr	r3, [r7, #28]
 8003e5e:	f003 0308 	and.w	r3, r3, #8
 8003e62:	2b08      	cmp	r3, #8
 8003e64:	f040 80c3 	bne.w	8003fee <HAL_I2SEx_FullDuplex_IRQHandler+0x29e>
 8003e68:	697b      	ldr	r3, [r7, #20]
 8003e6a:	f003 0320 	and.w	r3, r3, #32
 8003e6e:	2b00      	cmp	r3, #0
 8003e70:	f000 80bd 	beq.w	8003fee <HAL_I2SEx_FullDuplex_IRQHandler+0x29e>
 8003e74:	687b      	ldr	r3, [r7, #4]
 8003e76:	681b      	ldr	r3, [r3, #0]
 8003e78:	685a      	ldr	r2, [r3, #4]
 8003e7a:	687b      	ldr	r3, [r7, #4]
 8003e7c:	681b      	ldr	r3, [r3, #0]
 8003e7e:	f022 02a0 	bic.w	r2, r2, #160	@ 0xa0
 8003e82:	605a      	str	r2, [r3, #4]
 8003e84:	687b      	ldr	r3, [r7, #4]
 8003e86:	681b      	ldr	r3, [r3, #0]
 8003e88:	4a49      	ldr	r2, [pc, #292]	@ (8003fb0 <HAL_I2SEx_FullDuplex_IRQHandler+0x260>)
 8003e8a:	4293      	cmp	r3, r2
 8003e8c:	d101      	bne.n	8003e92 <HAL_I2SEx_FullDuplex_IRQHandler+0x142>
 8003e8e:	4b49      	ldr	r3, [pc, #292]	@ (8003fb4 <HAL_I2SEx_FullDuplex_IRQHandler+0x264>)
 8003e90:	e001      	b.n	8003e96 <HAL_I2SEx_FullDuplex_IRQHandler+0x146>
 8003e92:	f04f 2340 	mov.w	r3, #1073758208	@ 0x40004000
 8003e96:	685a      	ldr	r2, [r3, #4]
 8003e98:	687b      	ldr	r3, [r7, #4]
 8003e9a:	681b      	ldr	r3, [r3, #0]
 8003e9c:	4944      	ldr	r1, [pc, #272]	@ (8003fb0 <HAL_I2SEx_FullDuplex_IRQHandler+0x260>)
 8003e9e:	428b      	cmp	r3, r1
 8003ea0:	d101      	bne.n	8003ea6 <HAL_I2SEx_FullDuplex_IRQHandler+0x156>
 8003ea2:	4b44      	ldr	r3, [pc, #272]	@ (8003fb4 <HAL_I2SEx_FullDuplex_IRQHandler+0x264>)
 8003ea4:	e001      	b.n	8003eaa <HAL_I2SEx_FullDuplex_IRQHandler+0x15a>
 8003ea6:	f04f 2340 	mov.w	r3, #1073758208	@ 0x40004000
 8003eaa:	f022 0260 	bic.w	r2, r2, #96	@ 0x60
 8003eae:	605a      	str	r2, [r3, #4]
 8003eb0:	2300      	movs	r3, #0
 8003eb2:	60bb      	str	r3, [r7, #8]
 8003eb4:	687b      	ldr	r3, [r7, #4]
 8003eb6:	681b      	ldr	r3, [r3, #0]
 8003eb8:	689b      	ldr	r3, [r3, #8]
 8003eba:	60bb      	str	r3, [r7, #8]
 8003ebc:	68bb      	ldr	r3, [r7, #8]
 8003ebe:	687b      	ldr	r3, [r7, #4]
 8003ec0:	2201      	movs	r2, #1
 8003ec2:	f883 2041 	strb.w	r2, [r3, #65]	@ 0x41
 8003ec6:	687b      	ldr	r3, [r7, #4]
 8003ec8:	6c5b      	ldr	r3, [r3, #68]	@ 0x44
 8003eca:	f043 0204 	orr.w	r2, r3, #4
 8003ece:	687b      	ldr	r3, [r7, #4]
 8003ed0:	645a      	str	r2, [r3, #68]	@ 0x44
 8003ed2:	6878      	ldr	r0, [r7, #4]
 8003ed4:	f7ff fe4a 	bl	8003b6c <HAL_I2S_ErrorCallback>
 8003ed8:	e089      	b.n	8003fee <HAL_I2SEx_FullDuplex_IRQHandler+0x29e>
 8003eda:	69bb      	ldr	r3, [r7, #24]
 8003edc:	f003 0302 	and.w	r3, r3, #2
 8003ee0:	2b02      	cmp	r3, #2
 8003ee2:	d107      	bne.n	8003ef4 <HAL_I2SEx_FullDuplex_IRQHandler+0x1a4>
 8003ee4:	693b      	ldr	r3, [r7, #16]
 8003ee6:	f003 0380 	and.w	r3, r3, #128	@ 0x80
 8003eea:	2b00      	cmp	r3, #0
 8003eec:	d002      	beq.n	8003ef4 <HAL_I2SEx_FullDuplex_IRQHandler+0x1a4>
 8003eee:	6878      	ldr	r0, [r7, #4]
 8003ef0:	f000 f8be 	bl	8004070 <I2SEx_TxISR_I2SExt>
 8003ef4:	69fb      	ldr	r3, [r7, #28]
 8003ef6:	f003 0301 	and.w	r3, r3, #1
 8003efa:	2b01      	cmp	r3, #1
 8003efc:	d107      	bne.n	8003f0e <HAL_I2SEx_FullDuplex_IRQHandler+0x1be>
 8003efe:	697b      	ldr	r3, [r7, #20]
 8003f00:	f003 0340 	and.w	r3, r3, #64	@ 0x40
 8003f04:	2b00      	cmp	r3, #0
 8003f06:	d002      	beq.n	8003f0e <HAL_I2SEx_FullDuplex_IRQHandler+0x1be>
 8003f08:	6878      	ldr	r0, [r7, #4]
 8003f0a:	f000 f8fd 	bl	8004108 <I2SEx_RxISR_I2S>
 8003f0e:	69fb      	ldr	r3, [r7, #28]
 8003f10:	f003 0340 	and.w	r3, r3, #64	@ 0x40
 8003f14:	2b40      	cmp	r3, #64	@ 0x40
 8003f16:	d12f      	bne.n	8003f78 <HAL_I2SEx_FullDuplex_IRQHandler+0x228>
 8003f18:	697b      	ldr	r3, [r7, #20]
 8003f1a:	f003 0320 	and.w	r3, r3, #32
 8003f1e:	2b00      	cmp	r3, #0
 8003f20:	d02a      	beq.n	8003f78 <HAL_I2SEx_FullDuplex_IRQHandler+0x228>
 8003f22:	687b      	ldr	r3, [r7, #4]
 8003f24:	681b      	ldr	r3, [r3, #0]
 8003f26:	685a      	ldr	r2, [r3, #4]
 8003f28:	687b      	ldr	r3, [r7, #4]
 8003f2a:	681b      	ldr	r3, [r3, #0]
 8003f2c:	f022 0260 	bic.w	r2, r2, #96	@ 0x60
 8003f30:	605a      	str	r2, [r3, #4]
 8003f32:	687b      	ldr	r3, [r7, #4]
 8003f34:	681b      	ldr	r3, [r3, #0]
 8003f36:	4a1e      	ldr	r2, [pc, #120]	@ (8003fb0 <HAL_I2SEx_FullDuplex_IRQHandler+0x260>)
 8003f38:	4293      	cmp	r3, r2
 8003f3a:	d101      	bne.n	8003f40 <HAL_I2SEx_FullDuplex_IRQHandler+0x1f0>
 8003f3c:	4b1d      	ldr	r3, [pc, #116]	@ (8003fb4 <HAL_I2SEx_FullDuplex_IRQHandler+0x264>)
 8003f3e:	e001      	b.n	8003f44 <HAL_I2SEx_FullDuplex_IRQHandler+0x1f4>
 8003f40:	f04f 2340 	mov.w	r3, #1073758208	@ 0x40004000
 8003f44:	685a      	ldr	r2, [r3, #4]
 8003f46:	687b      	ldr	r3, [r7, #4]
 8003f48:	681b      	ldr	r3, [r3, #0]
 8003f4a:	4919      	ldr	r1, [pc, #100]	@ (8003fb0 <HAL_I2SEx_FullDuplex_IRQHandler+0x260>)
 8003f4c:	428b      	cmp	r3, r1
 8003f4e:	d101      	bne.n	8003f54 <HAL_I2SEx_FullDuplex_IRQHandler+0x204>
 8003f50:	4b18      	ldr	r3, [pc, #96]	@ (8003fb4 <HAL_I2SEx_FullDuplex_IRQHandler+0x264>)
 8003f52:	e001      	b.n	8003f58 <HAL_I2SEx_FullDuplex_IRQHandler+0x208>
 8003f54:	f04f 2340 	mov.w	r3, #1073758208	@ 0x40004000
 8003f58:	f022 02a0 	bic.w	r2, r2, #160	@ 0xa0
 8003f5c:	605a      	str	r2, [r3, #4]
 8003f5e:	687b      	ldr	r3, [r7, #4]
 8003f60:	2201      	movs	r2, #1
 8003f62:	f883 2041 	strb.w	r2, [r3, #65]	@ 0x41
 8003f66:	687b      	ldr	r3, [r7, #4]
 8003f68:	6c5b      	ldr	r3, [r3, #68]	@ 0x44
 8003f6a:	f043 0202 	orr.w	r2, r3, #2
 8003f6e:	687b      	ldr	r3, [r7, #4]
 8003f70:	645a      	str	r2, [r3, #68]	@ 0x44
 8003f72:	6878      	ldr	r0, [r7, #4]
 8003f74:	f7ff fdfa 	bl	8003b6c <HAL_I2S_ErrorCallback>
 8003f78:	69bb      	ldr	r3, [r7, #24]
 8003f7a:	f003 0308 	and.w	r3, r3, #8
 8003f7e:	2b08      	cmp	r3, #8
 8003f80:	d136      	bne.n	8003ff0 <HAL_I2SEx_FullDuplex_IRQHandler+0x2a0>
 8003f82:	693b      	ldr	r3, [r7, #16]
 8003f84:	f003 0320 	and.w	r3, r3, #32
 8003f88:	2b00      	cmp	r3, #0
 8003f8a:	d031      	beq.n	8003ff0 <HAL_I2SEx_FullDuplex_IRQHandler+0x2a0>
 8003f8c:	687b      	ldr	r3, [r7, #4]
 8003f8e:	681b      	ldr	r3, [r3, #0]
 8003f90:	4a07      	ldr	r2, [pc, #28]	@ (8003fb0 <HAL_I2SEx_FullDuplex_IRQHandler+0x260>)
 8003f92:	4293      	cmp	r3, r2
 8003f94:	d101      	bne.n	8003f9a <HAL_I2SEx_FullDuplex_IRQHandler+0x24a>
 8003f96:	4b07      	ldr	r3, [pc, #28]	@ (8003fb4 <HAL_I2SEx_FullDuplex_IRQHandler+0x264>)
 8003f98:	e001      	b.n	8003f9e <HAL_I2SEx_FullDuplex_IRQHandler+0x24e>
 8003f9a:	f04f 2340 	mov.w	r3, #1073758208	@ 0x40004000
 8003f9e:	685a      	ldr	r2, [r3, #4]
 8003fa0:	687b      	ldr	r3, [r7, #4]
 8003fa2:	681b      	ldr	r3, [r3, #0]
 8003fa4:	4902      	ldr	r1, [pc, #8]	@ (8003fb0 <HAL_I2SEx_FullDuplex_IRQHandler+0x260>)
 8003fa6:	428b      	cmp	r3, r1
 8003fa8:	d106      	bne.n	8003fb8 <HAL_I2SEx_FullDuplex_IRQHandler+0x268>
 8003faa:	4b02      	ldr	r3, [pc, #8]	@ (8003fb4 <HAL_I2SEx_FullDuplex_IRQHandler+0x264>)
 8003fac:	e006      	b.n	8003fbc <HAL_I2SEx_FullDuplex_IRQHandler+0x26c>
 8003fae:	bf00      	nop
 8003fb0:	40003800 	.word	0x40003800
 8003fb4:	40003400 	.word	0x40003400
 8003fb8:	f04f 2340 	mov.w	r3, #1073758208	@ 0x40004000
 8003fbc:	f022 02a0 	bic.w	r2, r2, #160	@ 0xa0
 8003fc0:	605a      	str	r2, [r3, #4]
 8003fc2:	687b      	ldr	r3, [r7, #4]
 8003fc4:	681b      	ldr	r3, [r3, #0]
 8003fc6:	685a      	ldr	r2, [r3, #4]
 8003fc8:	687b      	ldr	r3, [r7, #4]
 8003fca:	681b      	ldr	r3, [r3, #0]
 8003fcc:	f022 0260 	bic.w	r2, r2, #96	@ 0x60
 8003fd0:	605a      	str	r2, [r3, #4]
 8003fd2:	687b      	ldr	r3, [r7, #4]
 8003fd4:	2201      	movs	r2, #1
 8003fd6:	f883 2041 	strb.w	r2, [r3, #65]	@ 0x41
 8003fda:	687b      	ldr	r3, [r7, #4]
 8003fdc:	6c5b      	ldr	r3, [r3, #68]	@ 0x44
 8003fde:	f043 0204 	orr.w	r2, r3, #4
 8003fe2:	687b      	ldr	r3, [r7, #4]
 8003fe4:	645a      	str	r2, [r3, #68]	@ 0x44
 8003fe6:	6878      	ldr	r0, [r7, #4]
 8003fe8:	f7ff fdc0 	bl	8003b6c <HAL_I2S_ErrorCallback>
 8003fec:	e000      	b.n	8003ff0 <HAL_I2SEx_FullDuplex_IRQHandler+0x2a0>
 8003fee:	bf00      	nop
 8003ff0:	bf00      	nop
 8003ff2:	3720      	adds	r7, #32
 8003ff4:	46bd      	mov	sp, r7
 8003ff6:	bd80      	pop	{r7, pc}

08003ff8 <HAL_I2SEx_TxRxCpltCallback>:
 8003ff8:	b480      	push	{r7}
 8003ffa:	b083      	sub	sp, #12
 8003ffc:	af00      	add	r7, sp, #0
 8003ffe:	6078      	str	r0, [r7, #4]
 8004000:	bf00      	nop
 8004002:	370c      	adds	r7, #12
 8004004:	46bd      	mov	sp, r7
 8004006:	f85d 7b04 	ldr.w	r7, [sp], #4
 800400a:	4770      	bx	lr

0800400c <I2SEx_TxISR_I2S>:
 800400c:	b580      	push	{r7, lr}
 800400e:	b082      	sub	sp, #8
 8004010:	af00      	add	r7, sp, #0
 8004012:	6078      	str	r0, [r7, #4]
 8004014:	687b      	ldr	r3, [r7, #4]
 8004016:	6a5b      	ldr	r3, [r3, #36]	@ 0x24
 8004018:	1c99      	adds	r1, r3, #2
 800401a:	687a      	ldr	r2, [r7, #4]
 800401c:	6251      	str	r1, [r2, #36]	@ 0x24
 800401e:	881a      	ldrh	r2, [r3, #0]
 8004020:	687b      	ldr	r3, [r7, #4]
 8004022:	681b      	ldr	r3, [r3, #0]
 8004024:	60da      	str	r2, [r3, #12]
 8004026:	687b      	ldr	r3, [r7, #4]
 8004028:	8d5b      	ldrh	r3, [r3, #42]	@ 0x2a
 800402a:	b29b      	uxth	r3, r3
 800402c:	3b01      	subs	r3, #1
 800402e:	b29a      	uxth	r2, r3
 8004030:	687b      	ldr	r3, [r7, #4]
 8004032:	855a      	strh	r2, [r3, #42]	@ 0x2a
 8004034:	687b      	ldr	r3, [r7, #4]
 8004036:	8d5b      	ldrh	r3, [r3, #42]	@ 0x2a
 8004038:	b29b      	uxth	r3, r3
 800403a:	2b00      	cmp	r3, #0
 800403c:	d113      	bne.n	8004066 <I2SEx_TxISR_I2S+0x5a>
 800403e:	687b      	ldr	r3, [r7, #4]
 8004040:	681b      	ldr	r3, [r3, #0]
 8004042:	685a      	ldr	r2, [r3, #4]
 8004044:	687b      	ldr	r3, [r7, #4]
 8004046:	681b      	ldr	r3, [r3, #0]
 8004048:	f022 02a0 	bic.w	r2, r2, #160	@ 0xa0
 800404c:	605a      	str	r2, [r3, #4]
 800404e:	687b      	ldr	r3, [r7, #4]
 8004050:	8e5b      	ldrh	r3, [r3, #50]	@ 0x32
 8004052:	b29b      	uxth	r3, r3
 8004054:	2b00      	cmp	r3, #0
 8004056:	d106      	bne.n	8004066 <I2SEx_TxISR_I2S+0x5a>
 8004058:	687b      	ldr	r3, [r7, #4]
 800405a:	2201      	movs	r2, #1
 800405c:	f883 2041 	strb.w	r2, [r3, #65]	@ 0x41
 8004060:	6878      	ldr	r0, [r7, #4]
 8004062:	f7ff ffc9 	bl	8003ff8 <HAL_I2SEx_TxRxCpltCallback>
 8004066:	bf00      	nop
 8004068:	3708      	adds	r7, #8
 800406a:	46bd      	mov	sp, r7
 800406c:	bd80      	pop	{r7, pc}
	...

08004070 <I2SEx_TxISR_I2SExt>:
 8004070:	b580      	push	{r7, lr}
 8004072:	b082      	sub	sp, #8
 8004074:	af00      	add	r7, sp, #0
 8004076:	6078      	str	r0, [r7, #4]
 8004078:	687b      	ldr	r3, [r7, #4]
 800407a:	6a5b      	ldr	r3, [r3, #36]	@ 0x24
 800407c:	1c99      	adds	r1, r3, #2
 800407e:	687a      	ldr	r2, [r7, #4]
 8004080:	6251      	str	r1, [r2, #36]	@ 0x24
 8004082:	8819      	ldrh	r1, [r3, #0]
 8004084:	687b      	ldr	r3, [r7, #4]
 8004086:	681b      	ldr	r3, [r3, #0]
 8004088:	4a1d      	ldr	r2, [pc, #116]	@ (8004100 <I2SEx_TxISR_I2SExt+0x90>)
 800408a:	4293      	cmp	r3, r2
 800408c:	d101      	bne.n	8004092 <I2SEx_TxISR_I2SExt+0x22>
 800408e:	4b1d      	ldr	r3, [pc, #116]	@ (8004104 <I2SEx_TxISR_I2SExt+0x94>)
 8004090:	e001      	b.n	8004096 <I2SEx_TxISR_I2SExt+0x26>
 8004092:	f04f 2340 	mov.w	r3, #1073758208	@ 0x40004000
 8004096:	460a      	mov	r2, r1
 8004098:	60da      	str	r2, [r3, #12]
 800409a:	687b      	ldr	r3, [r7, #4]
 800409c:	8d5b      	ldrh	r3, [r3, #42]	@ 0x2a
 800409e:	b29b      	uxth	r3, r3
 80040a0:	3b01      	subs	r3, #1
 80040a2:	b29a      	uxth	r2, r3
 80040a4:	687b      	ldr	r3, [r7, #4]
 80040a6:	855a      	strh	r2, [r3, #42]	@ 0x2a
 80040a8:	687b      	ldr	r3, [r7, #4]
 80040aa:	8d5b      	ldrh	r3, [r3, #42]	@ 0x2a
 80040ac:	b29b      	uxth	r3, r3
 80040ae:	2b00      	cmp	r3, #0
 80040b0:	d121      	bne.n	80040f6 <I2SEx_TxISR_I2SExt+0x86>
 80040b2:	687b      	ldr	r3, [r7, #4]
 80040b4:	681b      	ldr	r3, [r3, #0]
 80040b6:	4a12      	ldr	r2, [pc, #72]	@ (8004100 <I2SEx_TxISR_I2SExt+0x90>)
 80040b8:	4293      	cmp	r3, r2
 80040ba:	d101      	bne.n	80040c0 <I2SEx_TxISR_I2SExt+0x50>
 80040bc:	4b11      	ldr	r3, [pc, #68]	@ (8004104 <I2SEx_TxISR_I2SExt+0x94>)
 80040be:	e001      	b.n	80040c4 <I2SEx_TxISR_I2SExt+0x54>
 80040c0:	f04f 2340 	mov.w	r3, #1073758208	@ 0x40004000
 80040c4:	685a      	ldr	r2, [r3, #4]
 80040c6:	687b      	ldr	r3, [r7, #4]
 80040c8:	681b      	ldr	r3, [r3, #0]
 80040ca:	490d      	ldr	r1, [pc, #52]	@ (8004100 <I2SEx_TxISR_I2SExt+0x90>)
 80040cc:	428b      	cmp	r3, r1
 80040ce:	d101      	bne.n	80040d4 <I2SEx_TxISR_I2SExt+0x64>
 80040d0:	4b0c      	ldr	r3, [pc, #48]	@ (8004104 <I2SEx_TxISR_I2SExt+0x94>)
 80040d2:	e001      	b.n	80040d8 <I2SEx_TxISR_I2SExt+0x68>
 80040d4:	f04f 2340 	mov.w	r3, #1073758208	@ 0x40004000
 80040d8:	f022 02a0 	bic.w	r2, r2, #160	@ 0xa0
 80040dc:	605a      	str	r2, [r3, #4]
 80040de:	687b      	ldr	r3, [r7, #4]
 80040e0:	8e5b      	ldrh	r3, [r3, #50]	@ 0x32
 80040e2:	b29b      	uxth	r3, r3
 80040e4:	2b00      	cmp	r3, #0
 80040e6:	d106      	bne.n	80040f6 <I2SEx_TxISR_I2SExt+0x86>
 80040e8:	687b      	ldr	r3, [r7, #4]
 80040ea:	2201      	movs	r2, #1
 80040ec:	f883 2041 	strb.w	r2, [r3, #65]	@ 0x41
 80040f0:	6878      	ldr	r0, [r7, #4]
 80040f2:	f7ff ff81 	bl	8003ff8 <HAL_I2SEx_TxRxCpltCallback>
 80040f6:	bf00      	nop
 80040f8:	3708      	adds	r7, #8
 80040fa:	46bd      	mov	sp, r7
 80040fc:	bd80      	pop	{r7, pc}
 80040fe:	bf00      	nop
 8004100:	40003800 	.word	0x40003800
 8004104:	40003400 	.word	0x40003400

08004108 <I2SEx_RxISR_I2S>:
 8004108:	b580      	push	{r7, lr}
 800410a:	b082      	sub	sp, #8
 800410c:	af00      	add	r7, sp, #0
 800410e:	6078      	str	r0, [r7, #4]
 8004110:	687b      	ldr	r3, [r7, #4]
 8004112:	681b      	ldr	r3, [r3, #0]
 8004114:	68d8      	ldr	r0, [r3, #12]
 8004116:	687b      	ldr	r3, [r7, #4]
 8004118:	6adb      	ldr	r3, [r3, #44]	@ 0x2c
 800411a:	1c99      	adds	r1, r3, #2
 800411c:	687a      	ldr	r2, [r7, #4]
 800411e:	62d1      	str	r1, [r2, #44]	@ 0x2c
 8004120:	b282      	uxth	r2, r0
 8004122:	801a      	strh	r2, [r3, #0]
 8004124:	687b      	ldr	r3, [r7, #4]
 8004126:	8e5b      	ldrh	r3, [r3, #50]	@ 0x32
 8004128:	b29b      	uxth	r3, r3
 800412a:	3b01      	subs	r3, #1
 800412c:	b29a      	uxth	r2, r3
 800412e:	687b      	ldr	r3, [r7, #4]
 8004130:	865a      	strh	r2, [r3, #50]	@ 0x32
 8004132:	687b      	ldr	r3, [r7, #4]
 8004134:	8e5b      	ldrh	r3, [r3, #50]	@ 0x32
 8004136:	b29b      	uxth	r3, r3
 8004138:	2b00      	cmp	r3, #0
 800413a:	d113      	bne.n	8004164 <I2SEx_RxISR_I2S+0x5c>
 800413c:	687b      	ldr	r3, [r7, #4]
 800413e:	681b      	ldr	r3, [r3, #0]
 8004140:	685a      	ldr	r2, [r3, #4]
 8004142:	687b      	ldr	r3, [r7, #4]
 8004144:	681b      	ldr	r3, [r3, #0]
 8004146:	f022 0260 	bic.w	r2, r2, #96	@ 0x60
 800414a:	605a      	str	r2, [r3, #4]
 800414c:	687b      	ldr	r3, [r7, #4]
 800414e:	8d5b      	ldrh	r3, [r3, #42]	@ 0x2a
 8004150:	b29b      	uxth	r3, r3
 8004152:	2b00      	cmp	r3, #0
 8004154:	d106      	bne.n	8004164 <I2SEx_RxISR_I2S+0x5c>
 8004156:	687b      	ldr	r3, [r7, #4]
 8004158:	2201      	movs	r2, #1
 800415a:	f883 2041 	strb.w	r2, [r3, #65]	@ 0x41
 800415e:	6878      	ldr	r0, [r7, #4]
 8004160:	f7ff ff4a 	bl	8003ff8 <HAL_I2SEx_TxRxCpltCallback>
 8004164:	bf00      	nop
 8004166:	3708      	adds	r7, #8
 8004168:	46bd      	mov	sp, r7
 800416a:	bd80      	pop	{r7, pc}

0800416c <I2SEx_RxISR_I2SExt>:
 800416c:	b580      	push	{r7, lr}
 800416e:	b082      	sub	sp, #8
 8004170:	af00      	add	r7, sp, #0
 8004172:	6078      	str	r0, [r7, #4]
 8004174:	687b      	ldr	r3, [r7, #4]
 8004176:	681b      	ldr	r3, [r3, #0]
 8004178:	4a20      	ldr	r2, [pc, #128]	@ (80041fc <I2SEx_RxISR_I2SExt+0x90>)
 800417a:	4293      	cmp	r3, r2
 800417c:	d101      	bne.n	8004182 <I2SEx_RxISR_I2SExt+0x16>
 800417e:	4b20      	ldr	r3, [pc, #128]	@ (8004200 <I2SEx_RxISR_I2SExt+0x94>)
 8004180:	e001      	b.n	8004186 <I2SEx_RxISR_I2SExt+0x1a>
 8004182:	f04f 2340 	mov.w	r3, #1073758208	@ 0x40004000
 8004186:	68d8      	ldr	r0, [r3, #12]
 8004188:	687b      	ldr	r3, [r7, #4]
 800418a:	6adb      	ldr	r3, [r3, #44]	@ 0x2c
 800418c:	1c99      	adds	r1, r3, #2
 800418e:	687a      	ldr	r2, [r7, #4]
 8004190:	62d1      	str	r1, [r2, #44]	@ 0x2c
 8004192:	b282      	uxth	r2, r0
 8004194:	801a      	strh	r2, [r3, #0]
 8004196:	687b      	ldr	r3, [r7, #4]
 8004198:	8e5b      	ldrh	r3, [r3, #50]	@ 0x32
 800419a:	b29b      	uxth	r3, r3
 800419c:	3b01      	subs	r3, #1
 800419e:	b29a      	uxth	r2, r3
 80041a0:	687b      	ldr	r3, [r7, #4]
 80041a2:	865a      	strh	r2, [r3, #50]	@ 0x32
 80041a4:	687b      	ldr	r3, [r7, #4]
 80041a6:	8e5b      	ldrh	r3, [r3, #50]	@ 0x32
 80041a8:	b29b      	uxth	r3, r3
 80041aa:	2b00      	cmp	r3, #0
 80041ac:	d121      	bne.n	80041f2 <I2SEx_RxISR_I2SExt+0x86>
 80041ae:	687b      	ldr	r3, [r7, #4]
 80041b0:	681b      	ldr	r3, [r3, #0]
 80041b2:	4a12      	ldr	r2, [pc, #72]	@ (80041fc <I2SEx_RxISR_I2SExt+0x90>)
 80041b4:	4293      	cmp	r3, r2
 80041b6:	d101      	bne.n	80041bc <I2SEx_RxISR_I2SExt+0x50>
 80041b8:	4b11      	ldr	r3, [pc, #68]	@ (8004200 <I2SEx_RxISR_I2SExt+0x94>)
 80041ba:	e001      	b.n	80041c0 <I2SEx_RxISR_I2SExt+0x54>
 80041bc:	f04f 2340 	mov.w	r3, #1073758208	@ 0x40004000
 80041c0:	685a      	ldr	r2, [r3, #4]
 80041c2:	687b      	ldr	r3, [r7, #4]
 80041c4:	681b      	ldr	r3, [r3, #0]
 80041c6:	490d      	ldr	r1, [pc, #52]	@ (80041fc <I2SEx_RxISR_I2SExt+0x90>)
 80041c8:	428b      	cmp	r3, r1
 80041ca:	d101      	bne.n	80041d0 <I2SEx_RxISR_I2SExt+0x64>
 80041cc:	4b0c      	ldr	r3, [pc, #48]	@ (8004200 <I2SEx_RxISR_I2SExt+0x94>)
 80041ce:	e001      	b.n	80041d4 <I2SEx_RxISR_I2SExt+0x68>
 80041d0:	f04f 2340 	mov.w	r3, #1073758208	@ 0x40004000
 80041d4:	f022 0260 	bic.w	r2, r2, #96	@ 0x60
 80041d8:	605a      	str	r2, [r3, #4]
 80041da:	687b      	ldr	r3, [r7, #4]
 80041dc:	8d5b      	ldrh	r3, [r3, #42]	@ 0x2a
 80041de:	b29b      	uxth	r3, r3
 80041e0:	2b00      	cmp	r3, #0
 80041e2:	d106      	bne.n	80041f2 <I2SEx_RxISR_I2SExt+0x86>
 80041e4:	687b      	ldr	r3, [r7, #4]
 80041e6:	2201      	movs	r2, #1
 80041e8:	f883 2041 	strb.w	r2, [r3, #65]	@ 0x41
 80041ec:	6878      	ldr	r0, [r7, #4]
 80041ee:	f7ff ff03 	bl	8003ff8 <HAL_I2SEx_TxRxCpltCallback>
 80041f2:	bf00      	nop
 80041f4:	3708      	adds	r7, #8
 80041f6:	46bd      	mov	sp, r7
 80041f8:	bd80      	pop	{r7, pc}
 80041fa:	bf00      	nop
 80041fc:	40003800 	.word	0x40003800
 8004200:	40003400 	.word	0x40003400

08004204 <HAL_RCC_OscConfig>:
 8004204:	b580      	push	{r7, lr}
 8004206:	b086      	sub	sp, #24
 8004208:	af00      	add	r7, sp, #0
 800420a:	6078      	str	r0, [r7, #4]
 800420c:	687b      	ldr	r3, [r7, #4]
 800420e:	2b00      	cmp	r3, #0
 8004210:	d101      	bne.n	8004216 <HAL_RCC_OscConfig+0x12>
 8004212:	2301      	movs	r3, #1
 8004214:	e267      	b.n	80046e6 <HAL_RCC_OscConfig+0x4e2>
 8004216:	687b      	ldr	r3, [r7, #4]
 8004218:	681b      	ldr	r3, [r3, #0]
 800421a:	f003 0301 	and.w	r3, r3, #1
 800421e:	2b00      	cmp	r3, #0
 8004220:	d075      	beq.n	800430e <HAL_RCC_OscConfig+0x10a>
 8004222:	4b88      	ldr	r3, [pc, #544]	@ (8004444 <HAL_RCC_OscConfig+0x240>)
 8004224:	689b      	ldr	r3, [r3, #8]
 8004226:	f003 030c 	and.w	r3, r3, #12
 800422a:	2b04      	cmp	r3, #4
 800422c:	d00c      	beq.n	8004248 <HAL_RCC_OscConfig+0x44>
 800422e:	4b85      	ldr	r3, [pc, #532]	@ (8004444 <HAL_RCC_OscConfig+0x240>)
 8004230:	689b      	ldr	r3, [r3, #8]
 8004232:	f003 030c 	and.w	r3, r3, #12
 8004236:	2b08      	cmp	r3, #8
 8004238:	d112      	bne.n	8004260 <HAL_RCC_OscConfig+0x5c>
 800423a:	4b82      	ldr	r3, [pc, #520]	@ (8004444 <HAL_RCC_OscConfig+0x240>)
 800423c:	685b      	ldr	r3, [r3, #4]
 800423e:	f403 0380 	and.w	r3, r3, #4194304	@ 0x400000
 8004242:	f5b3 0f80 	cmp.w	r3, #4194304	@ 0x400000
 8004246:	d10b      	bne.n	8004260 <HAL_RCC_OscConfig+0x5c>
 8004248:	4b7e      	ldr	r3, [pc, #504]	@ (8004444 <HAL_RCC_OscConfig+0x240>)
 800424a:	681b      	ldr	r3, [r3, #0]
 800424c:	f403 3300 	and.w	r3, r3, #131072	@ 0x20000
 8004250:	2b00      	cmp	r3, #0
 8004252:	d05b      	beq.n	800430c <HAL_RCC_OscConfig+0x108>
 8004254:	687b      	ldr	r3, [r7, #4]
 8004256:	685b      	ldr	r3, [r3, #4]
 8004258:	2b00      	cmp	r3, #0
 800425a:	d157      	bne.n	800430c <HAL_RCC_OscConfig+0x108>
 800425c:	2301      	movs	r3, #1
 800425e:	e242      	b.n	80046e6 <HAL_RCC_OscConfig+0x4e2>
 8004260:	687b      	ldr	r3, [r7, #4]
 8004262:	685b      	ldr	r3, [r3, #4]
 8004264:	f5b3 3f80 	cmp.w	r3, #65536	@ 0x10000
 8004268:	d106      	bne.n	8004278 <HAL_RCC_OscConfig+0x74>
 800426a:	4b76      	ldr	r3, [pc, #472]	@ (8004444 <HAL_RCC_OscConfig+0x240>)
 800426c:	681b      	ldr	r3, [r3, #0]
 800426e:	4a75      	ldr	r2, [pc, #468]	@ (8004444 <HAL_RCC_OscConfig+0x240>)
 8004270:	f443 3380 	orr.w	r3, r3, #65536	@ 0x10000
 8004274:	6013      	str	r3, [r2, #0]
 8004276:	e01d      	b.n	80042b4 <HAL_RCC_OscConfig+0xb0>
 8004278:	687b      	ldr	r3, [r7, #4]
 800427a:	685b      	ldr	r3, [r3, #4]
 800427c:	f5b3 2fa0 	cmp.w	r3, #327680	@ 0x50000
 8004280:	d10c      	bne.n	800429c <HAL_RCC_OscConfig+0x98>
 8004282:	4b70      	ldr	r3, [pc, #448]	@ (8004444 <HAL_RCC_OscConfig+0x240>)
 8004284:	681b      	ldr	r3, [r3, #0]
 8004286:	4a6f      	ldr	r2, [pc, #444]	@ (8004444 <HAL_RCC_OscConfig+0x240>)
 8004288:	f443 2380 	orr.w	r3, r3, #262144	@ 0x40000
 800428c:	6013      	str	r3, [r2, #0]
 800428e:	4b6d      	ldr	r3, [pc, #436]	@ (8004444 <HAL_RCC_OscConfig+0x240>)
 8004290:	681b      	ldr	r3, [r3, #0]
 8004292:	4a6c      	ldr	r2, [pc, #432]	@ (8004444 <HAL_RCC_OscConfig+0x240>)
 8004294:	f443 3380 	orr.w	r3, r3, #65536	@ 0x10000
 8004298:	6013      	str	r3, [r2, #0]
 800429a:	e00b      	b.n	80042b4 <HAL_RCC_OscConfig+0xb0>
 800429c:	4b69      	ldr	r3, [pc, #420]	@ (8004444 <HAL_RCC_OscConfig+0x240>)
 800429e:	681b      	ldr	r3, [r3, #0]
 80042a0:	4a68      	ldr	r2, [pc, #416]	@ (8004444 <HAL_RCC_OscConfig+0x240>)
 80042a2:	f423 3380 	bic.w	r3, r3, #65536	@ 0x10000
 80042a6:	6013      	str	r3, [r2, #0]
 80042a8:	4b66      	ldr	r3, [pc, #408]	@ (8004444 <HAL_RCC_OscConfig+0x240>)
 80042aa:	681b      	ldr	r3, [r3, #0]
 80042ac:	4a65      	ldr	r2, [pc, #404]	@ (8004444 <HAL_RCC_OscConfig+0x240>)
 80042ae:	f423 2380 	bic.w	r3, r3, #262144	@ 0x40000
 80042b2:	6013      	str	r3, [r2, #0]
 80042b4:	687b      	ldr	r3, [r7, #4]
 80042b6:	685b      	ldr	r3, [r3, #4]
 80042b8:	2b00      	cmp	r3, #0
 80042ba:	d013      	beq.n	80042e4 <HAL_RCC_OscConfig+0xe0>
 80042bc:	f7fc fd94 	bl	8000de8 <HAL_GetTick>
 80042c0:	6138      	str	r0, [r7, #16]
 80042c2:	e008      	b.n	80042d6 <HAL_RCC_OscConfig+0xd2>
 80042c4:	f7fc fd90 	bl	8000de8 <HAL_GetTick>
 80042c8:	4602      	mov	r2, r0
 80042ca:	693b      	ldr	r3, [r7, #16]
 80042cc:	1ad3      	subs	r3, r2, r3
 80042ce:	2b64      	cmp	r3, #100	@ 0x64
 80042d0:	d901      	bls.n	80042d6 <HAL_RCC_OscConfig+0xd2>
 80042d2:	2303      	movs	r3, #3
 80042d4:	e207      	b.n	80046e6 <HAL_RCC_OscConfig+0x4e2>
 80042d6:	4b5b      	ldr	r3, [pc, #364]	@ (8004444 <HAL_RCC_OscConfig+0x240>)
 80042d8:	681b      	ldr	r3, [r3, #0]
 80042da:	f403 3300 	and.w	r3, r3, #131072	@ 0x20000
 80042de:	2b00      	cmp	r3, #0
 80042e0:	d0f0      	beq.n	80042c4 <HAL_RCC_OscConfig+0xc0>
 80042e2:	e014      	b.n	800430e <HAL_RCC_OscConfig+0x10a>
 80042e4:	f7fc fd80 	bl	8000de8 <HAL_GetTick>
 80042e8:	6138      	str	r0, [r7, #16]
 80042ea:	e008      	b.n	80042fe <HAL_RCC_OscConfig+0xfa>
 80042ec:	f7fc fd7c 	bl	8000de8 <HAL_GetTick>
 80042f0:	4602      	mov	r2, r0
 80042f2:	693b      	ldr	r3, [r7, #16]
 80042f4:	1ad3      	subs	r3, r2, r3
 80042f6:	2b64      	cmp	r3, #100	@ 0x64
 80042f8:	d901      	bls.n	80042fe <HAL_RCC_OscConfig+0xfa>
 80042fa:	2303      	movs	r3, #3
 80042fc:	e1f3      	b.n	80046e6 <HAL_RCC_OscConfig+0x4e2>
 80042fe:	4b51      	ldr	r3, [pc, #324]	@ (8004444 <HAL_RCC_OscConfig+0x240>)
 8004300:	681b      	ldr	r3, [r3, #0]
 8004302:	f403 3300 	and.w	r3, r3, #131072	@ 0x20000
 8004306:	2b00      	cmp	r3, #0
 8004308:	d1f0      	bne.n	80042ec <HAL_RCC_OscConfig+0xe8>
 800430a:	e000      	b.n	800430e <HAL_RCC_OscConfig+0x10a>
 800430c:	bf00      	nop
 800430e:	687b      	ldr	r3, [r7, #4]
 8004310:	681b      	ldr	r3, [r3, #0]
 8004312:	f003 0302 	and.w	r3, r3, #2
 8004316:	2b00      	cmp	r3, #0
 8004318:	d063      	beq.n	80043e2 <HAL_RCC_OscConfig+0x1de>
 800431a:	4b4a      	ldr	r3, [pc, #296]	@ (8004444 <HAL_RCC_OscConfig+0x240>)
 800431c:	689b      	ldr	r3, [r3, #8]
 800431e:	f003 030c 	and.w	r3, r3, #12
 8004322:	2b00      	cmp	r3, #0
 8004324:	d00b      	beq.n	800433e <HAL_RCC_OscConfig+0x13a>
 8004326:	4b47      	ldr	r3, [pc, #284]	@ (8004444 <HAL_RCC_OscConfig+0x240>)
 8004328:	689b      	ldr	r3, [r3, #8]
 800432a:	f003 030c 	and.w	r3, r3, #12
 800432e:	2b08      	cmp	r3, #8
 8004330:	d11c      	bne.n	800436c <HAL_RCC_OscConfig+0x168>
 8004332:	4b44      	ldr	r3, [pc, #272]	@ (8004444 <HAL_RCC_OscConfig+0x240>)
 8004334:	685b      	ldr	r3, [r3, #4]
 8004336:	f403 0380 	and.w	r3, r3, #4194304	@ 0x400000
 800433a:	2b00      	cmp	r3, #0
 800433c:	d116      	bne.n	800436c <HAL_RCC_OscConfig+0x168>
 800433e:	4b41      	ldr	r3, [pc, #260]	@ (8004444 <HAL_RCC_OscConfig+0x240>)
 8004340:	681b      	ldr	r3, [r3, #0]
 8004342:	f003 0302 	and.w	r3, r3, #2
 8004346:	2b00      	cmp	r3, #0
 8004348:	d005      	beq.n	8004356 <HAL_RCC_OscConfig+0x152>
 800434a:	687b      	ldr	r3, [r7, #4]
 800434c:	68db      	ldr	r3, [r3, #12]
 800434e:	2b01      	cmp	r3, #1
 8004350:	d001      	beq.n	8004356 <HAL_RCC_OscConfig+0x152>
 8004352:	2301      	movs	r3, #1
 8004354:	e1c7      	b.n	80046e6 <HAL_RCC_OscConfig+0x4e2>
 8004356:	4b3b      	ldr	r3, [pc, #236]	@ (8004444 <HAL_RCC_OscConfig+0x240>)
 8004358:	681b      	ldr	r3, [r3, #0]
 800435a:	f023 02f8 	bic.w	r2, r3, #248	@ 0xf8
 800435e:	687b      	ldr	r3, [r7, #4]
 8004360:	691b      	ldr	r3, [r3, #16]
 8004362:	00db      	lsls	r3, r3, #3
 8004364:	4937      	ldr	r1, [pc, #220]	@ (8004444 <HAL_RCC_OscConfig+0x240>)
 8004366:	4313      	orrs	r3, r2
 8004368:	600b      	str	r3, [r1, #0]
 800436a:	e03a      	b.n	80043e2 <HAL_RCC_OscConfig+0x1de>
 800436c:	687b      	ldr	r3, [r7, #4]
 800436e:	68db      	ldr	r3, [r3, #12]
 8004370:	2b00      	cmp	r3, #0
 8004372:	d020      	beq.n	80043b6 <HAL_RCC_OscConfig+0x1b2>
 8004374:	4b34      	ldr	r3, [pc, #208]	@ (8004448 <HAL_RCC_OscConfig+0x244>)
 8004376:	2201      	movs	r2, #1
 8004378:	601a      	str	r2, [r3, #0]
 800437a:	f7fc fd35 	bl	8000de8 <HAL_GetTick>
 800437e:	6138      	str	r0, [r7, #16]
 8004380:	e008      	b.n	8004394 <HAL_RCC_OscConfig+0x190>
 8004382:	f7fc fd31 	bl	8000de8 <HAL_GetTick>
 8004386:	4602      	mov	r2, r0
 8004388:	693b      	ldr	r3, [r7, #16]
 800438a:	1ad3      	subs	r3, r2, r3
 800438c:	2b02      	cmp	r3, #2
 800438e:	d901      	bls.n	8004394 <HAL_RCC_OscConfig+0x190>
 8004390:	2303      	movs	r3, #3
 8004392:	e1a8      	b.n	80046e6 <HAL_RCC_OscConfig+0x4e2>
 8004394:	4b2b      	ldr	r3, [pc, #172]	@ (8004444 <HAL_RCC_OscConfig+0x240>)
 8004396:	681b      	ldr	r3, [r3, #0]
 8004398:	f003 0302 	and.w	r3, r3, #2
 800439c:	2b00      	cmp	r3, #0
 800439e:	d0f0      	beq.n	8004382 <HAL_RCC_OscConfig+0x17e>
 80043a0:	4b28      	ldr	r3, [pc, #160]	@ (8004444 <HAL_RCC_OscConfig+0x240>)
 80043a2:	681b      	ldr	r3, [r3, #0]
 80043a4:	f023 02f8 	bic.w	r2, r3, #248	@ 0xf8
 80043a8:	687b      	ldr	r3, [r7, #4]
 80043aa:	691b      	ldr	r3, [r3, #16]
 80043ac:	00db      	lsls	r3, r3, #3
 80043ae:	4925      	ldr	r1, [pc, #148]	@ (8004444 <HAL_RCC_OscConfig+0x240>)
 80043b0:	4313      	orrs	r3, r2
 80043b2:	600b      	str	r3, [r1, #0]
 80043b4:	e015      	b.n	80043e2 <HAL_RCC_OscConfig+0x1de>
 80043b6:	4b24      	ldr	r3, [pc, #144]	@ (8004448 <HAL_RCC_OscConfig+0x244>)
 80043b8:	2200      	movs	r2, #0
 80043ba:	601a      	str	r2, [r3, #0]
 80043bc:	f7fc fd14 	bl	8000de8 <HAL_GetTick>
 80043c0:	6138      	str	r0, [r7, #16]
 80043c2:	e008      	b.n	80043d6 <HAL_RCC_OscConfig+0x1d2>
 80043c4:	f7fc fd10 	bl	8000de8 <HAL_GetTick>
 80043c8:	4602      	mov	r2, r0
 80043ca:	693b      	ldr	r3, [r7, #16]
 80043cc:	1ad3      	subs	r3, r2, r3
 80043ce:	2b02      	cmp	r3, #2
 80043d0:	d901      	bls.n	80043d6 <HAL_RCC_OscConfig+0x1d2>
 80043d2:	2303      	movs	r3, #3
 80043d4:	e187      	b.n	80046e6 <HAL_RCC_OscConfig+0x4e2>
 80043d6:	4b1b      	ldr	r3, [pc, #108]	@ (8004444 <HAL_RCC_OscConfig+0x240>)
 80043d8:	681b      	ldr	r3, [r3, #0]
 80043da:	f003 0302 	and.w	r3, r3, #2
 80043de:	2b00      	cmp	r3, #0
 80043e0:	d1f0      	bne.n	80043c4 <HAL_RCC_OscConfig+0x1c0>
 80043e2:	687b      	ldr	r3, [r7, #4]
 80043e4:	681b      	ldr	r3, [r3, #0]
 80043e6:	f003 0308 	and.w	r3, r3, #8
 80043ea:	2b00      	cmp	r3, #0
 80043ec:	d036      	beq.n	800445c <HAL_RCC_OscConfig+0x258>
 80043ee:	687b      	ldr	r3, [r7, #4]
 80043f0:	695b      	ldr	r3, [r3, #20]
 80043f2:	2b00      	cmp	r3, #0
 80043f4:	d016      	beq.n	8004424 <HAL_RCC_OscConfig+0x220>
 80043f6:	4b15      	ldr	r3, [pc, #84]	@ (800444c <HAL_RCC_OscConfig+0x248>)
 80043f8:	2201      	movs	r2, #1
 80043fa:	601a      	str	r2, [r3, #0]
 80043fc:	f7fc fcf4 	bl	8000de8 <HAL_GetTick>
 8004400:	6138      	str	r0, [r7, #16]
 8004402:	e008      	b.n	8004416 <HAL_RCC_OscConfig+0x212>
 8004404:	f7fc fcf0 	bl	8000de8 <HAL_GetTick>
 8004408:	4602      	mov	r2, r0
 800440a:	693b      	ldr	r3, [r7, #16]
 800440c:	1ad3      	subs	r3, r2, r3
 800440e:	2b02      	cmp	r3, #2
 8004410:	d901      	bls.n	8004416 <HAL_RCC_OscConfig+0x212>
 8004412:	2303      	movs	r3, #3
 8004414:	e167      	b.n	80046e6 <HAL_RCC_OscConfig+0x4e2>
 8004416:	4b0b      	ldr	r3, [pc, #44]	@ (8004444 <HAL_RCC_OscConfig+0x240>)
 8004418:	6f5b      	ldr	r3, [r3, #116]	@ 0x74
 800441a:	f003 0302 	and.w	r3, r3, #2
 800441e:	2b00      	cmp	r3, #0
 8004420:	d0f0      	beq.n	8004404 <HAL_RCC_OscConfig+0x200>
 8004422:	e01b      	b.n	800445c <HAL_RCC_OscConfig+0x258>
 8004424:	4b09      	ldr	r3, [pc, #36]	@ (800444c <HAL_RCC_OscConfig+0x248>)
 8004426:	2200      	movs	r2, #0
 8004428:	601a      	str	r2, [r3, #0]
 800442a:	f7fc fcdd 	bl	8000de8 <HAL_GetTick>
 800442e:	6138      	str	r0, [r7, #16]
 8004430:	e00e      	b.n	8004450 <HAL_RCC_OscConfig+0x24c>
 8004432:	f7fc fcd9 	bl	8000de8 <HAL_GetTick>
 8004436:	4602      	mov	r2, r0
 8004438:	693b      	ldr	r3, [r7, #16]
 800443a:	1ad3      	subs	r3, r2, r3
 800443c:	2b02      	cmp	r3, #2
 800443e:	d907      	bls.n	8004450 <HAL_RCC_OscConfig+0x24c>
 8004440:	2303      	movs	r3, #3
 8004442:	e150      	b.n	80046e6 <HAL_RCC_OscConfig+0x4e2>
 8004444:	40023800 	.word	0x40023800
 8004448:	42470000 	.word	0x42470000
 800444c:	42470e80 	.word	0x42470e80
 8004450:	4b88      	ldr	r3, [pc, #544]	@ (8004674 <HAL_RCC_OscConfig+0x470>)
 8004452:	6f5b      	ldr	r3, [r3, #116]	@ 0x74
 8004454:	f003 0302 	and.w	r3, r3, #2
 8004458:	2b00      	cmp	r3, #0
 800445a:	d1ea      	bne.n	8004432 <HAL_RCC_OscConfig+0x22e>
 800445c:	687b      	ldr	r3, [r7, #4]
 800445e:	681b      	ldr	r3, [r3, #0]
 8004460:	f003 0304 	and.w	r3, r3, #4
 8004464:	2b00      	cmp	r3, #0
 8004466:	f000 8097 	beq.w	8004598 <HAL_RCC_OscConfig+0x394>
 800446a:	2300      	movs	r3, #0
 800446c:	75fb      	strb	r3, [r7, #23]
 800446e:	4b81      	ldr	r3, [pc, #516]	@ (8004674 <HAL_RCC_OscConfig+0x470>)
 8004470:	6c1b      	ldr	r3, [r3, #64]	@ 0x40
 8004472:	f003 5380 	and.w	r3, r3, #268435456	@ 0x10000000
 8004476:	2b00      	cmp	r3, #0
 8004478:	d10f      	bne.n	800449a <HAL_RCC_OscConfig+0x296>
 800447a:	2300      	movs	r3, #0
 800447c:	60bb      	str	r3, [r7, #8]
 800447e:	4b7d      	ldr	r3, [pc, #500]	@ (8004674 <HAL_RCC_OscConfig+0x470>)
 8004480:	6c1b      	ldr	r3, [r3, #64]	@ 0x40
 8004482:	4a7c      	ldr	r2, [pc, #496]	@ (8004674 <HAL_RCC_OscConfig+0x470>)
 8004484:	f043 5380 	orr.w	r3, r3, #268435456	@ 0x10000000
 8004488:	6413      	str	r3, [r2, #64]	@ 0x40
 800448a:	4b7a      	ldr	r3, [pc, #488]	@ (8004674 <HAL_RCC_OscConfig+0x470>)
 800448c:	6c1b      	ldr	r3, [r3, #64]	@ 0x40
 800448e:	f003 5380 	and.w	r3, r3, #268435456	@ 0x10000000
 8004492:	60bb      	str	r3, [r7, #8]
 8004494:	68bb      	ldr	r3, [r7, #8]
 8004496:	2301      	movs	r3, #1
 8004498:	75fb      	strb	r3, [r7, #23]
 800449a:	4b77      	ldr	r3, [pc, #476]	@ (8004678 <HAL_RCC_OscConfig+0x474>)
 800449c:	681b      	ldr	r3, [r3, #0]
 800449e:	f403 7380 	and.w	r3, r3, #256	@ 0x100
 80044a2:	2b00      	cmp	r3, #0
 80044a4:	d118      	bne.n	80044d8 <HAL_RCC_OscConfig+0x2d4>
 80044a6:	4b74      	ldr	r3, [pc, #464]	@ (8004678 <HAL_RCC_OscConfig+0x474>)
 80044a8:	681b      	ldr	r3, [r3, #0]
 80044aa:	4a73      	ldr	r2, [pc, #460]	@ (8004678 <HAL_RCC_OscConfig+0x474>)
 80044ac:	f443 7380 	orr.w	r3, r3, #256	@ 0x100
 80044b0:	6013      	str	r3, [r2, #0]
 80044b2:	f7fc fc99 	bl	8000de8 <HAL_GetTick>
 80044b6:	6138      	str	r0, [r7, #16]
 80044b8:	e008      	b.n	80044cc <HAL_RCC_OscConfig+0x2c8>
 80044ba:	f7fc fc95 	bl	8000de8 <HAL_GetTick>
 80044be:	4602      	mov	r2, r0
 80044c0:	693b      	ldr	r3, [r7, #16]
 80044c2:	1ad3      	subs	r3, r2, r3
 80044c4:	2b02      	cmp	r3, #2
 80044c6:	d901      	bls.n	80044cc <HAL_RCC_OscConfig+0x2c8>
 80044c8:	2303      	movs	r3, #3
 80044ca:	e10c      	b.n	80046e6 <HAL_RCC_OscConfig+0x4e2>
 80044cc:	4b6a      	ldr	r3, [pc, #424]	@ (8004678 <HAL_RCC_OscConfig+0x474>)
 80044ce:	681b      	ldr	r3, [r3, #0]
 80044d0:	f403 7380 	and.w	r3, r3, #256	@ 0x100
 80044d4:	2b00      	cmp	r3, #0
 80044d6:	d0f0      	beq.n	80044ba <HAL_RCC_OscConfig+0x2b6>
 80044d8:	687b      	ldr	r3, [r7, #4]
 80044da:	689b      	ldr	r3, [r3, #8]
 80044dc:	2b01      	cmp	r3, #1
 80044de:	d106      	bne.n	80044ee <HAL_RCC_OscConfig+0x2ea>
 80044e0:	4b64      	ldr	r3, [pc, #400]	@ (8004674 <HAL_RCC_OscConfig+0x470>)
 80044e2:	6f1b      	ldr	r3, [r3, #112]	@ 0x70
 80044e4:	4a63      	ldr	r2, [pc, #396]	@ (8004674 <HAL_RCC_OscConfig+0x470>)
 80044e6:	f043 0301 	orr.w	r3, r3, #1
 80044ea:	6713      	str	r3, [r2, #112]	@ 0x70
 80044ec:	e01c      	b.n	8004528 <HAL_RCC_OscConfig+0x324>
 80044ee:	687b      	ldr	r3, [r7, #4]
 80044f0:	689b      	ldr	r3, [r3, #8]
 80044f2:	2b05      	cmp	r3, #5
 80044f4:	d10c      	bne.n	8004510 <HAL_RCC_OscConfig+0x30c>
 80044f6:	4b5f      	ldr	r3, [pc, #380]	@ (8004674 <HAL_RCC_OscConfig+0x470>)
 80044f8:	6f1b      	ldr	r3, [r3, #112]	@ 0x70
 80044fa:	4a5e      	ldr	r2, [pc, #376]	@ (8004674 <HAL_RCC_OscConfig+0x470>)
 80044fc:	f043 0304 	orr.w	r3, r3, #4
 8004500:	6713      	str	r3, [r2, #112]	@ 0x70
 8004502:	4b5c      	ldr	r3, [pc, #368]	@ (8004674 <HAL_RCC_OscConfig+0x470>)
 8004504:	6f1b      	ldr	r3, [r3, #112]	@ 0x70
 8004506:	4a5b      	ldr	r2, [pc, #364]	@ (8004674 <HAL_RCC_OscConfig+0x470>)
 8004508:	f043 0301 	orr.w	r3, r3, #1
 800450c:	6713      	str	r3, [r2, #112]	@ 0x70
 800450e:	e00b      	b.n	8004528 <HAL_RCC_OscConfig+0x324>
 8004510:	4b58      	ldr	r3, [pc, #352]	@ (8004674 <HAL_RCC_OscConfig+0x470>)
 8004512:	6f1b      	ldr	r3, [r3, #112]	@ 0x70
 8004514:	4a57      	ldr	r2, [pc, #348]	@ (8004674 <HAL_RCC_OscConfig+0x470>)
 8004516:	f023 0301 	bic.w	r3, r3, #1
 800451a:	6713      	str	r3, [r2, #112]	@ 0x70
 800451c:	4b55      	ldr	r3, [pc, #340]	@ (8004674 <HAL_RCC_OscConfig+0x470>)
 800451e:	6f1b      	ldr	r3, [r3, #112]	@ 0x70
 8004520:	4a54      	ldr	r2, [pc, #336]	@ (8004674 <HAL_RCC_OscConfig+0x470>)
 8004522:	f023 0304 	bic.w	r3, r3, #4
 8004526:	6713      	str	r3, [r2, #112]	@ 0x70
 8004528:	687b      	ldr	r3, [r7, #4]
 800452a:	689b      	ldr	r3, [r3, #8]
 800452c:	2b00      	cmp	r3, #0
 800452e:	d015      	beq.n	800455c <HAL_RCC_OscConfig+0x358>
 8004530:	f7fc fc5a 	bl	8000de8 <HAL_GetTick>
 8004534:	6138      	str	r0, [r7, #16]
 8004536:	e00a      	b.n	800454e <HAL_RCC_OscConfig+0x34a>
 8004538:	f7fc fc56 	bl	8000de8 <HAL_GetTick>
 800453c:	4602      	mov	r2, r0
 800453e:	693b      	ldr	r3, [r7, #16]
 8004540:	1ad3      	subs	r3, r2, r3
 8004542:	f241 3288 	movw	r2, #5000	@ 0x1388
 8004546:	4293      	cmp	r3, r2
 8004548:	d901      	bls.n	800454e <HAL_RCC_OscConfig+0x34a>
 800454a:	2303      	movs	r3, #3
 800454c:	e0cb      	b.n	80046e6 <HAL_RCC_OscConfig+0x4e2>
 800454e:	4b49      	ldr	r3, [pc, #292]	@ (8004674 <HAL_RCC_OscConfig+0x470>)
 8004550:	6f1b      	ldr	r3, [r3, #112]	@ 0x70
 8004552:	f003 0302 	and.w	r3, r3, #2
 8004556:	2b00      	cmp	r3, #0
 8004558:	d0ee      	beq.n	8004538 <HAL_RCC_OscConfig+0x334>
 800455a:	e014      	b.n	8004586 <HAL_RCC_OscConfig+0x382>
 800455c:	f7fc fc44 	bl	8000de8 <HAL_GetTick>
 8004560:	6138      	str	r0, [r7, #16]
 8004562:	e00a      	b.n	800457a <HAL_RCC_OscConfig+0x376>
 8004564:	f7fc fc40 	bl	8000de8 <HAL_GetTick>
 8004568:	4602      	mov	r2, r0
 800456a:	693b      	ldr	r3, [r7, #16]
 800456c:	1ad3      	subs	r3, r2, r3
 800456e:	f241 3288 	movw	r2, #5000	@ 0x1388
 8004572:	4293      	cmp	r3, r2
 8004574:	d901      	bls.n	800457a <HAL_RCC_OscConfig+0x376>
 8004576:	2303      	movs	r3, #3
 8004578:	e0b5      	b.n	80046e6 <HAL_RCC_OscConfig+0x4e2>
 800457a:	4b3e      	ldr	r3, [pc, #248]	@ (8004674 <HAL_RCC_OscConfig+0x470>)
 800457c:	6f1b      	ldr	r3, [r3, #112]	@ 0x70
 800457e:	f003 0302 	and.w	r3, r3, #2
 8004582:	2b00      	cmp	r3, #0
 8004584:	d1ee      	bne.n	8004564 <HAL_RCC_OscConfig+0x360>
 8004586:	7dfb      	ldrb	r3, [r7, #23]
 8004588:	2b01      	cmp	r3, #1
 800458a:	d105      	bne.n	8004598 <HAL_RCC_OscConfig+0x394>
 800458c:	4b39      	ldr	r3, [pc, #228]	@ (8004674 <HAL_RCC_OscConfig+0x470>)
 800458e:	6c1b      	ldr	r3, [r3, #64]	@ 0x40
 8004590:	4a38      	ldr	r2, [pc, #224]	@ (8004674 <HAL_RCC_OscConfig+0x470>)
 8004592:	f023 5380 	bic.w	r3, r3, #268435456	@ 0x10000000
 8004596:	6413      	str	r3, [r2, #64]	@ 0x40
 8004598:	687b      	ldr	r3, [r7, #4]
 800459a:	699b      	ldr	r3, [r3, #24]
 800459c:	2b00      	cmp	r3, #0
 800459e:	f000 80a1 	beq.w	80046e4 <HAL_RCC_OscConfig+0x4e0>
 80045a2:	4b34      	ldr	r3, [pc, #208]	@ (8004674 <HAL_RCC_OscConfig+0x470>)
 80045a4:	689b      	ldr	r3, [r3, #8]
 80045a6:	f003 030c 	and.w	r3, r3, #12
 80045aa:	2b08      	cmp	r3, #8
 80045ac:	d05c      	beq.n	8004668 <HAL_RCC_OscConfig+0x464>
 80045ae:	687b      	ldr	r3, [r7, #4]
 80045b0:	699b      	ldr	r3, [r3, #24]
 80045b2:	2b02      	cmp	r3, #2
 80045b4:	d141      	bne.n	800463a <HAL_RCC_OscConfig+0x436>
 80045b6:	4b31      	ldr	r3, [pc, #196]	@ (800467c <HAL_RCC_OscConfig+0x478>)
 80045b8:	2200      	movs	r2, #0
 80045ba:	601a      	str	r2, [r3, #0]
 80045bc:	f7fc fc14 	bl	8000de8 <HAL_GetTick>
 80045c0:	6138      	str	r0, [r7, #16]
 80045c2:	e008      	b.n	80045d6 <HAL_RCC_OscConfig+0x3d2>
 80045c4:	f7fc fc10 	bl	8000de8 <HAL_GetTick>
 80045c8:	4602      	mov	r2, r0
 80045ca:	693b      	ldr	r3, [r7, #16]
 80045cc:	1ad3      	subs	r3, r2, r3
 80045ce:	2b02      	cmp	r3, #2
 80045d0:	d901      	bls.n	80045d6 <HAL_RCC_OscConfig+0x3d2>
 80045d2:	2303      	movs	r3, #3
 80045d4:	e087      	b.n	80046e6 <HAL_RCC_OscConfig+0x4e2>
 80045d6:	4b27      	ldr	r3, [pc, #156]	@ (8004674 <HAL_RCC_OscConfig+0x470>)
 80045d8:	681b      	ldr	r3, [r3, #0]
 80045da:	f003 7300 	and.w	r3, r3, #33554432	@ 0x2000000
 80045de:	2b00      	cmp	r3, #0
 80045e0:	d1f0      	bne.n	80045c4 <HAL_RCC_OscConfig+0x3c0>
 80045e2:	687b      	ldr	r3, [r7, #4]
 80045e4:	69da      	ldr	r2, [r3, #28]
 80045e6:	687b      	ldr	r3, [r7, #4]
 80045e8:	6a1b      	ldr	r3, [r3, #32]
 80045ea:	431a      	orrs	r2, r3
 80045ec:	687b      	ldr	r3, [r7, #4]
 80045ee:	6a5b      	ldr	r3, [r3, #36]	@ 0x24
 80045f0:	019b      	lsls	r3, r3, #6
 80045f2:	431a      	orrs	r2, r3
 80045f4:	687b      	ldr	r3, [r7, #4]
 80045f6:	6a9b      	ldr	r3, [r3, #40]	@ 0x28
 80045f8:	085b      	lsrs	r3, r3, #1
 80045fa:	3b01      	subs	r3, #1
 80045fc:	041b      	lsls	r3, r3, #16
 80045fe:	431a      	orrs	r2, r3
 8004600:	687b      	ldr	r3, [r7, #4]
 8004602:	6adb      	ldr	r3, [r3, #44]	@ 0x2c
 8004604:	061b      	lsls	r3, r3, #24
 8004606:	491b      	ldr	r1, [pc, #108]	@ (8004674 <HAL_RCC_OscConfig+0x470>)
 8004608:	4313      	orrs	r3, r2
 800460a:	604b      	str	r3, [r1, #4]
 800460c:	4b1b      	ldr	r3, [pc, #108]	@ (800467c <HAL_RCC_OscConfig+0x478>)
 800460e:	2201      	movs	r2, #1
 8004610:	601a      	str	r2, [r3, #0]
 8004612:	f7fc fbe9 	bl	8000de8 <HAL_GetTick>
 8004616:	6138      	str	r0, [r7, #16]
 8004618:	e008      	b.n	800462c <HAL_RCC_OscConfig+0x428>
 800461a:	f7fc fbe5 	bl	8000de8 <HAL_GetTick>
 800461e:	4602      	mov	r2, r0
 8004620:	693b      	ldr	r3, [r7, #16]
 8004622:	1ad3      	subs	r3, r2, r3
 8004624:	2b02      	cmp	r3, #2
 8004626:	d901      	bls.n	800462c <HAL_RCC_OscConfig+0x428>
 8004628:	2303      	movs	r3, #3
 800462a:	e05c      	b.n	80046e6 <HAL_RCC_OscConfig+0x4e2>
 800462c:	4b11      	ldr	r3, [pc, #68]	@ (8004674 <HAL_RCC_OscConfig+0x470>)
 800462e:	681b      	ldr	r3, [r3, #0]
 8004630:	f003 7300 	and.w	r3, r3, #33554432	@ 0x2000000
 8004634:	2b00      	cmp	r3, #0
 8004636:	d0f0      	beq.n	800461a <HAL_RCC_OscConfig+0x416>
 8004638:	e054      	b.n	80046e4 <HAL_RCC_OscConfig+0x4e0>
 800463a:	4b10      	ldr	r3, [pc, #64]	@ (800467c <HAL_RCC_OscConfig+0x478>)
 800463c:	2200      	movs	r2, #0
 800463e:	601a      	str	r2, [r3, #0]
 8004640:	f7fc fbd2 	bl	8000de8 <HAL_GetTick>
 8004644:	6138      	str	r0, [r7, #16]
 8004646:	e008      	b.n	800465a <HAL_RCC_OscConfig+0x456>
 8004648:	f7fc fbce 	bl	8000de8 <HAL_GetTick>
 800464c:	4602      	mov	r2, r0
 800464e:	693b      	ldr	r3, [r7, #16]
 8004650:	1ad3      	subs	r3, r2, r3
 8004652:	2b02      	cmp	r3, #2
 8004654:	d901      	bls.n	800465a <HAL_RCC_OscConfig+0x456>
 8004656:	2303      	movs	r3, #3
 8004658:	e045      	b.n	80046e6 <HAL_RCC_OscConfig+0x4e2>
 800465a:	4b06      	ldr	r3, [pc, #24]	@ (8004674 <HAL_RCC_OscConfig+0x470>)
 800465c:	681b      	ldr	r3, [r3, #0]
 800465e:	f003 7300 	and.w	r3, r3, #33554432	@ 0x2000000
 8004662:	2b00      	cmp	r3, #0
 8004664:	d1f0      	bne.n	8004648 <HAL_RCC_OscConfig+0x444>
 8004666:	e03d      	b.n	80046e4 <HAL_RCC_OscConfig+0x4e0>
 8004668:	687b      	ldr	r3, [r7, #4]
 800466a:	699b      	ldr	r3, [r3, #24]
 800466c:	2b01      	cmp	r3, #1
 800466e:	d107      	bne.n	8004680 <HAL_RCC_OscConfig+0x47c>
 8004670:	2301      	movs	r3, #1
 8004672:	e038      	b.n	80046e6 <HAL_RCC_OscConfig+0x4e2>
 8004674:	40023800 	.word	0x40023800
 8004678:	40007000 	.word	0x40007000
 800467c:	42470060 	.word	0x42470060
 8004680:	4b1b      	ldr	r3, [pc, #108]	@ (80046f0 <HAL_RCC_OscConfig+0x4ec>)
 8004682:	685b      	ldr	r3, [r3, #4]
 8004684:	60fb      	str	r3, [r7, #12]
 8004686:	687b      	ldr	r3, [r7, #4]
 8004688:	699b      	ldr	r3, [r3, #24]
 800468a:	2b01      	cmp	r3, #1
 800468c:	d028      	beq.n	80046e0 <HAL_RCC_OscConfig+0x4dc>
 800468e:	68fb      	ldr	r3, [r7, #12]
 8004690:	f403 0280 	and.w	r2, r3, #4194304	@ 0x400000
 8004694:	687b      	ldr	r3, [r7, #4]
 8004696:	69db      	ldr	r3, [r3, #28]
 8004698:	429a      	cmp	r2, r3
 800469a:	d121      	bne.n	80046e0 <HAL_RCC_OscConfig+0x4dc>
 800469c:	68fb      	ldr	r3, [r7, #12]
 800469e:	f003 023f 	and.w	r2, r3, #63	@ 0x3f
 80046a2:	687b      	ldr	r3, [r7, #4]
 80046a4:	6a1b      	ldr	r3, [r3, #32]
 80046a6:	429a      	cmp	r2, r3
 80046a8:	d11a      	bne.n	80046e0 <HAL_RCC_OscConfig+0x4dc>
 80046aa:	68fa      	ldr	r2, [r7, #12]
 80046ac:	f647 73c0 	movw	r3, #32704	@ 0x7fc0
 80046b0:	4013      	ands	r3, r2
 80046b2:	687a      	ldr	r2, [r7, #4]
 80046b4:	6a52      	ldr	r2, [r2, #36]	@ 0x24
 80046b6:	0192      	lsls	r2, r2, #6
 80046b8:	4293      	cmp	r3, r2
 80046ba:	d111      	bne.n	80046e0 <HAL_RCC_OscConfig+0x4dc>
 80046bc:	68fb      	ldr	r3, [r7, #12]
 80046be:	f403 3240 	and.w	r2, r3, #196608	@ 0x30000
 80046c2:	687b      	ldr	r3, [r7, #4]
 80046c4:	6a9b      	ldr	r3, [r3, #40]	@ 0x28
 80046c6:	085b      	lsrs	r3, r3, #1
 80046c8:	3b01      	subs	r3, #1
 80046ca:	041b      	lsls	r3, r3, #16
 80046cc:	429a      	cmp	r2, r3
 80046ce:	d107      	bne.n	80046e0 <HAL_RCC_OscConfig+0x4dc>
 80046d0:	68fb      	ldr	r3, [r7, #12]
 80046d2:	f003 6270 	and.w	r2, r3, #251658240	@ 0xf000000
 80046d6:	687b      	ldr	r3, [r7, #4]
 80046d8:	6adb      	ldr	r3, [r3, #44]	@ 0x2c
 80046da:	061b      	lsls	r3, r3, #24
 80046dc:	429a      	cmp	r2, r3
 80046de:	d001      	beq.n	80046e4 <HAL_RCC_OscConfig+0x4e0>
 80046e0:	2301      	movs	r3, #1
 80046e2:	e000      	b.n	80046e6 <HAL_RCC_OscConfig+0x4e2>
 80046e4:	2300      	movs	r3, #0
 80046e6:	4618      	mov	r0, r3
 80046e8:	3718      	adds	r7, #24
 80046ea:	46bd      	mov	sp, r7
 80046ec:	bd80      	pop	{r7, pc}
 80046ee:	bf00      	nop
 80046f0:	40023800 	.word	0x40023800

080046f4 <HAL_RCC_ClockConfig>:
 80046f4:	b580      	push	{r7, lr}
 80046f6:	b084      	sub	sp, #16
 80046f8:	af00      	add	r7, sp, #0
 80046fa:	6078      	str	r0, [r7, #4]
 80046fc:	6039      	str	r1, [r7, #0]
 80046fe:	687b      	ldr	r3, [r7, #4]
 8004700:	2b00      	cmp	r3, #0
 8004702:	d101      	bne.n	8004708 <HAL_RCC_ClockConfig+0x14>
 8004704:	2301      	movs	r3, #1
 8004706:	e0cc      	b.n	80048a2 <HAL_RCC_ClockConfig+0x1ae>
 8004708:	4b68      	ldr	r3, [pc, #416]	@ (80048ac <HAL_RCC_ClockConfig+0x1b8>)
 800470a:	681b      	ldr	r3, [r3, #0]
 800470c:	f003 0307 	and.w	r3, r3, #7
 8004710:	683a      	ldr	r2, [r7, #0]
 8004712:	429a      	cmp	r2, r3
 8004714:	d90c      	bls.n	8004730 <HAL_RCC_ClockConfig+0x3c>
 8004716:	4b65      	ldr	r3, [pc, #404]	@ (80048ac <HAL_RCC_ClockConfig+0x1b8>)
 8004718:	683a      	ldr	r2, [r7, #0]
 800471a:	b2d2      	uxtb	r2, r2
 800471c:	701a      	strb	r2, [r3, #0]
 800471e:	4b63      	ldr	r3, [pc, #396]	@ (80048ac <HAL_RCC_ClockConfig+0x1b8>)
 8004720:	681b      	ldr	r3, [r3, #0]
 8004722:	f003 0307 	and.w	r3, r3, #7
 8004726:	683a      	ldr	r2, [r7, #0]
 8004728:	429a      	cmp	r2, r3
 800472a:	d001      	beq.n	8004730 <HAL_RCC_ClockConfig+0x3c>
 800472c:	2301      	movs	r3, #1
 800472e:	e0b8      	b.n	80048a2 <HAL_RCC_ClockConfig+0x1ae>
 8004730:	687b      	ldr	r3, [r7, #4]
 8004732:	681b      	ldr	r3, [r3, #0]
 8004734:	f003 0302 	and.w	r3, r3, #2
 8004738:	2b00      	cmp	r3, #0
 800473a:	d020      	beq.n	800477e <HAL_RCC_ClockConfig+0x8a>
 800473c:	687b      	ldr	r3, [r7, #4]
 800473e:	681b      	ldr	r3, [r3, #0]
 8004740:	f003 0304 	and.w	r3, r3, #4
 8004744:	2b00      	cmp	r3, #0
 8004746:	d005      	beq.n	8004754 <HAL_RCC_ClockConfig+0x60>
 8004748:	4b59      	ldr	r3, [pc, #356]	@ (80048b0 <HAL_RCC_ClockConfig+0x1bc>)
 800474a:	689b      	ldr	r3, [r3, #8]
 800474c:	4a58      	ldr	r2, [pc, #352]	@ (80048b0 <HAL_RCC_ClockConfig+0x1bc>)
 800474e:	f443 53e0 	orr.w	r3, r3, #7168	@ 0x1c00
 8004752:	6093      	str	r3, [r2, #8]
 8004754:	687b      	ldr	r3, [r7, #4]
 8004756:	681b      	ldr	r3, [r3, #0]
 8004758:	f003 0308 	and.w	r3, r3, #8
 800475c:	2b00      	cmp	r3, #0
 800475e:	d005      	beq.n	800476c <HAL_RCC_ClockConfig+0x78>
 8004760:	4b53      	ldr	r3, [pc, #332]	@ (80048b0 <HAL_RCC_ClockConfig+0x1bc>)
 8004762:	689b      	ldr	r3, [r3, #8]
 8004764:	4a52      	ldr	r2, [pc, #328]	@ (80048b0 <HAL_RCC_ClockConfig+0x1bc>)
 8004766:	f443 4360 	orr.w	r3, r3, #57344	@ 0xe000
 800476a:	6093      	str	r3, [r2, #8]
 800476c:	4b50      	ldr	r3, [pc, #320]	@ (80048b0 <HAL_RCC_ClockConfig+0x1bc>)
 800476e:	689b      	ldr	r3, [r3, #8]
 8004770:	f023 02f0 	bic.w	r2, r3, #240	@ 0xf0
 8004774:	687b      	ldr	r3, [r7, #4]
 8004776:	689b      	ldr	r3, [r3, #8]
 8004778:	494d      	ldr	r1, [pc, #308]	@ (80048b0 <HAL_RCC_ClockConfig+0x1bc>)
 800477a:	4313      	orrs	r3, r2
 800477c:	608b      	str	r3, [r1, #8]
 800477e:	687b      	ldr	r3, [r7, #4]
 8004780:	681b      	ldr	r3, [r3, #0]
 8004782:	f003 0301 	and.w	r3, r3, #1
 8004786:	2b00      	cmp	r3, #0
 8004788:	d044      	beq.n	8004814 <HAL_RCC_ClockConfig+0x120>
 800478a:	687b      	ldr	r3, [r7, #4]
 800478c:	685b      	ldr	r3, [r3, #4]
 800478e:	2b01      	cmp	r3, #1
 8004790:	d107      	bne.n	80047a2 <HAL_RCC_ClockConfig+0xae>
 8004792:	4b47      	ldr	r3, [pc, #284]	@ (80048b0 <HAL_RCC_ClockConfig+0x1bc>)
 8004794:	681b      	ldr	r3, [r3, #0]
 8004796:	f403 3300 	and.w	r3, r3, #131072	@ 0x20000
 800479a:	2b00      	cmp	r3, #0
 800479c:	d119      	bne.n	80047d2 <HAL_RCC_ClockConfig+0xde>
 800479e:	2301      	movs	r3, #1
 80047a0:	e07f      	b.n	80048a2 <HAL_RCC_ClockConfig+0x1ae>
 80047a2:	687b      	ldr	r3, [r7, #4]
 80047a4:	685b      	ldr	r3, [r3, #4]
 80047a6:	2b02      	cmp	r3, #2
 80047a8:	d003      	beq.n	80047b2 <HAL_RCC_ClockConfig+0xbe>
 80047aa:	687b      	ldr	r3, [r7, #4]
 80047ac:	685b      	ldr	r3, [r3, #4]
 80047ae:	2b03      	cmp	r3, #3
 80047b0:	d107      	bne.n	80047c2 <HAL_RCC_ClockConfig+0xce>
 80047b2:	4b3f      	ldr	r3, [pc, #252]	@ (80048b0 <HAL_RCC_ClockConfig+0x1bc>)
 80047b4:	681b      	ldr	r3, [r3, #0]
 80047b6:	f003 7300 	and.w	r3, r3, #33554432	@ 0x2000000
 80047ba:	2b00      	cmp	r3, #0
 80047bc:	d109      	bne.n	80047d2 <HAL_RCC_ClockConfig+0xde>
 80047be:	2301      	movs	r3, #1
 80047c0:	e06f      	b.n	80048a2 <HAL_RCC_ClockConfig+0x1ae>
 80047c2:	4b3b      	ldr	r3, [pc, #236]	@ (80048b0 <HAL_RCC_ClockConfig+0x1bc>)
 80047c4:	681b      	ldr	r3, [r3, #0]
 80047c6:	f003 0302 	and.w	r3, r3, #2
 80047ca:	2b00      	cmp	r3, #0
 80047cc:	d101      	bne.n	80047d2 <HAL_RCC_ClockConfig+0xde>
 80047ce:	2301      	movs	r3, #1
 80047d0:	e067      	b.n	80048a2 <HAL_RCC_ClockConfig+0x1ae>
 80047d2:	4b37      	ldr	r3, [pc, #220]	@ (80048b0 <HAL_RCC_ClockConfig+0x1bc>)
 80047d4:	689b      	ldr	r3, [r3, #8]
 80047d6:	f023 0203 	bic.w	r2, r3, #3
 80047da:	687b      	ldr	r3, [r7, #4]
 80047dc:	685b      	ldr	r3, [r3, #4]
 80047de:	4934      	ldr	r1, [pc, #208]	@ (80048b0 <HAL_RCC_ClockConfig+0x1bc>)
 80047e0:	4313      	orrs	r3, r2
 80047e2:	608b      	str	r3, [r1, #8]
 80047e4:	f7fc fb00 	bl	8000de8 <HAL_GetTick>
 80047e8:	60f8      	str	r0, [r7, #12]
 80047ea:	e00a      	b.n	8004802 <HAL_RCC_ClockConfig+0x10e>
 80047ec:	f7fc fafc 	bl	8000de8 <HAL_GetTick>
 80047f0:	4602      	mov	r2, r0
 80047f2:	68fb      	ldr	r3, [r7, #12]
 80047f4:	1ad3      	subs	r3, r2, r3
 80047f6:	f241 3288 	movw	r2, #5000	@ 0x1388
 80047fa:	4293      	cmp	r3, r2
 80047fc:	d901      	bls.n	8004802 <HAL_RCC_ClockConfig+0x10e>
 80047fe:	2303      	movs	r3, #3
 8004800:	e04f      	b.n	80048a2 <HAL_RCC_ClockConfig+0x1ae>
 8004802:	4b2b      	ldr	r3, [pc, #172]	@ (80048b0 <HAL_RCC_ClockConfig+0x1bc>)
 8004804:	689b      	ldr	r3, [r3, #8]
 8004806:	f003 020c 	and.w	r2, r3, #12
 800480a:	687b      	ldr	r3, [r7, #4]
 800480c:	685b      	ldr	r3, [r3, #4]
 800480e:	009b      	lsls	r3, r3, #2
 8004810:	429a      	cmp	r2, r3
 8004812:	d1eb      	bne.n	80047ec <HAL_RCC_ClockConfig+0xf8>
 8004814:	4b25      	ldr	r3, [pc, #148]	@ (80048ac <HAL_RCC_ClockConfig+0x1b8>)
 8004816:	681b      	ldr	r3, [r3, #0]
 8004818:	f003 0307 	and.w	r3, r3, #7
 800481c:	683a      	ldr	r2, [r7, #0]
 800481e:	429a      	cmp	r2, r3
 8004820:	d20c      	bcs.n	800483c <HAL_RCC_ClockConfig+0x148>
 8004822:	4b22      	ldr	r3, [pc, #136]	@ (80048ac <HAL_RCC_ClockConfig+0x1b8>)
 8004824:	683a      	ldr	r2, [r7, #0]
 8004826:	b2d2      	uxtb	r2, r2
 8004828:	701a      	strb	r2, [r3, #0]
 800482a:	4b20      	ldr	r3, [pc, #128]	@ (80048ac <HAL_RCC_ClockConfig+0x1b8>)
 800482c:	681b      	ldr	r3, [r3, #0]
 800482e:	f003 0307 	and.w	r3, r3, #7
 8004832:	683a      	ldr	r2, [r7, #0]
 8004834:	429a      	cmp	r2, r3
 8004836:	d001      	beq.n	800483c <HAL_RCC_ClockConfig+0x148>
 8004838:	2301      	movs	r3, #1
 800483a:	e032      	b.n	80048a2 <HAL_RCC_ClockConfig+0x1ae>
 800483c:	687b      	ldr	r3, [r7, #4]
 800483e:	681b      	ldr	r3, [r3, #0]
 8004840:	f003 0304 	and.w	r3, r3, #4
 8004844:	2b00      	cmp	r3, #0
 8004846:	d008      	beq.n	800485a <HAL_RCC_ClockConfig+0x166>
 8004848:	4b19      	ldr	r3, [pc, #100]	@ (80048b0 <HAL_RCC_ClockConfig+0x1bc>)
 800484a:	689b      	ldr	r3, [r3, #8]
 800484c:	f423 52e0 	bic.w	r2, r3, #7168	@ 0x1c00
 8004850:	687b      	ldr	r3, [r7, #4]
 8004852:	68db      	ldr	r3, [r3, #12]
 8004854:	4916      	ldr	r1, [pc, #88]	@ (80048b0 <HAL_RCC_ClockConfig+0x1bc>)
 8004856:	4313      	orrs	r3, r2
 8004858:	608b      	str	r3, [r1, #8]
 800485a:	687b      	ldr	r3, [r7, #4]
 800485c:	681b      	ldr	r3, [r3, #0]
 800485e:	f003 0308 	and.w	r3, r3, #8
 8004862:	2b00      	cmp	r3, #0
 8004864:	d009      	beq.n	800487a <HAL_RCC_ClockConfig+0x186>
 8004866:	4b12      	ldr	r3, [pc, #72]	@ (80048b0 <HAL_RCC_ClockConfig+0x1bc>)
 8004868:	689b      	ldr	r3, [r3, #8]
 800486a:	f423 4260 	bic.w	r2, r3, #57344	@ 0xe000
 800486e:	687b      	ldr	r3, [r7, #4]
 8004870:	691b      	ldr	r3, [r3, #16]
 8004872:	00db      	lsls	r3, r3, #3
 8004874:	490e      	ldr	r1, [pc, #56]	@ (80048b0 <HAL_RCC_ClockConfig+0x1bc>)
 8004876:	4313      	orrs	r3, r2
 8004878:	608b      	str	r3, [r1, #8]
 800487a:	f000 f821 	bl	80048c0 <HAL_RCC_GetSysClockFreq>
 800487e:	4602      	mov	r2, r0
 8004880:	4b0b      	ldr	r3, [pc, #44]	@ (80048b0 <HAL_RCC_ClockConfig+0x1bc>)
 8004882:	689b      	ldr	r3, [r3, #8]
 8004884:	091b      	lsrs	r3, r3, #4
 8004886:	f003 030f 	and.w	r3, r3, #15
 800488a:	490a      	ldr	r1, [pc, #40]	@ (80048b4 <HAL_RCC_ClockConfig+0x1c0>)
 800488c:	5ccb      	ldrb	r3, [r1, r3]
 800488e:	fa22 f303 	lsr.w	r3, r2, r3
 8004892:	4a09      	ldr	r2, [pc, #36]	@ (80048b8 <HAL_RCC_ClockConfig+0x1c4>)
 8004894:	6013      	str	r3, [r2, #0]
 8004896:	4b09      	ldr	r3, [pc, #36]	@ (80048bc <HAL_RCC_ClockConfig+0x1c8>)
 8004898:	681b      	ldr	r3, [r3, #0]
 800489a:	4618      	mov	r0, r3
 800489c:	f7fc fa60 	bl	8000d60 <HAL_InitTick>
 80048a0:	2300      	movs	r3, #0
 80048a2:	4618      	mov	r0, r3
 80048a4:	3710      	adds	r7, #16
 80048a6:	46bd      	mov	sp, r7
 80048a8:	bd80      	pop	{r7, pc}
 80048aa:	bf00      	nop
 80048ac:	40023c00 	.word	0x40023c00
 80048b0:	40023800 	.word	0x40023800
 80048b4:	08008b44 	.word	0x08008b44
 80048b8:	20000000 	.word	0x20000000
 80048bc:	20000004 	.word	0x20000004

080048c0 <HAL_RCC_GetSysClockFreq>:
 80048c0:	e92d 4fb0 	stmdb	sp!, {r4, r5, r7, r8, r9, sl, fp, lr}
 80048c4:	b094      	sub	sp, #80	@ 0x50
 80048c6:	af00      	add	r7, sp, #0
 80048c8:	2300      	movs	r3, #0
 80048ca:	647b      	str	r3, [r7, #68]	@ 0x44
 80048cc:	2300      	movs	r3, #0
 80048ce:	64fb      	str	r3, [r7, #76]	@ 0x4c
 80048d0:	2300      	movs	r3, #0
 80048d2:	643b      	str	r3, [r7, #64]	@ 0x40
 80048d4:	2300      	movs	r3, #0
 80048d6:	64bb      	str	r3, [r7, #72]	@ 0x48
 80048d8:	4b79      	ldr	r3, [pc, #484]	@ (8004ac0 <HAL_RCC_GetSysClockFreq+0x200>)
 80048da:	689b      	ldr	r3, [r3, #8]
 80048dc:	f003 030c 	and.w	r3, r3, #12
 80048e0:	2b08      	cmp	r3, #8
 80048e2:	d00d      	beq.n	8004900 <HAL_RCC_GetSysClockFreq+0x40>
 80048e4:	2b08      	cmp	r3, #8
 80048e6:	f200 80e1 	bhi.w	8004aac <HAL_RCC_GetSysClockFreq+0x1ec>
 80048ea:	2b00      	cmp	r3, #0
 80048ec:	d002      	beq.n	80048f4 <HAL_RCC_GetSysClockFreq+0x34>
 80048ee:	2b04      	cmp	r3, #4
 80048f0:	d003      	beq.n	80048fa <HAL_RCC_GetSysClockFreq+0x3a>
 80048f2:	e0db      	b.n	8004aac <HAL_RCC_GetSysClockFreq+0x1ec>
 80048f4:	4b73      	ldr	r3, [pc, #460]	@ (8004ac4 <HAL_RCC_GetSysClockFreq+0x204>)
 80048f6:	64bb      	str	r3, [r7, #72]	@ 0x48
 80048f8:	e0db      	b.n	8004ab2 <HAL_RCC_GetSysClockFreq+0x1f2>
 80048fa:	4b73      	ldr	r3, [pc, #460]	@ (8004ac8 <HAL_RCC_GetSysClockFreq+0x208>)
 80048fc:	64bb      	str	r3, [r7, #72]	@ 0x48
 80048fe:	e0d8      	b.n	8004ab2 <HAL_RCC_GetSysClockFreq+0x1f2>
 8004900:	4b6f      	ldr	r3, [pc, #444]	@ (8004ac0 <HAL_RCC_GetSysClockFreq+0x200>)
 8004902:	685b      	ldr	r3, [r3, #4]
 8004904:	f003 033f 	and.w	r3, r3, #63	@ 0x3f
 8004908:	647b      	str	r3, [r7, #68]	@ 0x44
 800490a:	4b6d      	ldr	r3, [pc, #436]	@ (8004ac0 <HAL_RCC_GetSysClockFreq+0x200>)
 800490c:	685b      	ldr	r3, [r3, #4]
 800490e:	f403 0380 	and.w	r3, r3, #4194304	@ 0x400000
 8004912:	2b00      	cmp	r3, #0
 8004914:	d063      	beq.n	80049de <HAL_RCC_GetSysClockFreq+0x11e>
 8004916:	4b6a      	ldr	r3, [pc, #424]	@ (8004ac0 <HAL_RCC_GetSysClockFreq+0x200>)
 8004918:	685b      	ldr	r3, [r3, #4]
 800491a:	099b      	lsrs	r3, r3, #6
 800491c:	2200      	movs	r2, #0
 800491e:	63bb      	str	r3, [r7, #56]	@ 0x38
 8004920:	63fa      	str	r2, [r7, #60]	@ 0x3c
 8004922:	6bbb      	ldr	r3, [r7, #56]	@ 0x38
 8004924:	f3c3 0308 	ubfx	r3, r3, #0, #9
 8004928:	633b      	str	r3, [r7, #48]	@ 0x30
 800492a:	2300      	movs	r3, #0
 800492c:	637b      	str	r3, [r7, #52]	@ 0x34
 800492e:	e9d7 450c 	ldrd	r4, r5, [r7, #48]	@ 0x30
 8004932:	4622      	mov	r2, r4
 8004934:	462b      	mov	r3, r5
 8004936:	f04f 0000 	mov.w	r0, #0
 800493a:	f04f 0100 	mov.w	r1, #0
 800493e:	0159      	lsls	r1, r3, #5
 8004940:	ea41 61d2 	orr.w	r1, r1, r2, lsr #27
 8004944:	0150      	lsls	r0, r2, #5
 8004946:	4602      	mov	r2, r0
 8004948:	460b      	mov	r3, r1
 800494a:	4621      	mov	r1, r4
 800494c:	1a51      	subs	r1, r2, r1
 800494e:	6139      	str	r1, [r7, #16]
 8004950:	4629      	mov	r1, r5
 8004952:	eb63 0301 	sbc.w	r3, r3, r1
 8004956:	617b      	str	r3, [r7, #20]
 8004958:	f04f 0200 	mov.w	r2, #0
 800495c:	f04f 0300 	mov.w	r3, #0
 8004960:	e9d7 ab04 	ldrd	sl, fp, [r7, #16]
 8004964:	4659      	mov	r1, fp
 8004966:	018b      	lsls	r3, r1, #6
 8004968:	4651      	mov	r1, sl
 800496a:	ea43 6391 	orr.w	r3, r3, r1, lsr #26
 800496e:	4651      	mov	r1, sl
 8004970:	018a      	lsls	r2, r1, #6
 8004972:	4651      	mov	r1, sl
 8004974:	ebb2 0801 	subs.w	r8, r2, r1
 8004978:	4659      	mov	r1, fp
 800497a:	eb63 0901 	sbc.w	r9, r3, r1
 800497e:	f04f 0200 	mov.w	r2, #0
 8004982:	f04f 0300 	mov.w	r3, #0
 8004986:	ea4f 03c9 	mov.w	r3, r9, lsl #3
 800498a:	ea43 7358 	orr.w	r3, r3, r8, lsr #29
 800498e:	ea4f 02c8 	mov.w	r2, r8, lsl #3
 8004992:	4690      	mov	r8, r2
 8004994:	4699      	mov	r9, r3
 8004996:	4623      	mov	r3, r4
 8004998:	eb18 0303 	adds.w	r3, r8, r3
 800499c:	60bb      	str	r3, [r7, #8]
 800499e:	462b      	mov	r3, r5
 80049a0:	eb49 0303 	adc.w	r3, r9, r3
 80049a4:	60fb      	str	r3, [r7, #12]
 80049a6:	f04f 0200 	mov.w	r2, #0
 80049aa:	f04f 0300 	mov.w	r3, #0
 80049ae:	e9d7 4502 	ldrd	r4, r5, [r7, #8]
 80049b2:	4629      	mov	r1, r5
 80049b4:	024b      	lsls	r3, r1, #9
 80049b6:	4621      	mov	r1, r4
 80049b8:	ea43 53d1 	orr.w	r3, r3, r1, lsr #23
 80049bc:	4621      	mov	r1, r4
 80049be:	024a      	lsls	r2, r1, #9
 80049c0:	4610      	mov	r0, r2
 80049c2:	4619      	mov	r1, r3
 80049c4:	6c7b      	ldr	r3, [r7, #68]	@ 0x44
 80049c6:	2200      	movs	r2, #0
 80049c8:	62bb      	str	r3, [r7, #40]	@ 0x28
 80049ca:	62fa      	str	r2, [r7, #44]	@ 0x2c
 80049cc:	e9d7 230a 	ldrd	r2, r3, [r7, #40]	@ 0x28
 80049d0:	f7fb fbfa 	bl	80001c8 <__aeabi_uldivmod>
 80049d4:	4602      	mov	r2, r0
 80049d6:	460b      	mov	r3, r1
 80049d8:	4613      	mov	r3, r2
 80049da:	64fb      	str	r3, [r7, #76]	@ 0x4c
 80049dc:	e058      	b.n	8004a90 <HAL_RCC_GetSysClockFreq+0x1d0>
 80049de:	4b38      	ldr	r3, [pc, #224]	@ (8004ac0 <HAL_RCC_GetSysClockFreq+0x200>)
 80049e0:	685b      	ldr	r3, [r3, #4]
 80049e2:	099b      	lsrs	r3, r3, #6
 80049e4:	2200      	movs	r2, #0
 80049e6:	4618      	mov	r0, r3
 80049e8:	4611      	mov	r1, r2
 80049ea:	f3c0 0308 	ubfx	r3, r0, #0, #9
 80049ee:	623b      	str	r3, [r7, #32]
 80049f0:	2300      	movs	r3, #0
 80049f2:	627b      	str	r3, [r7, #36]	@ 0x24
 80049f4:	e9d7 8908 	ldrd	r8, r9, [r7, #32]
 80049f8:	4642      	mov	r2, r8
 80049fa:	464b      	mov	r3, r9
 80049fc:	f04f 0000 	mov.w	r0, #0
 8004a00:	f04f 0100 	mov.w	r1, #0
 8004a04:	0159      	lsls	r1, r3, #5
 8004a06:	ea41 61d2 	orr.w	r1, r1, r2, lsr #27
 8004a0a:	0150      	lsls	r0, r2, #5
 8004a0c:	4602      	mov	r2, r0
 8004a0e:	460b      	mov	r3, r1
 8004a10:	4641      	mov	r1, r8
 8004a12:	ebb2 0a01 	subs.w	sl, r2, r1
 8004a16:	4649      	mov	r1, r9
 8004a18:	eb63 0b01 	sbc.w	fp, r3, r1
 8004a1c:	f04f 0200 	mov.w	r2, #0
 8004a20:	f04f 0300 	mov.w	r3, #0
 8004a24:	ea4f 138b 	mov.w	r3, fp, lsl #6
 8004a28:	ea43 639a 	orr.w	r3, r3, sl, lsr #26
 8004a2c:	ea4f 128a 	mov.w	r2, sl, lsl #6
 8004a30:	ebb2 040a 	subs.w	r4, r2, sl
 8004a34:	eb63 050b 	sbc.w	r5, r3, fp
 8004a38:	f04f 0200 	mov.w	r2, #0
 8004a3c:	f04f 0300 	mov.w	r3, #0
 8004a40:	00eb      	lsls	r3, r5, #3
 8004a42:	ea43 7354 	orr.w	r3, r3, r4, lsr #29
 8004a46:	00e2      	lsls	r2, r4, #3
 8004a48:	4614      	mov	r4, r2
 8004a4a:	461d      	mov	r5, r3
 8004a4c:	4643      	mov	r3, r8
 8004a4e:	18e3      	adds	r3, r4, r3
 8004a50:	603b      	str	r3, [r7, #0]
 8004a52:	464b      	mov	r3, r9
 8004a54:	eb45 0303 	adc.w	r3, r5, r3
 8004a58:	607b      	str	r3, [r7, #4]
 8004a5a:	f04f 0200 	mov.w	r2, #0
 8004a5e:	f04f 0300 	mov.w	r3, #0
 8004a62:	e9d7 4500 	ldrd	r4, r5, [r7]
 8004a66:	4629      	mov	r1, r5
 8004a68:	028b      	lsls	r3, r1, #10
 8004a6a:	4621      	mov	r1, r4
 8004a6c:	ea43 5391 	orr.w	r3, r3, r1, lsr #22
 8004a70:	4621      	mov	r1, r4
 8004a72:	028a      	lsls	r2, r1, #10
 8004a74:	4610      	mov	r0, r2
 8004a76:	4619      	mov	r1, r3
 8004a78:	6c7b      	ldr	r3, [r7, #68]	@ 0x44
 8004a7a:	2200      	movs	r2, #0
 8004a7c:	61bb      	str	r3, [r7, #24]
 8004a7e:	61fa      	str	r2, [r7, #28]
 8004a80:	e9d7 2306 	ldrd	r2, r3, [r7, #24]
 8004a84:	f7fb fba0 	bl	80001c8 <__aeabi_uldivmod>
 8004a88:	4602      	mov	r2, r0
 8004a8a:	460b      	mov	r3, r1
 8004a8c:	4613      	mov	r3, r2
 8004a8e:	64fb      	str	r3, [r7, #76]	@ 0x4c
 8004a90:	4b0b      	ldr	r3, [pc, #44]	@ (8004ac0 <HAL_RCC_GetSysClockFreq+0x200>)
 8004a92:	685b      	ldr	r3, [r3, #4]
 8004a94:	0c1b      	lsrs	r3, r3, #16
 8004a96:	f003 0303 	and.w	r3, r3, #3
 8004a9a:	3301      	adds	r3, #1
 8004a9c:	005b      	lsls	r3, r3, #1
 8004a9e:	643b      	str	r3, [r7, #64]	@ 0x40
 8004aa0:	6cfa      	ldr	r2, [r7, #76]	@ 0x4c
 8004aa2:	6c3b      	ldr	r3, [r7, #64]	@ 0x40
 8004aa4:	fbb2 f3f3 	udiv	r3, r2, r3
 8004aa8:	64bb      	str	r3, [r7, #72]	@ 0x48
 8004aaa:	e002      	b.n	8004ab2 <HAL_RCC_GetSysClockFreq+0x1f2>
 8004aac:	4b05      	ldr	r3, [pc, #20]	@ (8004ac4 <HAL_RCC_GetSysClockFreq+0x204>)
 8004aae:	64bb      	str	r3, [r7, #72]	@ 0x48
 8004ab0:	bf00      	nop
 8004ab2:	6cbb      	ldr	r3, [r7, #72]	@ 0x48
 8004ab4:	4618      	mov	r0, r3
 8004ab6:	3750      	adds	r7, #80	@ 0x50
 8004ab8:	46bd      	mov	sp, r7
 8004aba:	e8bd 8fb0 	ldmia.w	sp!, {r4, r5, r7, r8, r9, sl, fp, pc}
 8004abe:	bf00      	nop
 8004ac0:	40023800 	.word	0x40023800
 8004ac4:	00f42400 	.word	0x00f42400
 8004ac8:	007a1200 	.word	0x007a1200

08004acc <HAL_RCC_GetHCLKFreq>:
 8004acc:	b480      	push	{r7}
 8004ace:	af00      	add	r7, sp, #0
 8004ad0:	4b03      	ldr	r3, [pc, #12]	@ (8004ae0 <HAL_RCC_GetHCLKFreq+0x14>)
 8004ad2:	681b      	ldr	r3, [r3, #0]
 8004ad4:	4618      	mov	r0, r3
 8004ad6:	46bd      	mov	sp, r7
 8004ad8:	f85d 7b04 	ldr.w	r7, [sp], #4
 8004adc:	4770      	bx	lr
 8004ade:	bf00      	nop
 8004ae0:	20000000 	.word	0x20000000

08004ae4 <HAL_RCC_GetPCLK1Freq>:
 8004ae4:	b580      	push	{r7, lr}
 8004ae6:	af00      	add	r7, sp, #0
 8004ae8:	f7ff fff0 	bl	8004acc <HAL_RCC_GetHCLKFreq>
 8004aec:	4602      	mov	r2, r0
 8004aee:	4b05      	ldr	r3, [pc, #20]	@ (8004b04 <HAL_RCC_GetPCLK1Freq+0x20>)
 8004af0:	689b      	ldr	r3, [r3, #8]
 8004af2:	0a9b      	lsrs	r3, r3, #10
 8004af4:	f003 0307 	and.w	r3, r3, #7
 8004af8:	4903      	ldr	r1, [pc, #12]	@ (8004b08 <HAL_RCC_GetPCLK1Freq+0x24>)
 8004afa:	5ccb      	ldrb	r3, [r1, r3]
 8004afc:	fa22 f303 	lsr.w	r3, r2, r3
 8004b00:	4618      	mov	r0, r3
 8004b02:	bd80      	pop	{r7, pc}
 8004b04:	40023800 	.word	0x40023800
 8004b08:	08008b54 	.word	0x08008b54

08004b0c <HAL_RCCEx_PeriphCLKConfig>:
 8004b0c:	b580      	push	{r7, lr}
 8004b0e:	b086      	sub	sp, #24
 8004b10:	af00      	add	r7, sp, #0
 8004b12:	6078      	str	r0, [r7, #4]
 8004b14:	2300      	movs	r3, #0
 8004b16:	617b      	str	r3, [r7, #20]
 8004b18:	2300      	movs	r3, #0
 8004b1a:	613b      	str	r3, [r7, #16]
 8004b1c:	687b      	ldr	r3, [r7, #4]
 8004b1e:	681b      	ldr	r3, [r3, #0]
 8004b20:	f003 0301 	and.w	r3, r3, #1
 8004b24:	2b00      	cmp	r3, #0
 8004b26:	d105      	bne.n	8004b34 <HAL_RCCEx_PeriphCLKConfig+0x28>
 8004b28:	687b      	ldr	r3, [r7, #4]
 8004b2a:	681b      	ldr	r3, [r3, #0]
 8004b2c:	f003 0304 	and.w	r3, r3, #4
 8004b30:	2b00      	cmp	r3, #0
 8004b32:	d035      	beq.n	8004ba0 <HAL_RCCEx_PeriphCLKConfig+0x94>
 8004b34:	4b62      	ldr	r3, [pc, #392]	@ (8004cc0 <HAL_RCCEx_PeriphCLKConfig+0x1b4>)
 8004b36:	2200      	movs	r2, #0
 8004b38:	601a      	str	r2, [r3, #0]
 8004b3a:	f7fc f955 	bl	8000de8 <HAL_GetTick>
 8004b3e:	6178      	str	r0, [r7, #20]
 8004b40:	e008      	b.n	8004b54 <HAL_RCCEx_PeriphCLKConfig+0x48>
 8004b42:	f7fc f951 	bl	8000de8 <HAL_GetTick>
 8004b46:	4602      	mov	r2, r0
 8004b48:	697b      	ldr	r3, [r7, #20]
 8004b4a:	1ad3      	subs	r3, r2, r3
 8004b4c:	2b02      	cmp	r3, #2
 8004b4e:	d901      	bls.n	8004b54 <HAL_RCCEx_PeriphCLKConfig+0x48>
 8004b50:	2303      	movs	r3, #3
 8004b52:	e0b0      	b.n	8004cb6 <HAL_RCCEx_PeriphCLKConfig+0x1aa>
 8004b54:	4b5b      	ldr	r3, [pc, #364]	@ (8004cc4 <HAL_RCCEx_PeriphCLKConfig+0x1b8>)
 8004b56:	681b      	ldr	r3, [r3, #0]
 8004b58:	f003 6300 	and.w	r3, r3, #134217728	@ 0x8000000
 8004b5c:	2b00      	cmp	r3, #0
 8004b5e:	d1f0      	bne.n	8004b42 <HAL_RCCEx_PeriphCLKConfig+0x36>
 8004b60:	687b      	ldr	r3, [r7, #4]
 8004b62:	685b      	ldr	r3, [r3, #4]
 8004b64:	019a      	lsls	r2, r3, #6
 8004b66:	687b      	ldr	r3, [r7, #4]
 8004b68:	689b      	ldr	r3, [r3, #8]
 8004b6a:	071b      	lsls	r3, r3, #28
 8004b6c:	4955      	ldr	r1, [pc, #340]	@ (8004cc4 <HAL_RCCEx_PeriphCLKConfig+0x1b8>)
 8004b6e:	4313      	orrs	r3, r2
 8004b70:	f8c1 3084 	str.w	r3, [r1, #132]	@ 0x84
 8004b74:	4b52      	ldr	r3, [pc, #328]	@ (8004cc0 <HAL_RCCEx_PeriphCLKConfig+0x1b4>)
 8004b76:	2201      	movs	r2, #1
 8004b78:	601a      	str	r2, [r3, #0]
 8004b7a:	f7fc f935 	bl	8000de8 <HAL_GetTick>
 8004b7e:	6178      	str	r0, [r7, #20]
 8004b80:	e008      	b.n	8004b94 <HAL_RCCEx_PeriphCLKConfig+0x88>
 8004b82:	f7fc f931 	bl	8000de8 <HAL_GetTick>
 8004b86:	4602      	mov	r2, r0
 8004b88:	697b      	ldr	r3, [r7, #20]
 8004b8a:	1ad3      	subs	r3, r2, r3
 8004b8c:	2b02      	cmp	r3, #2
 8004b8e:	d901      	bls.n	8004b94 <HAL_RCCEx_PeriphCLKConfig+0x88>
 8004b90:	2303      	movs	r3, #3
 8004b92:	e090      	b.n	8004cb6 <HAL_RCCEx_PeriphCLKConfig+0x1aa>
 8004b94:	4b4b      	ldr	r3, [pc, #300]	@ (8004cc4 <HAL_RCCEx_PeriphCLKConfig+0x1b8>)
 8004b96:	681b      	ldr	r3, [r3, #0]
 8004b98:	f003 6300 	and.w	r3, r3, #134217728	@ 0x8000000
 8004b9c:	2b00      	cmp	r3, #0
 8004b9e:	d0f0      	beq.n	8004b82 <HAL_RCCEx_PeriphCLKConfig+0x76>
 8004ba0:	687b      	ldr	r3, [r7, #4]
 8004ba2:	681b      	ldr	r3, [r3, #0]
 8004ba4:	f003 0302 	and.w	r3, r3, #2
 8004ba8:	2b00      	cmp	r3, #0
 8004baa:	f000 8083 	beq.w	8004cb4 <HAL_RCCEx_PeriphCLKConfig+0x1a8>
 8004bae:	2300      	movs	r3, #0
 8004bb0:	60fb      	str	r3, [r7, #12]
 8004bb2:	4b44      	ldr	r3, [pc, #272]	@ (8004cc4 <HAL_RCCEx_PeriphCLKConfig+0x1b8>)
 8004bb4:	6c1b      	ldr	r3, [r3, #64]	@ 0x40
 8004bb6:	4a43      	ldr	r2, [pc, #268]	@ (8004cc4 <HAL_RCCEx_PeriphCLKConfig+0x1b8>)
 8004bb8:	f043 5380 	orr.w	r3, r3, #268435456	@ 0x10000000
 8004bbc:	6413      	str	r3, [r2, #64]	@ 0x40
 8004bbe:	4b41      	ldr	r3, [pc, #260]	@ (8004cc4 <HAL_RCCEx_PeriphCLKConfig+0x1b8>)
 8004bc0:	6c1b      	ldr	r3, [r3, #64]	@ 0x40
 8004bc2:	f003 5380 	and.w	r3, r3, #268435456	@ 0x10000000
 8004bc6:	60fb      	str	r3, [r7, #12]
 8004bc8:	68fb      	ldr	r3, [r7, #12]
 8004bca:	4b3f      	ldr	r3, [pc, #252]	@ (8004cc8 <HAL_RCCEx_PeriphCLKConfig+0x1bc>)
 8004bcc:	681b      	ldr	r3, [r3, #0]
 8004bce:	4a3e      	ldr	r2, [pc, #248]	@ (8004cc8 <HAL_RCCEx_PeriphCLKConfig+0x1bc>)
 8004bd0:	f443 7380 	orr.w	r3, r3, #256	@ 0x100
 8004bd4:	6013      	str	r3, [r2, #0]
 8004bd6:	f7fc f907 	bl	8000de8 <HAL_GetTick>
 8004bda:	6178      	str	r0, [r7, #20]
 8004bdc:	e008      	b.n	8004bf0 <HAL_RCCEx_PeriphCLKConfig+0xe4>
 8004bde:	f7fc f903 	bl	8000de8 <HAL_GetTick>
 8004be2:	4602      	mov	r2, r0
 8004be4:	697b      	ldr	r3, [r7, #20]
 8004be6:	1ad3      	subs	r3, r2, r3
 8004be8:	2b02      	cmp	r3, #2
 8004bea:	d901      	bls.n	8004bf0 <HAL_RCCEx_PeriphCLKConfig+0xe4>
 8004bec:	2303      	movs	r3, #3
 8004bee:	e062      	b.n	8004cb6 <HAL_RCCEx_PeriphCLKConfig+0x1aa>
 8004bf0:	4b35      	ldr	r3, [pc, #212]	@ (8004cc8 <HAL_RCCEx_PeriphCLKConfig+0x1bc>)
 8004bf2:	681b      	ldr	r3, [r3, #0]
 8004bf4:	f403 7380 	and.w	r3, r3, #256	@ 0x100
 8004bf8:	2b00      	cmp	r3, #0
 8004bfa:	d0f0      	beq.n	8004bde <HAL_RCCEx_PeriphCLKConfig+0xd2>
 8004bfc:	4b31      	ldr	r3, [pc, #196]	@ (8004cc4 <HAL_RCCEx_PeriphCLKConfig+0x1b8>)
 8004bfe:	6f1b      	ldr	r3, [r3, #112]	@ 0x70
 8004c00:	f403 7340 	and.w	r3, r3, #768	@ 0x300
 8004c04:	613b      	str	r3, [r7, #16]
 8004c06:	693b      	ldr	r3, [r7, #16]
 8004c08:	2b00      	cmp	r3, #0
 8004c0a:	d02f      	beq.n	8004c6c <HAL_RCCEx_PeriphCLKConfig+0x160>
 8004c0c:	687b      	ldr	r3, [r7, #4]
 8004c0e:	68db      	ldr	r3, [r3, #12]
 8004c10:	f403 7340 	and.w	r3, r3, #768	@ 0x300
 8004c14:	693a      	ldr	r2, [r7, #16]
 8004c16:	429a      	cmp	r2, r3
 8004c18:	d028      	beq.n	8004c6c <HAL_RCCEx_PeriphCLKConfig+0x160>
 8004c1a:	4b2a      	ldr	r3, [pc, #168]	@ (8004cc4 <HAL_RCCEx_PeriphCLKConfig+0x1b8>)
 8004c1c:	6f1b      	ldr	r3, [r3, #112]	@ 0x70
 8004c1e:	f423 7340 	bic.w	r3, r3, #768	@ 0x300
 8004c22:	613b      	str	r3, [r7, #16]
 8004c24:	4b29      	ldr	r3, [pc, #164]	@ (8004ccc <HAL_RCCEx_PeriphCLKConfig+0x1c0>)
 8004c26:	2201      	movs	r2, #1
 8004c28:	601a      	str	r2, [r3, #0]
 8004c2a:	4b28      	ldr	r3, [pc, #160]	@ (8004ccc <HAL_RCCEx_PeriphCLKConfig+0x1c0>)
 8004c2c:	2200      	movs	r2, #0
 8004c2e:	601a      	str	r2, [r3, #0]
 8004c30:	4a24      	ldr	r2, [pc, #144]	@ (8004cc4 <HAL_RCCEx_PeriphCLKConfig+0x1b8>)
 8004c32:	693b      	ldr	r3, [r7, #16]
 8004c34:	6713      	str	r3, [r2, #112]	@ 0x70
 8004c36:	4b23      	ldr	r3, [pc, #140]	@ (8004cc4 <HAL_RCCEx_PeriphCLKConfig+0x1b8>)
 8004c38:	6f1b      	ldr	r3, [r3, #112]	@ 0x70
 8004c3a:	f003 0301 	and.w	r3, r3, #1
 8004c3e:	2b01      	cmp	r3, #1
 8004c40:	d114      	bne.n	8004c6c <HAL_RCCEx_PeriphCLKConfig+0x160>
 8004c42:	f7fc f8d1 	bl	8000de8 <HAL_GetTick>
 8004c46:	6178      	str	r0, [r7, #20]
 8004c48:	e00a      	b.n	8004c60 <HAL_RCCEx_PeriphCLKConfig+0x154>
 8004c4a:	f7fc f8cd 	bl	8000de8 <HAL_GetTick>
 8004c4e:	4602      	mov	r2, r0
 8004c50:	697b      	ldr	r3, [r7, #20]
 8004c52:	1ad3      	subs	r3, r2, r3
 8004c54:	f241 3288 	movw	r2, #5000	@ 0x1388
 8004c58:	4293      	cmp	r3, r2
 8004c5a:	d901      	bls.n	8004c60 <HAL_RCCEx_PeriphCLKConfig+0x154>
 8004c5c:	2303      	movs	r3, #3
 8004c5e:	e02a      	b.n	8004cb6 <HAL_RCCEx_PeriphCLKConfig+0x1aa>
 8004c60:	4b18      	ldr	r3, [pc, #96]	@ (8004cc4 <HAL_RCCEx_PeriphCLKConfig+0x1b8>)
 8004c62:	6f1b      	ldr	r3, [r3, #112]	@ 0x70
 8004c64:	f003 0302 	and.w	r3, r3, #2
 8004c68:	2b00      	cmp	r3, #0
 8004c6a:	d0ee      	beq.n	8004c4a <HAL_RCCEx_PeriphCLKConfig+0x13e>
 8004c6c:	687b      	ldr	r3, [r7, #4]
 8004c6e:	68db      	ldr	r3, [r3, #12]
 8004c70:	f403 7340 	and.w	r3, r3, #768	@ 0x300
 8004c74:	f5b3 7f40 	cmp.w	r3, #768	@ 0x300
 8004c78:	d10d      	bne.n	8004c96 <HAL_RCCEx_PeriphCLKConfig+0x18a>
 8004c7a:	4b12      	ldr	r3, [pc, #72]	@ (8004cc4 <HAL_RCCEx_PeriphCLKConfig+0x1b8>)
 8004c7c:	689b      	ldr	r3, [r3, #8]
 8004c7e:	f423 12f8 	bic.w	r2, r3, #2031616	@ 0x1f0000
 8004c82:	687b      	ldr	r3, [r7, #4]
 8004c84:	68db      	ldr	r3, [r3, #12]
 8004c86:	f023 4370 	bic.w	r3, r3, #4026531840	@ 0xf0000000
 8004c8a:	f423 7340 	bic.w	r3, r3, #768	@ 0x300
 8004c8e:	490d      	ldr	r1, [pc, #52]	@ (8004cc4 <HAL_RCCEx_PeriphCLKConfig+0x1b8>)
 8004c90:	4313      	orrs	r3, r2
 8004c92:	608b      	str	r3, [r1, #8]
 8004c94:	e005      	b.n	8004ca2 <HAL_RCCEx_PeriphCLKConfig+0x196>
 8004c96:	4b0b      	ldr	r3, [pc, #44]	@ (8004cc4 <HAL_RCCEx_PeriphCLKConfig+0x1b8>)
 8004c98:	689b      	ldr	r3, [r3, #8]
 8004c9a:	4a0a      	ldr	r2, [pc, #40]	@ (8004cc4 <HAL_RCCEx_PeriphCLKConfig+0x1b8>)
 8004c9c:	f423 13f8 	bic.w	r3, r3, #2031616	@ 0x1f0000
 8004ca0:	6093      	str	r3, [r2, #8]
 8004ca2:	4b08      	ldr	r3, [pc, #32]	@ (8004cc4 <HAL_RCCEx_PeriphCLKConfig+0x1b8>)
 8004ca4:	6f1a      	ldr	r2, [r3, #112]	@ 0x70
 8004ca6:	687b      	ldr	r3, [r7, #4]
 8004ca8:	68db      	ldr	r3, [r3, #12]
 8004caa:	f3c3 030b 	ubfx	r3, r3, #0, #12
 8004cae:	4905      	ldr	r1, [pc, #20]	@ (8004cc4 <HAL_RCCEx_PeriphCLKConfig+0x1b8>)
 8004cb0:	4313      	orrs	r3, r2
 8004cb2:	670b      	str	r3, [r1, #112]	@ 0x70
 8004cb4:	2300      	movs	r3, #0
 8004cb6:	4618      	mov	r0, r3
 8004cb8:	3718      	adds	r7, #24
 8004cba:	46bd      	mov	sp, r7
 8004cbc:	bd80      	pop	{r7, pc}
 8004cbe:	bf00      	nop
 8004cc0:	42470068 	.word	0x42470068
 8004cc4:	40023800 	.word	0x40023800
 8004cc8:	40007000 	.word	0x40007000
 8004ccc:	42470e40 	.word	0x42470e40

08004cd0 <HAL_RCCEx_GetPeriphCLKFreq>:
 8004cd0:	b480      	push	{r7}
 8004cd2:	b087      	sub	sp, #28
 8004cd4:	af00      	add	r7, sp, #0
 8004cd6:	6078      	str	r0, [r7, #4]
 8004cd8:	2300      	movs	r3, #0
 8004cda:	617b      	str	r3, [r7, #20]
 8004cdc:	2300      	movs	r3, #0
 8004cde:	613b      	str	r3, [r7, #16]
 8004ce0:	2300      	movs	r3, #0
 8004ce2:	60fb      	str	r3, [r7, #12]
 8004ce4:	2300      	movs	r3, #0
 8004ce6:	60bb      	str	r3, [r7, #8]
 8004ce8:	687b      	ldr	r3, [r7, #4]
 8004cea:	2b01      	cmp	r3, #1
 8004cec:	d13f      	bne.n	8004d6e <HAL_RCCEx_GetPeriphCLKFreq+0x9e>
 8004cee:	4b24      	ldr	r3, [pc, #144]	@ (8004d80 <HAL_RCCEx_GetPeriphCLKFreq+0xb0>)
 8004cf0:	689b      	ldr	r3, [r3, #8]
 8004cf2:	f403 0300 	and.w	r3, r3, #8388608	@ 0x800000
 8004cf6:	60fb      	str	r3, [r7, #12]
 8004cf8:	68fb      	ldr	r3, [r7, #12]
 8004cfa:	2b00      	cmp	r3, #0
 8004cfc:	d006      	beq.n	8004d0c <HAL_RCCEx_GetPeriphCLKFreq+0x3c>
 8004cfe:	68fb      	ldr	r3, [r7, #12]
 8004d00:	f5b3 0f00 	cmp.w	r3, #8388608	@ 0x800000
 8004d04:	d12f      	bne.n	8004d66 <HAL_RCCEx_GetPeriphCLKFreq+0x96>
 8004d06:	4b1f      	ldr	r3, [pc, #124]	@ (8004d84 <HAL_RCCEx_GetPeriphCLKFreq+0xb4>)
 8004d08:	617b      	str	r3, [r7, #20]
 8004d0a:	e02f      	b.n	8004d6c <HAL_RCCEx_GetPeriphCLKFreq+0x9c>
 8004d0c:	4b1c      	ldr	r3, [pc, #112]	@ (8004d80 <HAL_RCCEx_GetPeriphCLKFreq+0xb0>)
 8004d0e:	685b      	ldr	r3, [r3, #4]
 8004d10:	f403 0380 	and.w	r3, r3, #4194304	@ 0x400000
 8004d14:	f5b3 0f80 	cmp.w	r3, #4194304	@ 0x400000
 8004d18:	d108      	bne.n	8004d2c <HAL_RCCEx_GetPeriphCLKFreq+0x5c>
 8004d1a:	4b19      	ldr	r3, [pc, #100]	@ (8004d80 <HAL_RCCEx_GetPeriphCLKFreq+0xb0>)
 8004d1c:	685b      	ldr	r3, [r3, #4]
 8004d1e:	f003 033f 	and.w	r3, r3, #63	@ 0x3f
 8004d22:	4a19      	ldr	r2, [pc, #100]	@ (8004d88 <HAL_RCCEx_GetPeriphCLKFreq+0xb8>)
 8004d24:	fbb2 f3f3 	udiv	r3, r2, r3
 8004d28:	613b      	str	r3, [r7, #16]
 8004d2a:	e007      	b.n	8004d3c <HAL_RCCEx_GetPeriphCLKFreq+0x6c>
 8004d2c:	4b14      	ldr	r3, [pc, #80]	@ (8004d80 <HAL_RCCEx_GetPeriphCLKFreq+0xb0>)
 8004d2e:	685b      	ldr	r3, [r3, #4]
 8004d30:	f003 033f 	and.w	r3, r3, #63	@ 0x3f
 8004d34:	4a15      	ldr	r2, [pc, #84]	@ (8004d8c <HAL_RCCEx_GetPeriphCLKFreq+0xbc>)
 8004d36:	fbb2 f3f3 	udiv	r3, r2, r3
 8004d3a:	613b      	str	r3, [r7, #16]
 8004d3c:	4b10      	ldr	r3, [pc, #64]	@ (8004d80 <HAL_RCCEx_GetPeriphCLKFreq+0xb0>)
 8004d3e:	f8d3 3084 	ldr.w	r3, [r3, #132]	@ 0x84
 8004d42:	099b      	lsrs	r3, r3, #6
 8004d44:	f3c3 0208 	ubfx	r2, r3, #0, #9
 8004d48:	693b      	ldr	r3, [r7, #16]
 8004d4a:	fb02 f303 	mul.w	r3, r2, r3
 8004d4e:	60bb      	str	r3, [r7, #8]
 8004d50:	4b0b      	ldr	r3, [pc, #44]	@ (8004d80 <HAL_RCCEx_GetPeriphCLKFreq+0xb0>)
 8004d52:	f8d3 3084 	ldr.w	r3, [r3, #132]	@ 0x84
 8004d56:	0f1b      	lsrs	r3, r3, #28
 8004d58:	f003 0307 	and.w	r3, r3, #7
 8004d5c:	68ba      	ldr	r2, [r7, #8]
 8004d5e:	fbb2 f3f3 	udiv	r3, r2, r3
 8004d62:	617b      	str	r3, [r7, #20]
 8004d64:	e002      	b.n	8004d6c <HAL_RCCEx_GetPeriphCLKFreq+0x9c>
 8004d66:	2300      	movs	r3, #0
 8004d68:	617b      	str	r3, [r7, #20]
 8004d6a:	bf00      	nop
 8004d6c:	e000      	b.n	8004d70 <HAL_RCCEx_GetPeriphCLKFreq+0xa0>
 8004d6e:	bf00      	nop
 8004d70:	697b      	ldr	r3, [r7, #20]
 8004d72:	4618      	mov	r0, r3
 8004d74:	371c      	adds	r7, #28
 8004d76:	46bd      	mov	sp, r7
 8004d78:	f85d 7b04 	ldr.w	r7, [sp], #4
 8004d7c:	4770      	bx	lr
 8004d7e:	bf00      	nop
 8004d80:	40023800 	.word	0x40023800
 8004d84:	00bb8000 	.word	0x00bb8000
 8004d88:	007a1200 	.word	0x007a1200
 8004d8c:	00f42400 	.word	0x00f42400

08004d90 <HAL_SPI_Init>:
 8004d90:	b580      	push	{r7, lr}
 8004d92:	b082      	sub	sp, #8
 8004d94:	af00      	add	r7, sp, #0
 8004d96:	6078      	str	r0, [r7, #4]
 8004d98:	687b      	ldr	r3, [r7, #4]
 8004d9a:	2b00      	cmp	r3, #0
 8004d9c:	d101      	bne.n	8004da2 <HAL_SPI_Init+0x12>
 8004d9e:	2301      	movs	r3, #1
 8004da0:	e07b      	b.n	8004e9a <HAL_SPI_Init+0x10a>
 8004da2:	687b      	ldr	r3, [r7, #4]
 8004da4:	6a5b      	ldr	r3, [r3, #36]	@ 0x24
 8004da6:	2b00      	cmp	r3, #0
 8004da8:	d108      	bne.n	8004dbc <HAL_SPI_Init+0x2c>
 8004daa:	687b      	ldr	r3, [r7, #4]
 8004dac:	685b      	ldr	r3, [r3, #4]
 8004dae:	f5b3 7f82 	cmp.w	r3, #260	@ 0x104
 8004db2:	d009      	beq.n	8004dc8 <HAL_SPI_Init+0x38>
 8004db4:	687b      	ldr	r3, [r7, #4]
 8004db6:	2200      	movs	r2, #0
 8004db8:	61da      	str	r2, [r3, #28]
 8004dba:	e005      	b.n	8004dc8 <HAL_SPI_Init+0x38>
 8004dbc:	687b      	ldr	r3, [r7, #4]
 8004dbe:	2200      	movs	r2, #0
 8004dc0:	611a      	str	r2, [r3, #16]
 8004dc2:	687b      	ldr	r3, [r7, #4]
 8004dc4:	2200      	movs	r2, #0
 8004dc6:	615a      	str	r2, [r3, #20]
 8004dc8:	687b      	ldr	r3, [r7, #4]
 8004dca:	2200      	movs	r2, #0
 8004dcc:	629a      	str	r2, [r3, #40]	@ 0x28
 8004dce:	687b      	ldr	r3, [r7, #4]
 8004dd0:	f893 3051 	ldrb.w	r3, [r3, #81]	@ 0x51
 8004dd4:	b2db      	uxtb	r3, r3
 8004dd6:	2b00      	cmp	r3, #0
 8004dd8:	d106      	bne.n	8004de8 <HAL_SPI_Init+0x58>
 8004dda:	687b      	ldr	r3, [r7, #4]
 8004ddc:	2200      	movs	r2, #0
 8004dde:	f883 2050 	strb.w	r2, [r3, #80]	@ 0x50
 8004de2:	6878      	ldr	r0, [r7, #4]
 8004de4:	f7fb fea6 	bl	8000b34 <HAL_SPI_MspInit>
 8004de8:	687b      	ldr	r3, [r7, #4]
 8004dea:	2202      	movs	r2, #2
 8004dec:	f883 2051 	strb.w	r2, [r3, #81]	@ 0x51
 8004df0:	687b      	ldr	r3, [r7, #4]
 8004df2:	681b      	ldr	r3, [r3, #0]
 8004df4:	681a      	ldr	r2, [r3, #0]
 8004df6:	687b      	ldr	r3, [r7, #4]
 8004df8:	681b      	ldr	r3, [r3, #0]
 8004dfa:	f022 0240 	bic.w	r2, r2, #64	@ 0x40
 8004dfe:	601a      	str	r2, [r3, #0]
 8004e00:	687b      	ldr	r3, [r7, #4]
 8004e02:	685b      	ldr	r3, [r3, #4]
 8004e04:	f403 7282 	and.w	r2, r3, #260	@ 0x104
 8004e08:	687b      	ldr	r3, [r7, #4]
 8004e0a:	689b      	ldr	r3, [r3, #8]
 8004e0c:	f403 4304 	and.w	r3, r3, #33792	@ 0x8400
 8004e10:	431a      	orrs	r2, r3
 8004e12:	687b      	ldr	r3, [r7, #4]
 8004e14:	68db      	ldr	r3, [r3, #12]
 8004e16:	f403 6300 	and.w	r3, r3, #2048	@ 0x800
 8004e1a:	431a      	orrs	r2, r3
 8004e1c:	687b      	ldr	r3, [r7, #4]
 8004e1e:	691b      	ldr	r3, [r3, #16]
 8004e20:	f003 0302 	and.w	r3, r3, #2
 8004e24:	431a      	orrs	r2, r3
 8004e26:	687b      	ldr	r3, [r7, #4]
 8004e28:	695b      	ldr	r3, [r3, #20]
 8004e2a:	f003 0301 	and.w	r3, r3, #1
 8004e2e:	431a      	orrs	r2, r3
 8004e30:	687b      	ldr	r3, [r7, #4]
 8004e32:	699b      	ldr	r3, [r3, #24]
 8004e34:	f403 7300 	and.w	r3, r3, #512	@ 0x200
 8004e38:	431a      	orrs	r2, r3
 8004e3a:	687b      	ldr	r3, [r7, #4]
 8004e3c:	69db      	ldr	r3, [r3, #28]
 8004e3e:	f003 0338 	and.w	r3, r3, #56	@ 0x38
 8004e42:	431a      	orrs	r2, r3
 8004e44:	687b      	ldr	r3, [r7, #4]
 8004e46:	6a1b      	ldr	r3, [r3, #32]
 8004e48:	f003 0380 	and.w	r3, r3, #128	@ 0x80
 8004e4c:	ea42 0103 	orr.w	r1, r2, r3
 8004e50:	687b      	ldr	r3, [r7, #4]
 8004e52:	6a9b      	ldr	r3, [r3, #40]	@ 0x28
 8004e54:	f403 5200 	and.w	r2, r3, #8192	@ 0x2000
 8004e58:	687b      	ldr	r3, [r7, #4]
 8004e5a:	681b      	ldr	r3, [r3, #0]
 8004e5c:	430a      	orrs	r2, r1
 8004e5e:	601a      	str	r2, [r3, #0]
 8004e60:	687b      	ldr	r3, [r7, #4]
 8004e62:	699b      	ldr	r3, [r3, #24]
 8004e64:	0c1b      	lsrs	r3, r3, #16
 8004e66:	f003 0104 	and.w	r1, r3, #4
 8004e6a:	687b      	ldr	r3, [r7, #4]
 8004e6c:	6a5b      	ldr	r3, [r3, #36]	@ 0x24
 8004e6e:	f003 0210 	and.w	r2, r3, #16
 8004e72:	687b      	ldr	r3, [r7, #4]
 8004e74:	681b      	ldr	r3, [r3, #0]
 8004e76:	430a      	orrs	r2, r1
 8004e78:	605a      	str	r2, [r3, #4]
 8004e7a:	687b      	ldr	r3, [r7, #4]
 8004e7c:	681b      	ldr	r3, [r3, #0]
 8004e7e:	69da      	ldr	r2, [r3, #28]
 8004e80:	687b      	ldr	r3, [r7, #4]
 8004e82:	681b      	ldr	r3, [r3, #0]
 8004e84:	f422 6200 	bic.w	r2, r2, #2048	@ 0x800
 8004e88:	61da      	str	r2, [r3, #28]
 8004e8a:	687b      	ldr	r3, [r7, #4]
 8004e8c:	2200      	movs	r2, #0
 8004e8e:	655a      	str	r2, [r3, #84]	@ 0x54
 8004e90:	687b      	ldr	r3, [r7, #4]
 8004e92:	2201      	movs	r2, #1
 8004e94:	f883 2051 	strb.w	r2, [r3, #81]	@ 0x51
 8004e98:	2300      	movs	r3, #0
 8004e9a:	4618      	mov	r0, r3
 8004e9c:	3708      	adds	r7, #8
 8004e9e:	46bd      	mov	sp, r7
 8004ea0:	bd80      	pop	{r7, pc}

08004ea2 <USB_CoreInit>:
 8004ea2:	b084      	sub	sp, #16
 8004ea4:	b580      	push	{r7, lr}
 8004ea6:	b084      	sub	sp, #16
 8004ea8:	af00      	add	r7, sp, #0
 8004eaa:	6078      	str	r0, [r7, #4]
 8004eac:	f107 001c 	add.w	r0, r7, #28
 8004eb0:	e880 000e 	stmia.w	r0, {r1, r2, r3}
 8004eb4:	f897 3021 	ldrb.w	r3, [r7, #33]	@ 0x21
 8004eb8:	2b01      	cmp	r3, #1
 8004eba:	d123      	bne.n	8004f04 <USB_CoreInit+0x62>
 8004ebc:	687b      	ldr	r3, [r7, #4]
 8004ebe:	6b9b      	ldr	r3, [r3, #56]	@ 0x38
 8004ec0:	f423 3280 	bic.w	r2, r3, #65536	@ 0x10000
 8004ec4:	687b      	ldr	r3, [r7, #4]
 8004ec6:	639a      	str	r2, [r3, #56]	@ 0x38
 8004ec8:	687b      	ldr	r3, [r7, #4]
 8004eca:	68db      	ldr	r3, [r3, #12]
 8004ecc:	f423 0384 	bic.w	r3, r3, #4325376	@ 0x420000
 8004ed0:	f023 0340 	bic.w	r3, r3, #64	@ 0x40
 8004ed4:	687a      	ldr	r2, [r7, #4]
 8004ed6:	60d3      	str	r3, [r2, #12]
 8004ed8:	687b      	ldr	r3, [r7, #4]
 8004eda:	68db      	ldr	r3, [r3, #12]
 8004edc:	f423 1240 	bic.w	r2, r3, #3145728	@ 0x300000
 8004ee0:	687b      	ldr	r3, [r7, #4]
 8004ee2:	60da      	str	r2, [r3, #12]
 8004ee4:	f897 3028 	ldrb.w	r3, [r7, #40]	@ 0x28
 8004ee8:	2b01      	cmp	r3, #1
 8004eea:	d105      	bne.n	8004ef8 <USB_CoreInit+0x56>
 8004eec:	687b      	ldr	r3, [r7, #4]
 8004eee:	68db      	ldr	r3, [r3, #12]
 8004ef0:	f443 1280 	orr.w	r2, r3, #1048576	@ 0x100000
 8004ef4:	687b      	ldr	r3, [r7, #4]
 8004ef6:	60da      	str	r2, [r3, #12]
 8004ef8:	6878      	ldr	r0, [r7, #4]
 8004efa:	f000 f9dc 	bl	80052b6 <USB_CoreReset>
 8004efe:	4603      	mov	r3, r0
 8004f00:	73fb      	strb	r3, [r7, #15]
 8004f02:	e01b      	b.n	8004f3c <USB_CoreInit+0x9a>
 8004f04:	687b      	ldr	r3, [r7, #4]
 8004f06:	68db      	ldr	r3, [r3, #12]
 8004f08:	f043 0240 	orr.w	r2, r3, #64	@ 0x40
 8004f0c:	687b      	ldr	r3, [r7, #4]
 8004f0e:	60da      	str	r2, [r3, #12]
 8004f10:	6878      	ldr	r0, [r7, #4]
 8004f12:	f000 f9d0 	bl	80052b6 <USB_CoreReset>
 8004f16:	4603      	mov	r3, r0
 8004f18:	73fb      	strb	r3, [r7, #15]
 8004f1a:	f897 3025 	ldrb.w	r3, [r7, #37]	@ 0x25
 8004f1e:	2b00      	cmp	r3, #0
 8004f20:	d106      	bne.n	8004f30 <USB_CoreInit+0x8e>
 8004f22:	687b      	ldr	r3, [r7, #4]
 8004f24:	6b9b      	ldr	r3, [r3, #56]	@ 0x38
 8004f26:	f443 3280 	orr.w	r2, r3, #65536	@ 0x10000
 8004f2a:	687b      	ldr	r3, [r7, #4]
 8004f2c:	639a      	str	r2, [r3, #56]	@ 0x38
 8004f2e:	e005      	b.n	8004f3c <USB_CoreInit+0x9a>
 8004f30:	687b      	ldr	r3, [r7, #4]
 8004f32:	6b9b      	ldr	r3, [r3, #56]	@ 0x38
 8004f34:	f423 3280 	bic.w	r2, r3, #65536	@ 0x10000
 8004f38:	687b      	ldr	r3, [r7, #4]
 8004f3a:	639a      	str	r2, [r3, #56]	@ 0x38
 8004f3c:	7fbb      	ldrb	r3, [r7, #30]
 8004f3e:	2b01      	cmp	r3, #1
 8004f40:	d10b      	bne.n	8004f5a <USB_CoreInit+0xb8>
 8004f42:	687b      	ldr	r3, [r7, #4]
 8004f44:	689b      	ldr	r3, [r3, #8]
 8004f46:	f043 0206 	orr.w	r2, r3, #6
 8004f4a:	687b      	ldr	r3, [r7, #4]
 8004f4c:	609a      	str	r2, [r3, #8]
 8004f4e:	687b      	ldr	r3, [r7, #4]
 8004f50:	689b      	ldr	r3, [r3, #8]
 8004f52:	f043 0220 	orr.w	r2, r3, #32
 8004f56:	687b      	ldr	r3, [r7, #4]
 8004f58:	609a      	str	r2, [r3, #8]
 8004f5a:	7bfb      	ldrb	r3, [r7, #15]
 8004f5c:	4618      	mov	r0, r3
 8004f5e:	3710      	adds	r7, #16
 8004f60:	46bd      	mov	sp, r7
 8004f62:	e8bd 4080 	ldmia.w	sp!, {r7, lr}
 8004f66:	b004      	add	sp, #16
 8004f68:	4770      	bx	lr

08004f6a <USB_EnableGlobalInt>:
 8004f6a:	b480      	push	{r7}
 8004f6c:	b083      	sub	sp, #12
 8004f6e:	af00      	add	r7, sp, #0
 8004f70:	6078      	str	r0, [r7, #4]
 8004f72:	687b      	ldr	r3, [r7, #4]
 8004f74:	689b      	ldr	r3, [r3, #8]
 8004f76:	f043 0201 	orr.w	r2, r3, #1
 8004f7a:	687b      	ldr	r3, [r7, #4]
 8004f7c:	609a      	str	r2, [r3, #8]
 8004f7e:	2300      	movs	r3, #0
 8004f80:	4618      	mov	r0, r3
 8004f82:	370c      	adds	r7, #12
 8004f84:	46bd      	mov	sp, r7
 8004f86:	f85d 7b04 	ldr.w	r7, [sp], #4
 8004f8a:	4770      	bx	lr

08004f8c <USB_DisableGlobalInt>:
 8004f8c:	b480      	push	{r7}
 8004f8e:	b083      	sub	sp, #12
 8004f90:	af00      	add	r7, sp, #0
 8004f92:	6078      	str	r0, [r7, #4]
 8004f94:	687b      	ldr	r3, [r7, #4]
 8004f96:	689b      	ldr	r3, [r3, #8]
 8004f98:	f023 0201 	bic.w	r2, r3, #1
 8004f9c:	687b      	ldr	r3, [r7, #4]
 8004f9e:	609a      	str	r2, [r3, #8]
 8004fa0:	2300      	movs	r3, #0
 8004fa2:	4618      	mov	r0, r3
 8004fa4:	370c      	adds	r7, #12
 8004fa6:	46bd      	mov	sp, r7
 8004fa8:	f85d 7b04 	ldr.w	r7, [sp], #4
 8004fac:	4770      	bx	lr

08004fae <USB_SetCurrentMode>:
 8004fae:	b580      	push	{r7, lr}
 8004fb0:	b084      	sub	sp, #16
 8004fb2:	af00      	add	r7, sp, #0
 8004fb4:	6078      	str	r0, [r7, #4]
 8004fb6:	460b      	mov	r3, r1
 8004fb8:	70fb      	strb	r3, [r7, #3]
 8004fba:	2300      	movs	r3, #0
 8004fbc:	60fb      	str	r3, [r7, #12]
 8004fbe:	687b      	ldr	r3, [r7, #4]
 8004fc0:	68db      	ldr	r3, [r3, #12]
 8004fc2:	f023 42c0 	bic.w	r2, r3, #1610612736	@ 0x60000000
 8004fc6:	687b      	ldr	r3, [r7, #4]
 8004fc8:	60da      	str	r2, [r3, #12]
 8004fca:	78fb      	ldrb	r3, [r7, #3]
 8004fcc:	2b01      	cmp	r3, #1
 8004fce:	d115      	bne.n	8004ffc <USB_SetCurrentMode+0x4e>
 8004fd0:	687b      	ldr	r3, [r7, #4]
 8004fd2:	68db      	ldr	r3, [r3, #12]
 8004fd4:	f043 5200 	orr.w	r2, r3, #536870912	@ 0x20000000
 8004fd8:	687b      	ldr	r3, [r7, #4]
 8004fda:	60da      	str	r2, [r3, #12]
 8004fdc:	200a      	movs	r0, #10
 8004fde:	f7fb ff0f 	bl	8000e00 <HAL_Delay>
 8004fe2:	68fb      	ldr	r3, [r7, #12]
 8004fe4:	330a      	adds	r3, #10
 8004fe6:	60fb      	str	r3, [r7, #12]
 8004fe8:	6878      	ldr	r0, [r7, #4]
 8004fea:	f000 f956 	bl	800529a <USB_GetMode>
 8004fee:	4603      	mov	r3, r0
 8004ff0:	2b01      	cmp	r3, #1
 8004ff2:	d01e      	beq.n	8005032 <USB_SetCurrentMode+0x84>
 8004ff4:	68fb      	ldr	r3, [r7, #12]
 8004ff6:	2bc7      	cmp	r3, #199	@ 0xc7
 8004ff8:	d9f0      	bls.n	8004fdc <USB_SetCurrentMode+0x2e>
 8004ffa:	e01a      	b.n	8005032 <USB_SetCurrentMode+0x84>
 8004ffc:	78fb      	ldrb	r3, [r7, #3]
 8004ffe:	2b00      	cmp	r3, #0
 8005000:	d115      	bne.n	800502e <USB_SetCurrentMode+0x80>
 8005002:	687b      	ldr	r3, [r7, #4]
 8005004:	68db      	ldr	r3, [r3, #12]
 8005006:	f043 4280 	orr.w	r2, r3, #1073741824	@ 0x40000000
 800500a:	687b      	ldr	r3, [r7, #4]
 800500c:	60da      	str	r2, [r3, #12]
 800500e:	200a      	movs	r0, #10
 8005010:	f7fb fef6 	bl	8000e00 <HAL_Delay>
 8005014:	68fb      	ldr	r3, [r7, #12]
 8005016:	330a      	adds	r3, #10
 8005018:	60fb      	str	r3, [r7, #12]
 800501a:	6878      	ldr	r0, [r7, #4]
 800501c:	f000 f93d 	bl	800529a <USB_GetMode>
 8005020:	4603      	mov	r3, r0
 8005022:	2b00      	cmp	r3, #0
 8005024:	d005      	beq.n	8005032 <USB_SetCurrentMode+0x84>
 8005026:	68fb      	ldr	r3, [r7, #12]
 8005028:	2bc7      	cmp	r3, #199	@ 0xc7
 800502a:	d9f0      	bls.n	800500e <USB_SetCurrentMode+0x60>
 800502c:	e001      	b.n	8005032 <USB_SetCurrentMode+0x84>
 800502e:	2301      	movs	r3, #1
 8005030:	e005      	b.n	800503e <USB_SetCurrentMode+0x90>
 8005032:	68fb      	ldr	r3, [r7, #12]
 8005034:	2bc8      	cmp	r3, #200	@ 0xc8
 8005036:	d101      	bne.n	800503c <USB_SetCurrentMode+0x8e>
 8005038:	2301      	movs	r3, #1
 800503a:	e000      	b.n	800503e <USB_SetCurrentMode+0x90>
 800503c:	2300      	movs	r3, #0
 800503e:	4618      	mov	r0, r3
 8005040:	3710      	adds	r7, #16
 8005042:	46bd      	mov	sp, r7
 8005044:	bd80      	pop	{r7, pc}

08005046 <USB_FlushTxFifo>:
 8005046:	b480      	push	{r7}
 8005048:	b085      	sub	sp, #20
 800504a:	af00      	add	r7, sp, #0
 800504c:	6078      	str	r0, [r7, #4]
 800504e:	6039      	str	r1, [r7, #0]
 8005050:	2300      	movs	r3, #0
 8005052:	60fb      	str	r3, [r7, #12]
 8005054:	68fb      	ldr	r3, [r7, #12]
 8005056:	3301      	adds	r3, #1
 8005058:	60fb      	str	r3, [r7, #12]
 800505a:	68fb      	ldr	r3, [r7, #12]
 800505c:	f1b3 6f70 	cmp.w	r3, #251658240	@ 0xf000000
 8005060:	d901      	bls.n	8005066 <USB_FlushTxFifo+0x20>
 8005062:	2303      	movs	r3, #3
 8005064:	e01b      	b.n	800509e <USB_FlushTxFifo+0x58>
 8005066:	687b      	ldr	r3, [r7, #4]
 8005068:	691b      	ldr	r3, [r3, #16]
 800506a:	2b00      	cmp	r3, #0
 800506c:	daf2      	bge.n	8005054 <USB_FlushTxFifo+0xe>
 800506e:	2300      	movs	r3, #0
 8005070:	60fb      	str	r3, [r7, #12]
 8005072:	683b      	ldr	r3, [r7, #0]
 8005074:	019b      	lsls	r3, r3, #6
 8005076:	f043 0220 	orr.w	r2, r3, #32
 800507a:	687b      	ldr	r3, [r7, #4]
 800507c:	611a      	str	r2, [r3, #16]
 800507e:	68fb      	ldr	r3, [r7, #12]
 8005080:	3301      	adds	r3, #1
 8005082:	60fb      	str	r3, [r7, #12]
 8005084:	68fb      	ldr	r3, [r7, #12]
 8005086:	f1b3 6f70 	cmp.w	r3, #251658240	@ 0xf000000
 800508a:	d901      	bls.n	8005090 <USB_FlushTxFifo+0x4a>
 800508c:	2303      	movs	r3, #3
 800508e:	e006      	b.n	800509e <USB_FlushTxFifo+0x58>
 8005090:	687b      	ldr	r3, [r7, #4]
 8005092:	691b      	ldr	r3, [r3, #16]
 8005094:	f003 0320 	and.w	r3, r3, #32
 8005098:	2b20      	cmp	r3, #32
 800509a:	d0f0      	beq.n	800507e <USB_FlushTxFifo+0x38>
 800509c:	2300      	movs	r3, #0
 800509e:	4618      	mov	r0, r3
 80050a0:	3714      	adds	r7, #20
 80050a2:	46bd      	mov	sp, r7
 80050a4:	f85d 7b04 	ldr.w	r7, [sp], #4
 80050a8:	4770      	bx	lr

080050aa <USB_FlushRxFifo>:
 80050aa:	b480      	push	{r7}
 80050ac:	b085      	sub	sp, #20
 80050ae:	af00      	add	r7, sp, #0
 80050b0:	6078      	str	r0, [r7, #4]
 80050b2:	2300      	movs	r3, #0
 80050b4:	60fb      	str	r3, [r7, #12]
 80050b6:	68fb      	ldr	r3, [r7, #12]
 80050b8:	3301      	adds	r3, #1
 80050ba:	60fb      	str	r3, [r7, #12]
 80050bc:	68fb      	ldr	r3, [r7, #12]
 80050be:	f1b3 6f70 	cmp.w	r3, #251658240	@ 0xf000000
 80050c2:	d901      	bls.n	80050c8 <USB_FlushRxFifo+0x1e>
 80050c4:	2303      	movs	r3, #3
 80050c6:	e018      	b.n	80050fa <USB_FlushRxFifo+0x50>
 80050c8:	687b      	ldr	r3, [r7, #4]
 80050ca:	691b      	ldr	r3, [r3, #16]
 80050cc:	2b00      	cmp	r3, #0
 80050ce:	daf2      	bge.n	80050b6 <USB_FlushRxFifo+0xc>
 80050d0:	2300      	movs	r3, #0
 80050d2:	60fb      	str	r3, [r7, #12]
 80050d4:	687b      	ldr	r3, [r7, #4]
 80050d6:	2210      	movs	r2, #16
 80050d8:	611a      	str	r2, [r3, #16]
 80050da:	68fb      	ldr	r3, [r7, #12]
 80050dc:	3301      	adds	r3, #1
 80050de:	60fb      	str	r3, [r7, #12]
 80050e0:	68fb      	ldr	r3, [r7, #12]
 80050e2:	f1b3 6f70 	cmp.w	r3, #251658240	@ 0xf000000
 80050e6:	d901      	bls.n	80050ec <USB_FlushRxFifo+0x42>
 80050e8:	2303      	movs	r3, #3
 80050ea:	e006      	b.n	80050fa <USB_FlushRxFifo+0x50>
 80050ec:	687b      	ldr	r3, [r7, #4]
 80050ee:	691b      	ldr	r3, [r3, #16]
 80050f0:	f003 0310 	and.w	r3, r3, #16
 80050f4:	2b10      	cmp	r3, #16
 80050f6:	d0f0      	beq.n	80050da <USB_FlushRxFifo+0x30>
 80050f8:	2300      	movs	r3, #0
 80050fa:	4618      	mov	r0, r3
 80050fc:	3714      	adds	r7, #20
 80050fe:	46bd      	mov	sp, r7
 8005100:	f85d 7b04 	ldr.w	r7, [sp], #4
 8005104:	4770      	bx	lr

08005106 <USB_WritePacket>:
 8005106:	b480      	push	{r7}
 8005108:	b089      	sub	sp, #36	@ 0x24
 800510a:	af00      	add	r7, sp, #0
 800510c:	60f8      	str	r0, [r7, #12]
 800510e:	60b9      	str	r1, [r7, #8]
 8005110:	4611      	mov	r1, r2
 8005112:	461a      	mov	r2, r3
 8005114:	460b      	mov	r3, r1
 8005116:	71fb      	strb	r3, [r7, #7]
 8005118:	4613      	mov	r3, r2
 800511a:	80bb      	strh	r3, [r7, #4]
 800511c:	68fb      	ldr	r3, [r7, #12]
 800511e:	617b      	str	r3, [r7, #20]
 8005120:	68bb      	ldr	r3, [r7, #8]
 8005122:	61fb      	str	r3, [r7, #28]
 8005124:	f897 3028 	ldrb.w	r3, [r7, #40]	@ 0x28
 8005128:	2b00      	cmp	r3, #0
 800512a:	d123      	bne.n	8005174 <USB_WritePacket+0x6e>
 800512c:	88bb      	ldrh	r3, [r7, #4]
 800512e:	3303      	adds	r3, #3
 8005130:	089b      	lsrs	r3, r3, #2
 8005132:	613b      	str	r3, [r7, #16]
 8005134:	2300      	movs	r3, #0
 8005136:	61bb      	str	r3, [r7, #24]
 8005138:	e018      	b.n	800516c <USB_WritePacket+0x66>
 800513a:	79fb      	ldrb	r3, [r7, #7]
 800513c:	031a      	lsls	r2, r3, #12
 800513e:	697b      	ldr	r3, [r7, #20]
 8005140:	4413      	add	r3, r2
 8005142:	f503 5380 	add.w	r3, r3, #4096	@ 0x1000
 8005146:	461a      	mov	r2, r3
 8005148:	69fb      	ldr	r3, [r7, #28]
 800514a:	681b      	ldr	r3, [r3, #0]
 800514c:	6013      	str	r3, [r2, #0]
 800514e:	69fb      	ldr	r3, [r7, #28]
 8005150:	3301      	adds	r3, #1
 8005152:	61fb      	str	r3, [r7, #28]
 8005154:	69fb      	ldr	r3, [r7, #28]
 8005156:	3301      	adds	r3, #1
 8005158:	61fb      	str	r3, [r7, #28]
 800515a:	69fb      	ldr	r3, [r7, #28]
 800515c:	3301      	adds	r3, #1
 800515e:	61fb      	str	r3, [r7, #28]
 8005160:	69fb      	ldr	r3, [r7, #28]
 8005162:	3301      	adds	r3, #1
 8005164:	61fb      	str	r3, [r7, #28]
 8005166:	69bb      	ldr	r3, [r7, #24]
 8005168:	3301      	adds	r3, #1
 800516a:	61bb      	str	r3, [r7, #24]
 800516c:	69ba      	ldr	r2, [r7, #24]
 800516e:	693b      	ldr	r3, [r7, #16]
 8005170:	429a      	cmp	r2, r3
 8005172:	d3e2      	bcc.n	800513a <USB_WritePacket+0x34>
 8005174:	2300      	movs	r3, #0
 8005176:	4618      	mov	r0, r3
 8005178:	3724      	adds	r7, #36	@ 0x24
 800517a:	46bd      	mov	sp, r7
 800517c:	f85d 7b04 	ldr.w	r7, [sp], #4
 8005180:	4770      	bx	lr

08005182 <USB_ReadPacket>:
 8005182:	b480      	push	{r7}
 8005184:	b08b      	sub	sp, #44	@ 0x2c
 8005186:	af00      	add	r7, sp, #0
 8005188:	60f8      	str	r0, [r7, #12]
 800518a:	60b9      	str	r1, [r7, #8]
 800518c:	4613      	mov	r3, r2
 800518e:	80fb      	strh	r3, [r7, #6]
 8005190:	68fb      	ldr	r3, [r7, #12]
 8005192:	61bb      	str	r3, [r7, #24]
 8005194:	68bb      	ldr	r3, [r7, #8]
 8005196:	627b      	str	r3, [r7, #36]	@ 0x24
 8005198:	88fb      	ldrh	r3, [r7, #6]
 800519a:	089b      	lsrs	r3, r3, #2
 800519c:	b29b      	uxth	r3, r3
 800519e:	617b      	str	r3, [r7, #20]
 80051a0:	88fb      	ldrh	r3, [r7, #6]
 80051a2:	f003 0303 	and.w	r3, r3, #3
 80051a6:	83fb      	strh	r3, [r7, #30]
 80051a8:	2300      	movs	r3, #0
 80051aa:	623b      	str	r3, [r7, #32]
 80051ac:	e014      	b.n	80051d8 <USB_ReadPacket+0x56>
 80051ae:	69bb      	ldr	r3, [r7, #24]
 80051b0:	f503 5380 	add.w	r3, r3, #4096	@ 0x1000
 80051b4:	681a      	ldr	r2, [r3, #0]
 80051b6:	6a7b      	ldr	r3, [r7, #36]	@ 0x24
 80051b8:	601a      	str	r2, [r3, #0]
 80051ba:	6a7b      	ldr	r3, [r7, #36]	@ 0x24
 80051bc:	3301      	adds	r3, #1
 80051be:	627b      	str	r3, [r7, #36]	@ 0x24
 80051c0:	6a7b      	ldr	r3, [r7, #36]	@ 0x24
 80051c2:	3301      	adds	r3, #1
 80051c4:	627b      	str	r3, [r7, #36]	@ 0x24
 80051c6:	6a7b      	ldr	r3, [r7, #36]	@ 0x24
 80051c8:	3301      	adds	r3, #1
 80051ca:	627b      	str	r3, [r7, #36]	@ 0x24
 80051cc:	6a7b      	ldr	r3, [r7, #36]	@ 0x24
 80051ce:	3301      	adds	r3, #1
 80051d0:	627b      	str	r3, [r7, #36]	@ 0x24
 80051d2:	6a3b      	ldr	r3, [r7, #32]
 80051d4:	3301      	adds	r3, #1
 80051d6:	623b      	str	r3, [r7, #32]
 80051d8:	6a3a      	ldr	r2, [r7, #32]
 80051da:	697b      	ldr	r3, [r7, #20]
 80051dc:	429a      	cmp	r2, r3
 80051de:	d3e6      	bcc.n	80051ae <USB_ReadPacket+0x2c>
 80051e0:	8bfb      	ldrh	r3, [r7, #30]
 80051e2:	2b00      	cmp	r3, #0
 80051e4:	d01e      	beq.n	8005224 <USB_ReadPacket+0xa2>
 80051e6:	2300      	movs	r3, #0
 80051e8:	623b      	str	r3, [r7, #32]
 80051ea:	69bb      	ldr	r3, [r7, #24]
 80051ec:	f503 5380 	add.w	r3, r3, #4096	@ 0x1000
 80051f0:	461a      	mov	r2, r3
 80051f2:	f107 0310 	add.w	r3, r7, #16
 80051f6:	6812      	ldr	r2, [r2, #0]
 80051f8:	601a      	str	r2, [r3, #0]
 80051fa:	693a      	ldr	r2, [r7, #16]
 80051fc:	6a3b      	ldr	r3, [r7, #32]
 80051fe:	b2db      	uxtb	r3, r3
 8005200:	00db      	lsls	r3, r3, #3
 8005202:	fa22 f303 	lsr.w	r3, r2, r3
 8005206:	b2da      	uxtb	r2, r3
 8005208:	6a7b      	ldr	r3, [r7, #36]	@ 0x24
 800520a:	701a      	strb	r2, [r3, #0]
 800520c:	6a3b      	ldr	r3, [r7, #32]
 800520e:	3301      	adds	r3, #1
 8005210:	623b      	str	r3, [r7, #32]
 8005212:	6a7b      	ldr	r3, [r7, #36]	@ 0x24
 8005214:	3301      	adds	r3, #1
 8005216:	627b      	str	r3, [r7, #36]	@ 0x24
 8005218:	8bfb      	ldrh	r3, [r7, #30]
 800521a:	3b01      	subs	r3, #1
 800521c:	83fb      	strh	r3, [r7, #30]
 800521e:	8bfb      	ldrh	r3, [r7, #30]
 8005220:	2b00      	cmp	r3, #0
 8005222:	d1ea      	bne.n	80051fa <USB_ReadPacket+0x78>
 8005224:	6a7b      	ldr	r3, [r7, #36]	@ 0x24
 8005226:	4618      	mov	r0, r3
 8005228:	372c      	adds	r7, #44	@ 0x2c
 800522a:	46bd      	mov	sp, r7
 800522c:	f85d 7b04 	ldr.w	r7, [sp], #4
 8005230:	4770      	bx	lr

08005232 <USB_ReadInterrupts>:
 8005232:	b480      	push	{r7}
 8005234:	b085      	sub	sp, #20
 8005236:	af00      	add	r7, sp, #0
 8005238:	6078      	str	r0, [r7, #4]
 800523a:	687b      	ldr	r3, [r7, #4]
 800523c:	695b      	ldr	r3, [r3, #20]
 800523e:	60fb      	str	r3, [r7, #12]
 8005240:	687b      	ldr	r3, [r7, #4]
 8005242:	699b      	ldr	r3, [r3, #24]
 8005244:	68fa      	ldr	r2, [r7, #12]
 8005246:	4013      	ands	r3, r2
 8005248:	60fb      	str	r3, [r7, #12]
 800524a:	68fb      	ldr	r3, [r7, #12]
 800524c:	4618      	mov	r0, r3
 800524e:	3714      	adds	r7, #20
 8005250:	46bd      	mov	sp, r7
 8005252:	f85d 7b04 	ldr.w	r7, [sp], #4
 8005256:	4770      	bx	lr

08005258 <USB_ReadChInterrupts>:
 8005258:	b480      	push	{r7}
 800525a:	b085      	sub	sp, #20
 800525c:	af00      	add	r7, sp, #0
 800525e:	6078      	str	r0, [r7, #4]
 8005260:	460b      	mov	r3, r1
 8005262:	70fb      	strb	r3, [r7, #3]
 8005264:	687b      	ldr	r3, [r7, #4]
 8005266:	60fb      	str	r3, [r7, #12]
 8005268:	78fb      	ldrb	r3, [r7, #3]
 800526a:	015a      	lsls	r2, r3, #5
 800526c:	68fb      	ldr	r3, [r7, #12]
 800526e:	4413      	add	r3, r2
 8005270:	f503 63a0 	add.w	r3, r3, #1280	@ 0x500
 8005274:	689b      	ldr	r3, [r3, #8]
 8005276:	60bb      	str	r3, [r7, #8]
 8005278:	78fb      	ldrb	r3, [r7, #3]
 800527a:	015a      	lsls	r2, r3, #5
 800527c:	68fb      	ldr	r3, [r7, #12]
 800527e:	4413      	add	r3, r2
 8005280:	f503 63a0 	add.w	r3, r3, #1280	@ 0x500
 8005284:	68db      	ldr	r3, [r3, #12]
 8005286:	68ba      	ldr	r2, [r7, #8]
 8005288:	4013      	ands	r3, r2
 800528a:	60bb      	str	r3, [r7, #8]
 800528c:	68bb      	ldr	r3, [r7, #8]
 800528e:	4618      	mov	r0, r3
 8005290:	3714      	adds	r7, #20
 8005292:	46bd      	mov	sp, r7
 8005294:	f85d 7b04 	ldr.w	r7, [sp], #4
 8005298:	4770      	bx	lr

0800529a <USB_GetMode>:
 800529a:	b480      	push	{r7}
 800529c:	b083      	sub	sp, #12
 800529e:	af00      	add	r7, sp, #0
 80052a0:	6078      	str	r0, [r7, #4]
 80052a2:	687b      	ldr	r3, [r7, #4]
 80052a4:	695b      	ldr	r3, [r3, #20]
 80052a6:	f003 0301 	and.w	r3, r3, #1
 80052aa:	4618      	mov	r0, r3
 80052ac:	370c      	adds	r7, #12
 80052ae:	46bd      	mov	sp, r7
 80052b0:	f85d 7b04 	ldr.w	r7, [sp], #4
 80052b4:	4770      	bx	lr

080052b6 <USB_CoreReset>:
 80052b6:	b480      	push	{r7}
 80052b8:	b085      	sub	sp, #20
 80052ba:	af00      	add	r7, sp, #0
 80052bc:	6078      	str	r0, [r7, #4]
 80052be:	2300      	movs	r3, #0
 80052c0:	60fb      	str	r3, [r7, #12]
 80052c2:	68fb      	ldr	r3, [r7, #12]
 80052c4:	3301      	adds	r3, #1
 80052c6:	60fb      	str	r3, [r7, #12]
 80052c8:	68fb      	ldr	r3, [r7, #12]
 80052ca:	f1b3 6f70 	cmp.w	r3, #251658240	@ 0xf000000
 80052ce:	d901      	bls.n	80052d4 <USB_CoreReset+0x1e>
 80052d0:	2303      	movs	r3, #3
 80052d2:	e01b      	b.n	800530c <USB_CoreReset+0x56>
 80052d4:	687b      	ldr	r3, [r7, #4]
 80052d6:	691b      	ldr	r3, [r3, #16]
 80052d8:	2b00      	cmp	r3, #0
 80052da:	daf2      	bge.n	80052c2 <USB_CoreReset+0xc>
 80052dc:	2300      	movs	r3, #0
 80052de:	60fb      	str	r3, [r7, #12]
 80052e0:	687b      	ldr	r3, [r7, #4]
 80052e2:	691b      	ldr	r3, [r3, #16]
 80052e4:	f043 0201 	orr.w	r2, r3, #1
 80052e8:	687b      	ldr	r3, [r7, #4]
 80052ea:	611a      	str	r2, [r3, #16]
 80052ec:	68fb      	ldr	r3, [r7, #12]
 80052ee:	3301      	adds	r3, #1
 80052f0:	60fb      	str	r3, [r7, #12]
 80052f2:	68fb      	ldr	r3, [r7, #12]
 80052f4:	f1b3 6f70 	cmp.w	r3, #251658240	@ 0xf000000
 80052f8:	d901      	bls.n	80052fe <USB_CoreReset+0x48>
 80052fa:	2303      	movs	r3, #3
 80052fc:	e006      	b.n	800530c <USB_CoreReset+0x56>
 80052fe:	687b      	ldr	r3, [r7, #4]
 8005300:	691b      	ldr	r3, [r3, #16]
 8005302:	f003 0301 	and.w	r3, r3, #1
 8005306:	2b01      	cmp	r3, #1
 8005308:	d0f0      	beq.n	80052ec <USB_CoreReset+0x36>
 800530a:	2300      	movs	r3, #0
 800530c:	4618      	mov	r0, r3
 800530e:	3714      	adds	r7, #20
 8005310:	46bd      	mov	sp, r7
 8005312:	f85d 7b04 	ldr.w	r7, [sp], #4
 8005316:	4770      	bx	lr

08005318 <USB_HostInit>:
 8005318:	b084      	sub	sp, #16
 800531a:	b580      	push	{r7, lr}
 800531c:	b086      	sub	sp, #24
 800531e:	af00      	add	r7, sp, #0
 8005320:	6078      	str	r0, [r7, #4]
 8005322:	f107 0024 	add.w	r0, r7, #36	@ 0x24
 8005326:	e880 000e 	stmia.w	r0, {r1, r2, r3}
 800532a:	2300      	movs	r3, #0
 800532c:	75fb      	strb	r3, [r7, #23]
 800532e:	687b      	ldr	r3, [r7, #4]
 8005330:	60fb      	str	r3, [r7, #12]
 8005332:	68fb      	ldr	r3, [r7, #12]
 8005334:	f503 6360 	add.w	r3, r3, #3584	@ 0xe00
 8005338:	461a      	mov	r2, r3
 800533a:	2300      	movs	r3, #0
 800533c:	6013      	str	r3, [r2, #0]
 800533e:	687b      	ldr	r3, [r7, #4]
 8005340:	6b9b      	ldr	r3, [r3, #56]	@ 0x38
 8005342:	f443 1200 	orr.w	r2, r3, #2097152	@ 0x200000
 8005346:	687b      	ldr	r3, [r7, #4]
 8005348:	639a      	str	r2, [r3, #56]	@ 0x38
 800534a:	687b      	ldr	r3, [r7, #4]
 800534c:	6b9b      	ldr	r3, [r3, #56]	@ 0x38
 800534e:	f423 2200 	bic.w	r2, r3, #524288	@ 0x80000
 8005352:	687b      	ldr	r3, [r7, #4]
 8005354:	639a      	str	r2, [r3, #56]	@ 0x38
 8005356:	687b      	ldr	r3, [r7, #4]
 8005358:	6b9b      	ldr	r3, [r3, #56]	@ 0x38
 800535a:	f423 2280 	bic.w	r2, r3, #262144	@ 0x40000
 800535e:	687b      	ldr	r3, [r7, #4]
 8005360:	639a      	str	r2, [r3, #56]	@ 0x38
 8005362:	687b      	ldr	r3, [r7, #4]
 8005364:	68db      	ldr	r3, [r3, #12]
 8005366:	f003 0340 	and.w	r3, r3, #64	@ 0x40
 800536a:	2b00      	cmp	r3, #0
 800536c:	d119      	bne.n	80053a2 <USB_HostInit+0x8a>
 800536e:	f897 3027 	ldrb.w	r3, [r7, #39]	@ 0x27
 8005372:	2b01      	cmp	r3, #1
 8005374:	d10a      	bne.n	800538c <USB_HostInit+0x74>
 8005376:	68fb      	ldr	r3, [r7, #12]
 8005378:	f503 6380 	add.w	r3, r3, #1024	@ 0x400
 800537c:	681b      	ldr	r3, [r3, #0]
 800537e:	68fa      	ldr	r2, [r7, #12]
 8005380:	f502 6280 	add.w	r2, r2, #1024	@ 0x400
 8005384:	f043 0304 	orr.w	r3, r3, #4
 8005388:	6013      	str	r3, [r2, #0]
 800538a:	e014      	b.n	80053b6 <USB_HostInit+0x9e>
 800538c:	68fb      	ldr	r3, [r7, #12]
 800538e:	f503 6380 	add.w	r3, r3, #1024	@ 0x400
 8005392:	681b      	ldr	r3, [r3, #0]
 8005394:	68fa      	ldr	r2, [r7, #12]
 8005396:	f502 6280 	add.w	r2, r2, #1024	@ 0x400
 800539a:	f023 0304 	bic.w	r3, r3, #4
 800539e:	6013      	str	r3, [r2, #0]
 80053a0:	e009      	b.n	80053b6 <USB_HostInit+0x9e>
 80053a2:	68fb      	ldr	r3, [r7, #12]
 80053a4:	f503 6380 	add.w	r3, r3, #1024	@ 0x400
 80053a8:	681b      	ldr	r3, [r3, #0]
 80053aa:	68fa      	ldr	r2, [r7, #12]
 80053ac:	f502 6280 	add.w	r2, r2, #1024	@ 0x400
 80053b0:	f023 0304 	bic.w	r3, r3, #4
 80053b4:	6013      	str	r3, [r2, #0]
 80053b6:	2110      	movs	r1, #16
 80053b8:	6878      	ldr	r0, [r7, #4]
 80053ba:	f7ff fe44 	bl	8005046 <USB_FlushTxFifo>
 80053be:	4603      	mov	r3, r0
 80053c0:	2b00      	cmp	r3, #0
 80053c2:	d001      	beq.n	80053c8 <USB_HostInit+0xb0>
 80053c4:	2301      	movs	r3, #1
 80053c6:	75fb      	strb	r3, [r7, #23]
 80053c8:	6878      	ldr	r0, [r7, #4]
 80053ca:	f7ff fe6e 	bl	80050aa <USB_FlushRxFifo>
 80053ce:	4603      	mov	r3, r0
 80053d0:	2b00      	cmp	r3, #0
 80053d2:	d001      	beq.n	80053d8 <USB_HostInit+0xc0>
 80053d4:	2301      	movs	r3, #1
 80053d6:	75fb      	strb	r3, [r7, #23]
 80053d8:	2300      	movs	r3, #0
 80053da:	613b      	str	r3, [r7, #16]
 80053dc:	e015      	b.n	800540a <USB_HostInit+0xf2>
 80053de:	693b      	ldr	r3, [r7, #16]
 80053e0:	015a      	lsls	r2, r3, #5
 80053e2:	68fb      	ldr	r3, [r7, #12]
 80053e4:	4413      	add	r3, r2
 80053e6:	f503 63a0 	add.w	r3, r3, #1280	@ 0x500
 80053ea:	461a      	mov	r2, r3
 80053ec:	f04f 33ff 	mov.w	r3, #4294967295
 80053f0:	6093      	str	r3, [r2, #8]
 80053f2:	693b      	ldr	r3, [r7, #16]
 80053f4:	015a      	lsls	r2, r3, #5
 80053f6:	68fb      	ldr	r3, [r7, #12]
 80053f8:	4413      	add	r3, r2
 80053fa:	f503 63a0 	add.w	r3, r3, #1280	@ 0x500
 80053fe:	461a      	mov	r2, r3
 8005400:	2300      	movs	r3, #0
 8005402:	60d3      	str	r3, [r2, #12]
 8005404:	693b      	ldr	r3, [r7, #16]
 8005406:	3301      	adds	r3, #1
 8005408:	613b      	str	r3, [r7, #16]
 800540a:	f897 3025 	ldrb.w	r3, [r7, #37]	@ 0x25
 800540e:	461a      	mov	r2, r3
 8005410:	693b      	ldr	r3, [r7, #16]
 8005412:	4293      	cmp	r3, r2
 8005414:	d3e3      	bcc.n	80053de <USB_HostInit+0xc6>
 8005416:	687b      	ldr	r3, [r7, #4]
 8005418:	2200      	movs	r2, #0
 800541a:	619a      	str	r2, [r3, #24]
 800541c:	687b      	ldr	r3, [r7, #4]
 800541e:	f04f 32ff 	mov.w	r2, #4294967295
 8005422:	615a      	str	r2, [r3, #20]
 8005424:	687b      	ldr	r3, [r7, #4]
 8005426:	4a18      	ldr	r2, [pc, #96]	@ (8005488 <USB_HostInit+0x170>)
 8005428:	4293      	cmp	r3, r2
 800542a:	d10b      	bne.n	8005444 <USB_HostInit+0x12c>
 800542c:	687b      	ldr	r3, [r7, #4]
 800542e:	f44f 7200 	mov.w	r2, #512	@ 0x200
 8005432:	625a      	str	r2, [r3, #36]	@ 0x24
 8005434:	687b      	ldr	r3, [r7, #4]
 8005436:	4a15      	ldr	r2, [pc, #84]	@ (800548c <USB_HostInit+0x174>)
 8005438:	629a      	str	r2, [r3, #40]	@ 0x28
 800543a:	687b      	ldr	r3, [r7, #4]
 800543c:	4a14      	ldr	r2, [pc, #80]	@ (8005490 <USB_HostInit+0x178>)
 800543e:	f8c3 2100 	str.w	r2, [r3, #256]	@ 0x100
 8005442:	e009      	b.n	8005458 <USB_HostInit+0x140>
 8005444:	687b      	ldr	r3, [r7, #4]
 8005446:	2280      	movs	r2, #128	@ 0x80
 8005448:	625a      	str	r2, [r3, #36]	@ 0x24
 800544a:	687b      	ldr	r3, [r7, #4]
 800544c:	4a11      	ldr	r2, [pc, #68]	@ (8005494 <USB_HostInit+0x17c>)
 800544e:	629a      	str	r2, [r3, #40]	@ 0x28
 8005450:	687b      	ldr	r3, [r7, #4]
 8005452:	4a11      	ldr	r2, [pc, #68]	@ (8005498 <USB_HostInit+0x180>)
 8005454:	f8c3 2100 	str.w	r2, [r3, #256]	@ 0x100
 8005458:	f897 3026 	ldrb.w	r3, [r7, #38]	@ 0x26
 800545c:	2b00      	cmp	r3, #0
 800545e:	d105      	bne.n	800546c <USB_HostInit+0x154>
 8005460:	687b      	ldr	r3, [r7, #4]
 8005462:	699b      	ldr	r3, [r3, #24]
 8005464:	f043 0210 	orr.w	r2, r3, #16
 8005468:	687b      	ldr	r3, [r7, #4]
 800546a:	619a      	str	r2, [r3, #24]
 800546c:	687b      	ldr	r3, [r7, #4]
 800546e:	699a      	ldr	r2, [r3, #24]
 8005470:	4b0a      	ldr	r3, [pc, #40]	@ (800549c <USB_HostInit+0x184>)
 8005472:	4313      	orrs	r3, r2
 8005474:	687a      	ldr	r2, [r7, #4]
 8005476:	6193      	str	r3, [r2, #24]
 8005478:	7dfb      	ldrb	r3, [r7, #23]
 800547a:	4618      	mov	r0, r3
 800547c:	3718      	adds	r7, #24
 800547e:	46bd      	mov	sp, r7
 8005480:	e8bd 4080 	ldmia.w	sp!, {r7, lr}
 8005484:	b004      	add	sp, #16
 8005486:	4770      	bx	lr
 8005488:	40040000 	.word	0x40040000
 800548c:	01000200 	.word	0x01000200
 8005490:	00e00300 	.word	0x00e00300
 8005494:	00600080 	.word	0x00600080
 8005498:	004000e0 	.word	0x004000e0
 800549c:	a3200008 	.word	0xa3200008

080054a0 <USB_InitFSLSPClkSel>:
 80054a0:	b480      	push	{r7}
 80054a2:	b085      	sub	sp, #20
 80054a4:	af00      	add	r7, sp, #0
 80054a6:	6078      	str	r0, [r7, #4]
 80054a8:	460b      	mov	r3, r1
 80054aa:	70fb      	strb	r3, [r7, #3]
 80054ac:	687b      	ldr	r3, [r7, #4]
 80054ae:	60fb      	str	r3, [r7, #12]
 80054b0:	68fb      	ldr	r3, [r7, #12]
 80054b2:	f503 6380 	add.w	r3, r3, #1024	@ 0x400
 80054b6:	681b      	ldr	r3, [r3, #0]
 80054b8:	68fa      	ldr	r2, [r7, #12]
 80054ba:	f502 6280 	add.w	r2, r2, #1024	@ 0x400
 80054be:	f023 0303 	bic.w	r3, r3, #3
 80054c2:	6013      	str	r3, [r2, #0]
 80054c4:	68fb      	ldr	r3, [r7, #12]
 80054c6:	f503 6380 	add.w	r3, r3, #1024	@ 0x400
 80054ca:	681a      	ldr	r2, [r3, #0]
 80054cc:	78fb      	ldrb	r3, [r7, #3]
 80054ce:	f003 0303 	and.w	r3, r3, #3
 80054d2:	68f9      	ldr	r1, [r7, #12]
 80054d4:	f501 6180 	add.w	r1, r1, #1024	@ 0x400
 80054d8:	4313      	orrs	r3, r2
 80054da:	600b      	str	r3, [r1, #0]
 80054dc:	78fb      	ldrb	r3, [r7, #3]
 80054de:	2b01      	cmp	r3, #1
 80054e0:	d107      	bne.n	80054f2 <USB_InitFSLSPClkSel+0x52>
 80054e2:	68fb      	ldr	r3, [r7, #12]
 80054e4:	f503 6380 	add.w	r3, r3, #1024	@ 0x400
 80054e8:	461a      	mov	r2, r3
 80054ea:	f64b 3380 	movw	r3, #48000	@ 0xbb80
 80054ee:	6053      	str	r3, [r2, #4]
 80054f0:	e00c      	b.n	800550c <USB_InitFSLSPClkSel+0x6c>
 80054f2:	78fb      	ldrb	r3, [r7, #3]
 80054f4:	2b02      	cmp	r3, #2
 80054f6:	d107      	bne.n	8005508 <USB_InitFSLSPClkSel+0x68>
 80054f8:	68fb      	ldr	r3, [r7, #12]
 80054fa:	f503 6380 	add.w	r3, r3, #1024	@ 0x400
 80054fe:	461a      	mov	r2, r3
 8005500:	f241 7370 	movw	r3, #6000	@ 0x1770
 8005504:	6053      	str	r3, [r2, #4]
 8005506:	e001      	b.n	800550c <USB_InitFSLSPClkSel+0x6c>
 8005508:	2301      	movs	r3, #1
 800550a:	e000      	b.n	800550e <USB_InitFSLSPClkSel+0x6e>
 800550c:	2300      	movs	r3, #0
 800550e:	4618      	mov	r0, r3
 8005510:	3714      	adds	r7, #20
 8005512:	46bd      	mov	sp, r7
 8005514:	f85d 7b04 	ldr.w	r7, [sp], #4
 8005518:	4770      	bx	lr

0800551a <USB_ResetPort>:
 800551a:	b580      	push	{r7, lr}
 800551c:	b084      	sub	sp, #16
 800551e:	af00      	add	r7, sp, #0
 8005520:	6078      	str	r0, [r7, #4]
 8005522:	687b      	ldr	r3, [r7, #4]
 8005524:	60fb      	str	r3, [r7, #12]
 8005526:	2300      	movs	r3, #0
 8005528:	60bb      	str	r3, [r7, #8]
 800552a:	68fb      	ldr	r3, [r7, #12]
 800552c:	f503 6388 	add.w	r3, r3, #1088	@ 0x440
 8005530:	681b      	ldr	r3, [r3, #0]
 8005532:	60bb      	str	r3, [r7, #8]
 8005534:	68bb      	ldr	r3, [r7, #8]
 8005536:	f023 032e 	bic.w	r3, r3, #46	@ 0x2e
 800553a:	60bb      	str	r3, [r7, #8]
 800553c:	68bb      	ldr	r3, [r7, #8]
 800553e:	68fa      	ldr	r2, [r7, #12]
 8005540:	f502 6288 	add.w	r2, r2, #1088	@ 0x440
 8005544:	f443 7380 	orr.w	r3, r3, #256	@ 0x100
 8005548:	6013      	str	r3, [r2, #0]
 800554a:	2064      	movs	r0, #100	@ 0x64
 800554c:	f7fb fc58 	bl	8000e00 <HAL_Delay>
 8005550:	68bb      	ldr	r3, [r7, #8]
 8005552:	68fa      	ldr	r2, [r7, #12]
 8005554:	f502 6288 	add.w	r2, r2, #1088	@ 0x440
 8005558:	f423 7380 	bic.w	r3, r3, #256	@ 0x100
 800555c:	6013      	str	r3, [r2, #0]
 800555e:	200a      	movs	r0, #10
 8005560:	f7fb fc4e 	bl	8000e00 <HAL_Delay>
 8005564:	2300      	movs	r3, #0
 8005566:	4618      	mov	r0, r3
 8005568:	3710      	adds	r7, #16
 800556a:	46bd      	mov	sp, r7
 800556c:	bd80      	pop	{r7, pc}

0800556e <USB_DriveVbus>:
 800556e:	b480      	push	{r7}
 8005570:	b085      	sub	sp, #20
 8005572:	af00      	add	r7, sp, #0
 8005574:	6078      	str	r0, [r7, #4]
 8005576:	460b      	mov	r3, r1
 8005578:	70fb      	strb	r3, [r7, #3]
 800557a:	687b      	ldr	r3, [r7, #4]
 800557c:	60fb      	str	r3, [r7, #12]
 800557e:	2300      	movs	r3, #0
 8005580:	60bb      	str	r3, [r7, #8]
 8005582:	68fb      	ldr	r3, [r7, #12]
 8005584:	f503 6388 	add.w	r3, r3, #1088	@ 0x440
 8005588:	681b      	ldr	r3, [r3, #0]
 800558a:	60bb      	str	r3, [r7, #8]
 800558c:	68bb      	ldr	r3, [r7, #8]
 800558e:	f023 032e 	bic.w	r3, r3, #46	@ 0x2e
 8005592:	60bb      	str	r3, [r7, #8]
 8005594:	68bb      	ldr	r3, [r7, #8]
 8005596:	f403 5380 	and.w	r3, r3, #4096	@ 0x1000
 800559a:	2b00      	cmp	r3, #0
 800559c:	d109      	bne.n	80055b2 <USB_DriveVbus+0x44>
 800559e:	78fb      	ldrb	r3, [r7, #3]
 80055a0:	2b01      	cmp	r3, #1
 80055a2:	d106      	bne.n	80055b2 <USB_DriveVbus+0x44>
 80055a4:	68bb      	ldr	r3, [r7, #8]
 80055a6:	68fa      	ldr	r2, [r7, #12]
 80055a8:	f502 6288 	add.w	r2, r2, #1088	@ 0x440
 80055ac:	f443 5380 	orr.w	r3, r3, #4096	@ 0x1000
 80055b0:	6013      	str	r3, [r2, #0]
 80055b2:	68bb      	ldr	r3, [r7, #8]
 80055b4:	f403 5380 	and.w	r3, r3, #4096	@ 0x1000
 80055b8:	f5b3 5f80 	cmp.w	r3, #4096	@ 0x1000
 80055bc:	d109      	bne.n	80055d2 <USB_DriveVbus+0x64>
 80055be:	78fb      	ldrb	r3, [r7, #3]
 80055c0:	2b00      	cmp	r3, #0
 80055c2:	d106      	bne.n	80055d2 <USB_DriveVbus+0x64>
 80055c4:	68bb      	ldr	r3, [r7, #8]
 80055c6:	68fa      	ldr	r2, [r7, #12]
 80055c8:	f502 6288 	add.w	r2, r2, #1088	@ 0x440
 80055cc:	f423 5380 	bic.w	r3, r3, #4096	@ 0x1000
 80055d0:	6013      	str	r3, [r2, #0]
 80055d2:	2300      	movs	r3, #0
 80055d4:	4618      	mov	r0, r3
 80055d6:	3714      	adds	r7, #20
 80055d8:	46bd      	mov	sp, r7
 80055da:	f85d 7b04 	ldr.w	r7, [sp], #4
 80055de:	4770      	bx	lr

080055e0 <USB_GetHostSpeed>:
 80055e0:	b480      	push	{r7}
 80055e2:	b085      	sub	sp, #20
 80055e4:	af00      	add	r7, sp, #0
 80055e6:	6078      	str	r0, [r7, #4]
 80055e8:	687b      	ldr	r3, [r7, #4]
 80055ea:	60fb      	str	r3, [r7, #12]
 80055ec:	2300      	movs	r3, #0
 80055ee:	60bb      	str	r3, [r7, #8]
 80055f0:	68fb      	ldr	r3, [r7, #12]
 80055f2:	f503 6388 	add.w	r3, r3, #1088	@ 0x440
 80055f6:	681b      	ldr	r3, [r3, #0]
 80055f8:	60bb      	str	r3, [r7, #8]
 80055fa:	68bb      	ldr	r3, [r7, #8]
 80055fc:	0c5b      	lsrs	r3, r3, #17
 80055fe:	f003 0303 	and.w	r3, r3, #3
 8005602:	4618      	mov	r0, r3
 8005604:	3714      	adds	r7, #20
 8005606:	46bd      	mov	sp, r7
 8005608:	f85d 7b04 	ldr.w	r7, [sp], #4
 800560c:	4770      	bx	lr

0800560e <USB_GetCurrentFrame>:
 800560e:	b480      	push	{r7}
 8005610:	b085      	sub	sp, #20
 8005612:	af00      	add	r7, sp, #0
 8005614:	6078      	str	r0, [r7, #4]
 8005616:	687b      	ldr	r3, [r7, #4]
 8005618:	60fb      	str	r3, [r7, #12]
 800561a:	68fb      	ldr	r3, [r7, #12]
 800561c:	f503 6380 	add.w	r3, r3, #1024	@ 0x400
 8005620:	689b      	ldr	r3, [r3, #8]
 8005622:	b29b      	uxth	r3, r3
 8005624:	4618      	mov	r0, r3
 8005626:	3714      	adds	r7, #20
 8005628:	46bd      	mov	sp, r7
 800562a:	f85d 7b04 	ldr.w	r7, [sp], #4
 800562e:	4770      	bx	lr

08005630 <USB_HC_Init>:
 8005630:	b580      	push	{r7, lr}
 8005632:	b088      	sub	sp, #32
 8005634:	af00      	add	r7, sp, #0
 8005636:	6078      	str	r0, [r7, #4]
 8005638:	4608      	mov	r0, r1
 800563a:	4611      	mov	r1, r2
 800563c:	461a      	mov	r2, r3
 800563e:	4603      	mov	r3, r0
 8005640:	70fb      	strb	r3, [r7, #3]
 8005642:	460b      	mov	r3, r1
 8005644:	70bb      	strb	r3, [r7, #2]
 8005646:	4613      	mov	r3, r2
 8005648:	707b      	strb	r3, [r7, #1]
 800564a:	2300      	movs	r3, #0
 800564c:	77fb      	strb	r3, [r7, #31]
 800564e:	687b      	ldr	r3, [r7, #4]
 8005650:	613b      	str	r3, [r7, #16]
 8005652:	78fb      	ldrb	r3, [r7, #3]
 8005654:	015a      	lsls	r2, r3, #5
 8005656:	693b      	ldr	r3, [r7, #16]
 8005658:	4413      	add	r3, r2
 800565a:	f503 63a0 	add.w	r3, r3, #1280	@ 0x500
 800565e:	461a      	mov	r2, r3
 8005660:	f04f 33ff 	mov.w	r3, #4294967295
 8005664:	6093      	str	r3, [r2, #8]
 8005666:	f897 302c 	ldrb.w	r3, [r7, #44]	@ 0x2c
 800566a:	2b03      	cmp	r3, #3
 800566c:	d87c      	bhi.n	8005768 <USB_HC_Init+0x138>
 800566e:	a201      	add	r2, pc, #4	@ (adr r2, 8005674 <USB_HC_Init+0x44>)
 8005670:	f852 f023 	ldr.w	pc, [r2, r3, lsl #2]
 8005674:	08005685 	.word	0x08005685
 8005678:	0800572b 	.word	0x0800572b
 800567c:	08005685 	.word	0x08005685
 8005680:	080056ed 	.word	0x080056ed
 8005684:	78fb      	ldrb	r3, [r7, #3]
 8005686:	015a      	lsls	r2, r3, #5
 8005688:	693b      	ldr	r3, [r7, #16]
 800568a:	4413      	add	r3, r2
 800568c:	f503 63a0 	add.w	r3, r3, #1280	@ 0x500
 8005690:	461a      	mov	r2, r3
 8005692:	f240 439d 	movw	r3, #1181	@ 0x49d
 8005696:	60d3      	str	r3, [r2, #12]
 8005698:	f997 3002 	ldrsb.w	r3, [r7, #2]
 800569c:	2b00      	cmp	r3, #0
 800569e:	da10      	bge.n	80056c2 <USB_HC_Init+0x92>
 80056a0:	78fb      	ldrb	r3, [r7, #3]
 80056a2:	015a      	lsls	r2, r3, #5
 80056a4:	693b      	ldr	r3, [r7, #16]
 80056a6:	4413      	add	r3, r2
 80056a8:	f503 63a0 	add.w	r3, r3, #1280	@ 0x500
 80056ac:	68db      	ldr	r3, [r3, #12]
 80056ae:	78fa      	ldrb	r2, [r7, #3]
 80056b0:	0151      	lsls	r1, r2, #5
 80056b2:	693a      	ldr	r2, [r7, #16]
 80056b4:	440a      	add	r2, r1
 80056b6:	f502 62a0 	add.w	r2, r2, #1280	@ 0x500
 80056ba:	f443 7380 	orr.w	r3, r3, #256	@ 0x100
 80056be:	60d3      	str	r3, [r2, #12]
 80056c0:	e055      	b.n	800576e <USB_HC_Init+0x13e>
 80056c2:	687b      	ldr	r3, [r7, #4]
 80056c4:	4a6f      	ldr	r2, [pc, #444]	@ (8005884 <USB_HC_Init+0x254>)
 80056c6:	4293      	cmp	r3, r2
 80056c8:	d151      	bne.n	800576e <USB_HC_Init+0x13e>
 80056ca:	78fb      	ldrb	r3, [r7, #3]
 80056cc:	015a      	lsls	r2, r3, #5
 80056ce:	693b      	ldr	r3, [r7, #16]
 80056d0:	4413      	add	r3, r2
 80056d2:	f503 63a0 	add.w	r3, r3, #1280	@ 0x500
 80056d6:	68db      	ldr	r3, [r3, #12]
 80056d8:	78fa      	ldrb	r2, [r7, #3]
 80056da:	0151      	lsls	r1, r2, #5
 80056dc:	693a      	ldr	r2, [r7, #16]
 80056de:	440a      	add	r2, r1
 80056e0:	f502 62a0 	add.w	r2, r2, #1280	@ 0x500
 80056e4:	f043 0360 	orr.w	r3, r3, #96	@ 0x60
 80056e8:	60d3      	str	r3, [r2, #12]
 80056ea:	e040      	b.n	800576e <USB_HC_Init+0x13e>
 80056ec:	78fb      	ldrb	r3, [r7, #3]
 80056ee:	015a      	lsls	r2, r3, #5
 80056f0:	693b      	ldr	r3, [r7, #16]
 80056f2:	4413      	add	r3, r2
 80056f4:	f503 63a0 	add.w	r3, r3, #1280	@ 0x500
 80056f8:	461a      	mov	r2, r3
 80056fa:	f240 639d 	movw	r3, #1693	@ 0x69d
 80056fe:	60d3      	str	r3, [r2, #12]
 8005700:	f997 3002 	ldrsb.w	r3, [r7, #2]
 8005704:	2b00      	cmp	r3, #0
 8005706:	da34      	bge.n	8005772 <USB_HC_Init+0x142>
 8005708:	78fb      	ldrb	r3, [r7, #3]
 800570a:	015a      	lsls	r2, r3, #5
 800570c:	693b      	ldr	r3, [r7, #16]
 800570e:	4413      	add	r3, r2
 8005710:	f503 63a0 	add.w	r3, r3, #1280	@ 0x500
 8005714:	68db      	ldr	r3, [r3, #12]
 8005716:	78fa      	ldrb	r2, [r7, #3]
 8005718:	0151      	lsls	r1, r2, #5
 800571a:	693a      	ldr	r2, [r7, #16]
 800571c:	440a      	add	r2, r1
 800571e:	f502 62a0 	add.w	r2, r2, #1280	@ 0x500
 8005722:	f443 7380 	orr.w	r3, r3, #256	@ 0x100
 8005726:	60d3      	str	r3, [r2, #12]
 8005728:	e023      	b.n	8005772 <USB_HC_Init+0x142>
 800572a:	78fb      	ldrb	r3, [r7, #3]
 800572c:	015a      	lsls	r2, r3, #5
 800572e:	693b      	ldr	r3, [r7, #16]
 8005730:	4413      	add	r3, r2
 8005732:	f503 63a0 	add.w	r3, r3, #1280	@ 0x500
 8005736:	461a      	mov	r2, r3
 8005738:	f240 2325 	movw	r3, #549	@ 0x225
 800573c:	60d3      	str	r3, [r2, #12]
 800573e:	f997 3002 	ldrsb.w	r3, [r7, #2]
 8005742:	2b00      	cmp	r3, #0
 8005744:	da17      	bge.n	8005776 <USB_HC_Init+0x146>
 8005746:	78fb      	ldrb	r3, [r7, #3]
 8005748:	015a      	lsls	r2, r3, #5
 800574a:	693b      	ldr	r3, [r7, #16]
 800574c:	4413      	add	r3, r2
 800574e:	f503 63a0 	add.w	r3, r3, #1280	@ 0x500
 8005752:	68db      	ldr	r3, [r3, #12]
 8005754:	78fa      	ldrb	r2, [r7, #3]
 8005756:	0151      	lsls	r1, r2, #5
 8005758:	693a      	ldr	r2, [r7, #16]
 800575a:	440a      	add	r2, r1
 800575c:	f502 62a0 	add.w	r2, r2, #1280	@ 0x500
 8005760:	f443 73c0 	orr.w	r3, r3, #384	@ 0x180
 8005764:	60d3      	str	r3, [r2, #12]
 8005766:	e006      	b.n	8005776 <USB_HC_Init+0x146>
 8005768:	2301      	movs	r3, #1
 800576a:	77fb      	strb	r3, [r7, #31]
 800576c:	e004      	b.n	8005778 <USB_HC_Init+0x148>
 800576e:	bf00      	nop
 8005770:	e002      	b.n	8005778 <USB_HC_Init+0x148>
 8005772:	bf00      	nop
 8005774:	e000      	b.n	8005778 <USB_HC_Init+0x148>
 8005776:	bf00      	nop
 8005778:	78fb      	ldrb	r3, [r7, #3]
 800577a:	015a      	lsls	r2, r3, #5
 800577c:	693b      	ldr	r3, [r7, #16]
 800577e:	4413      	add	r3, r2
 8005780:	f503 63a0 	add.w	r3, r3, #1280	@ 0x500
 8005784:	461a      	mov	r2, r3
 8005786:	2300      	movs	r3, #0
 8005788:	6053      	str	r3, [r2, #4]
 800578a:	78fb      	ldrb	r3, [r7, #3]
 800578c:	015a      	lsls	r2, r3, #5
 800578e:	693b      	ldr	r3, [r7, #16]
 8005790:	4413      	add	r3, r2
 8005792:	f503 63a0 	add.w	r3, r3, #1280	@ 0x500
 8005796:	68db      	ldr	r3, [r3, #12]
 8005798:	78fa      	ldrb	r2, [r7, #3]
 800579a:	0151      	lsls	r1, r2, #5
 800579c:	693a      	ldr	r2, [r7, #16]
 800579e:	440a      	add	r2, r1
 80057a0:	f502 62a0 	add.w	r2, r2, #1280	@ 0x500
 80057a4:	f043 0302 	orr.w	r3, r3, #2
 80057a8:	60d3      	str	r3, [r2, #12]
 80057aa:	693b      	ldr	r3, [r7, #16]
 80057ac:	f503 6380 	add.w	r3, r3, #1024	@ 0x400
 80057b0:	699a      	ldr	r2, [r3, #24]
 80057b2:	78fb      	ldrb	r3, [r7, #3]
 80057b4:	f003 030f 	and.w	r3, r3, #15
 80057b8:	2101      	movs	r1, #1
 80057ba:	fa01 f303 	lsl.w	r3, r1, r3
 80057be:	6939      	ldr	r1, [r7, #16]
 80057c0:	f501 6180 	add.w	r1, r1, #1024	@ 0x400
 80057c4:	4313      	orrs	r3, r2
 80057c6:	618b      	str	r3, [r1, #24]
 80057c8:	687b      	ldr	r3, [r7, #4]
 80057ca:	699b      	ldr	r3, [r3, #24]
 80057cc:	f043 7200 	orr.w	r2, r3, #33554432	@ 0x2000000
 80057d0:	687b      	ldr	r3, [r7, #4]
 80057d2:	619a      	str	r2, [r3, #24]
 80057d4:	f997 3002 	ldrsb.w	r3, [r7, #2]
 80057d8:	2b00      	cmp	r3, #0
 80057da:	da03      	bge.n	80057e4 <USB_HC_Init+0x1b4>
 80057dc:	f44f 4300 	mov.w	r3, #32768	@ 0x8000
 80057e0:	61bb      	str	r3, [r7, #24]
 80057e2:	e001      	b.n	80057e8 <USB_HC_Init+0x1b8>
 80057e4:	2300      	movs	r3, #0
 80057e6:	61bb      	str	r3, [r7, #24]
 80057e8:	6878      	ldr	r0, [r7, #4]
 80057ea:	f7ff fef9 	bl	80055e0 <USB_GetHostSpeed>
 80057ee:	60f8      	str	r0, [r7, #12]
 80057f0:	f897 3028 	ldrb.w	r3, [r7, #40]	@ 0x28
 80057f4:	2b02      	cmp	r3, #2
 80057f6:	d106      	bne.n	8005806 <USB_HC_Init+0x1d6>
 80057f8:	68fb      	ldr	r3, [r7, #12]
 80057fa:	2b02      	cmp	r3, #2
 80057fc:	d003      	beq.n	8005806 <USB_HC_Init+0x1d6>
 80057fe:	f44f 3300 	mov.w	r3, #131072	@ 0x20000
 8005802:	617b      	str	r3, [r7, #20]
 8005804:	e001      	b.n	800580a <USB_HC_Init+0x1da>
 8005806:	2300      	movs	r3, #0
 8005808:	617b      	str	r3, [r7, #20]
 800580a:	787b      	ldrb	r3, [r7, #1]
 800580c:	059b      	lsls	r3, r3, #22
 800580e:	f003 52fe 	and.w	r2, r3, #532676608	@ 0x1fc00000
 8005812:	78bb      	ldrb	r3, [r7, #2]
 8005814:	02db      	lsls	r3, r3, #11
 8005816:	f403 43f0 	and.w	r3, r3, #30720	@ 0x7800
 800581a:	431a      	orrs	r2, r3
 800581c:	f897 302c 	ldrb.w	r3, [r7, #44]	@ 0x2c
 8005820:	049b      	lsls	r3, r3, #18
 8005822:	f403 2340 	and.w	r3, r3, #786432	@ 0xc0000
 8005826:	431a      	orrs	r2, r3
 8005828:	8e3b      	ldrh	r3, [r7, #48]	@ 0x30
 800582a:	f3c3 030a 	ubfx	r3, r3, #0, #11
 800582e:	431a      	orrs	r2, r3
 8005830:	69bb      	ldr	r3, [r7, #24]
 8005832:	431a      	orrs	r2, r3
 8005834:	697b      	ldr	r3, [r7, #20]
 8005836:	4313      	orrs	r3, r2
 8005838:	78fa      	ldrb	r2, [r7, #3]
 800583a:	0151      	lsls	r1, r2, #5
 800583c:	693a      	ldr	r2, [r7, #16]
 800583e:	440a      	add	r2, r1
 8005840:	f502 62a0 	add.w	r2, r2, #1280	@ 0x500
 8005844:	f443 1380 	orr.w	r3, r3, #1048576	@ 0x100000
 8005848:	6013      	str	r3, [r2, #0]
 800584a:	f897 302c 	ldrb.w	r3, [r7, #44]	@ 0x2c
 800584e:	2b03      	cmp	r3, #3
 8005850:	d003      	beq.n	800585a <USB_HC_Init+0x22a>
 8005852:	f897 302c 	ldrb.w	r3, [r7, #44]	@ 0x2c
 8005856:	2b01      	cmp	r3, #1
 8005858:	d10f      	bne.n	800587a <USB_HC_Init+0x24a>
 800585a:	78fb      	ldrb	r3, [r7, #3]
 800585c:	015a      	lsls	r2, r3, #5
 800585e:	693b      	ldr	r3, [r7, #16]
 8005860:	4413      	add	r3, r2
 8005862:	f503 63a0 	add.w	r3, r3, #1280	@ 0x500
 8005866:	681b      	ldr	r3, [r3, #0]
 8005868:	78fa      	ldrb	r2, [r7, #3]
 800586a:	0151      	lsls	r1, r2, #5
 800586c:	693a      	ldr	r2, [r7, #16]
 800586e:	440a      	add	r2, r1
 8005870:	f502 62a0 	add.w	r2, r2, #1280	@ 0x500
 8005874:	f043 5300 	orr.w	r3, r3, #536870912	@ 0x20000000
 8005878:	6013      	str	r3, [r2, #0]
 800587a:	7ffb      	ldrb	r3, [r7, #31]
 800587c:	4618      	mov	r0, r3
 800587e:	3720      	adds	r7, #32
 8005880:	46bd      	mov	sp, r7
 8005882:	bd80      	pop	{r7, pc}
 8005884:	40040000 	.word	0x40040000

08005888 <USB_HC_StartXfer>:
 8005888:	b580      	push	{r7, lr}
 800588a:	b08c      	sub	sp, #48	@ 0x30
 800588c:	af02      	add	r7, sp, #8
 800588e:	60f8      	str	r0, [r7, #12]
 8005890:	60b9      	str	r1, [r7, #8]
 8005892:	4613      	mov	r3, r2
 8005894:	71fb      	strb	r3, [r7, #7]
 8005896:	68fb      	ldr	r3, [r7, #12]
 8005898:	623b      	str	r3, [r7, #32]
 800589a:	68bb      	ldr	r3, [r7, #8]
 800589c:	785b      	ldrb	r3, [r3, #1]
 800589e:	61fb      	str	r3, [r7, #28]
 80058a0:	f44f 7380 	mov.w	r3, #256	@ 0x100
 80058a4:	837b      	strh	r3, [r7, #26]
 80058a6:	68fb      	ldr	r3, [r7, #12]
 80058a8:	4a5d      	ldr	r2, [pc, #372]	@ (8005a20 <USB_HC_StartXfer+0x198>)
 80058aa:	4293      	cmp	r3, r2
 80058ac:	d12f      	bne.n	800590e <USB_HC_StartXfer+0x86>
 80058ae:	79fb      	ldrb	r3, [r7, #7]
 80058b0:	2b01      	cmp	r3, #1
 80058b2:	d11c      	bne.n	80058ee <USB_HC_StartXfer+0x66>
 80058b4:	68bb      	ldr	r3, [r7, #8]
 80058b6:	7c9b      	ldrb	r3, [r3, #18]
 80058b8:	2b00      	cmp	r3, #0
 80058ba:	d003      	beq.n	80058c4 <USB_HC_StartXfer+0x3c>
 80058bc:	68bb      	ldr	r3, [r7, #8]
 80058be:	7c9b      	ldrb	r3, [r3, #18]
 80058c0:	2b02      	cmp	r3, #2
 80058c2:	d124      	bne.n	800590e <USB_HC_StartXfer+0x86>
 80058c4:	68bb      	ldr	r3, [r7, #8]
 80058c6:	799b      	ldrb	r3, [r3, #6]
 80058c8:	2b00      	cmp	r3, #0
 80058ca:	d120      	bne.n	800590e <USB_HC_StartXfer+0x86>
 80058cc:	69fb      	ldr	r3, [r7, #28]
 80058ce:	015a      	lsls	r2, r3, #5
 80058d0:	6a3b      	ldr	r3, [r7, #32]
 80058d2:	4413      	add	r3, r2
 80058d4:	f503 63a0 	add.w	r3, r3, #1280	@ 0x500
 80058d8:	68db      	ldr	r3, [r3, #12]
 80058da:	69fa      	ldr	r2, [r7, #28]
 80058dc:	0151      	lsls	r1, r2, #5
 80058de:	6a3a      	ldr	r2, [r7, #32]
 80058e0:	440a      	add	r2, r1
 80058e2:	f502 62a0 	add.w	r2, r2, #1280	@ 0x500
 80058e6:	f023 0370 	bic.w	r3, r3, #112	@ 0x70
 80058ea:	60d3      	str	r3, [r2, #12]
 80058ec:	e00f      	b.n	800590e <USB_HC_StartXfer+0x86>
 80058ee:	68bb      	ldr	r3, [r7, #8]
 80058f0:	791b      	ldrb	r3, [r3, #4]
 80058f2:	2b00      	cmp	r3, #0
 80058f4:	d10b      	bne.n	800590e <USB_HC_StartXfer+0x86>
 80058f6:	68bb      	ldr	r3, [r7, #8]
 80058f8:	795b      	ldrb	r3, [r3, #5]
 80058fa:	2b01      	cmp	r3, #1
 80058fc:	d107      	bne.n	800590e <USB_HC_StartXfer+0x86>
 80058fe:	68bb      	ldr	r3, [r7, #8]
 8005900:	785b      	ldrb	r3, [r3, #1]
 8005902:	4619      	mov	r1, r3
 8005904:	68f8      	ldr	r0, [r7, #12]
 8005906:	f000 fb6b 	bl	8005fe0 <USB_DoPing>
 800590a:	2300      	movs	r3, #0
 800590c:	e232      	b.n	8005d74 <USB_HC_StartXfer+0x4ec>
 800590e:	68bb      	ldr	r3, [r7, #8]
 8005910:	799b      	ldrb	r3, [r3, #6]
 8005912:	2b01      	cmp	r3, #1
 8005914:	d158      	bne.n	80059c8 <USB_HC_StartXfer+0x140>
 8005916:	2301      	movs	r3, #1
 8005918:	84fb      	strh	r3, [r7, #38]	@ 0x26
 800591a:	68bb      	ldr	r3, [r7, #8]
 800591c:	78db      	ldrb	r3, [r3, #3]
 800591e:	2b00      	cmp	r3, #0
 8005920:	d007      	beq.n	8005932 <USB_HC_StartXfer+0xaa>
 8005922:	8cfb      	ldrh	r3, [r7, #38]	@ 0x26
 8005924:	68ba      	ldr	r2, [r7, #8]
 8005926:	8a92      	ldrh	r2, [r2, #20]
 8005928:	fb03 f202 	mul.w	r2, r3, r2
 800592c:	68bb      	ldr	r3, [r7, #8]
 800592e:	61da      	str	r2, [r3, #28]
 8005930:	e07c      	b.n	8005a2c <USB_HC_StartXfer+0x1a4>
 8005932:	68bb      	ldr	r3, [r7, #8]
 8005934:	7c9b      	ldrb	r3, [r3, #18]
 8005936:	2b01      	cmp	r3, #1
 8005938:	d130      	bne.n	800599c <USB_HC_StartXfer+0x114>
 800593a:	68bb      	ldr	r3, [r7, #8]
 800593c:	6a1b      	ldr	r3, [r3, #32]
 800593e:	2bbc      	cmp	r3, #188	@ 0xbc
 8005940:	d918      	bls.n	8005974 <USB_HC_StartXfer+0xec>
 8005942:	68bb      	ldr	r3, [r7, #8]
 8005944:	8a9b      	ldrh	r3, [r3, #20]
 8005946:	461a      	mov	r2, r3
 8005948:	68bb      	ldr	r3, [r7, #8]
 800594a:	61da      	str	r2, [r3, #28]
 800594c:	68bb      	ldr	r3, [r7, #8]
 800594e:	69da      	ldr	r2, [r3, #28]
 8005950:	68bb      	ldr	r3, [r7, #8]
 8005952:	621a      	str	r2, [r3, #32]
 8005954:	68bb      	ldr	r3, [r7, #8]
 8005956:	68db      	ldr	r3, [r3, #12]
 8005958:	2b01      	cmp	r3, #1
 800595a:	d003      	beq.n	8005964 <USB_HC_StartXfer+0xdc>
 800595c:	68bb      	ldr	r3, [r7, #8]
 800595e:	68db      	ldr	r3, [r3, #12]
 8005960:	2b02      	cmp	r3, #2
 8005962:	d103      	bne.n	800596c <USB_HC_StartXfer+0xe4>
 8005964:	68bb      	ldr	r3, [r7, #8]
 8005966:	2202      	movs	r2, #2
 8005968:	60da      	str	r2, [r3, #12]
 800596a:	e05f      	b.n	8005a2c <USB_HC_StartXfer+0x1a4>
 800596c:	68bb      	ldr	r3, [r7, #8]
 800596e:	2201      	movs	r2, #1
 8005970:	60da      	str	r2, [r3, #12]
 8005972:	e05b      	b.n	8005a2c <USB_HC_StartXfer+0x1a4>
 8005974:	68bb      	ldr	r3, [r7, #8]
 8005976:	6a1a      	ldr	r2, [r3, #32]
 8005978:	68bb      	ldr	r3, [r7, #8]
 800597a:	61da      	str	r2, [r3, #28]
 800597c:	68bb      	ldr	r3, [r7, #8]
 800597e:	68db      	ldr	r3, [r3, #12]
 8005980:	2b01      	cmp	r3, #1
 8005982:	d007      	beq.n	8005994 <USB_HC_StartXfer+0x10c>
 8005984:	68bb      	ldr	r3, [r7, #8]
 8005986:	68db      	ldr	r3, [r3, #12]
 8005988:	2b02      	cmp	r3, #2
 800598a:	d003      	beq.n	8005994 <USB_HC_StartXfer+0x10c>
 800598c:	68bb      	ldr	r3, [r7, #8]
 800598e:	2204      	movs	r2, #4
 8005990:	60da      	str	r2, [r3, #12]
 8005992:	e04b      	b.n	8005a2c <USB_HC_StartXfer+0x1a4>
 8005994:	68bb      	ldr	r3, [r7, #8]
 8005996:	2203      	movs	r2, #3
 8005998:	60da      	str	r2, [r3, #12]
 800599a:	e047      	b.n	8005a2c <USB_HC_StartXfer+0x1a4>
 800599c:	79fb      	ldrb	r3, [r7, #7]
 800599e:	2b01      	cmp	r3, #1
 80059a0:	d10d      	bne.n	80059be <USB_HC_StartXfer+0x136>
 80059a2:	68bb      	ldr	r3, [r7, #8]
 80059a4:	6a1b      	ldr	r3, [r3, #32]
 80059a6:	68ba      	ldr	r2, [r7, #8]
 80059a8:	8a92      	ldrh	r2, [r2, #20]
 80059aa:	4293      	cmp	r3, r2
 80059ac:	d907      	bls.n	80059be <USB_HC_StartXfer+0x136>
 80059ae:	8cfb      	ldrh	r3, [r7, #38]	@ 0x26
 80059b0:	68ba      	ldr	r2, [r7, #8]
 80059b2:	8a92      	ldrh	r2, [r2, #20]
 80059b4:	fb03 f202 	mul.w	r2, r3, r2
 80059b8:	68bb      	ldr	r3, [r7, #8]
 80059ba:	61da      	str	r2, [r3, #28]
 80059bc:	e036      	b.n	8005a2c <USB_HC_StartXfer+0x1a4>
 80059be:	68bb      	ldr	r3, [r7, #8]
 80059c0:	6a1a      	ldr	r2, [r3, #32]
 80059c2:	68bb      	ldr	r3, [r7, #8]
 80059c4:	61da      	str	r2, [r3, #28]
 80059c6:	e031      	b.n	8005a2c <USB_HC_StartXfer+0x1a4>
 80059c8:	68bb      	ldr	r3, [r7, #8]
 80059ca:	6a1b      	ldr	r3, [r3, #32]
 80059cc:	2b00      	cmp	r3, #0
 80059ce:	d018      	beq.n	8005a02 <USB_HC_StartXfer+0x17a>
 80059d0:	68bb      	ldr	r3, [r7, #8]
 80059d2:	6a1b      	ldr	r3, [r3, #32]
 80059d4:	68ba      	ldr	r2, [r7, #8]
 80059d6:	8a92      	ldrh	r2, [r2, #20]
 80059d8:	4413      	add	r3, r2
 80059da:	3b01      	subs	r3, #1
 80059dc:	68ba      	ldr	r2, [r7, #8]
 80059de:	8a92      	ldrh	r2, [r2, #20]
 80059e0:	fbb3 f3f2 	udiv	r3, r3, r2
 80059e4:	84fb      	strh	r3, [r7, #38]	@ 0x26
 80059e6:	8cfa      	ldrh	r2, [r7, #38]	@ 0x26
 80059e8:	8b7b      	ldrh	r3, [r7, #26]
 80059ea:	429a      	cmp	r2, r3
 80059ec:	d90b      	bls.n	8005a06 <USB_HC_StartXfer+0x17e>
 80059ee:	8b7b      	ldrh	r3, [r7, #26]
 80059f0:	84fb      	strh	r3, [r7, #38]	@ 0x26
 80059f2:	8cfb      	ldrh	r3, [r7, #38]	@ 0x26
 80059f4:	68ba      	ldr	r2, [r7, #8]
 80059f6:	8a92      	ldrh	r2, [r2, #20]
 80059f8:	fb03 f202 	mul.w	r2, r3, r2
 80059fc:	68bb      	ldr	r3, [r7, #8]
 80059fe:	61da      	str	r2, [r3, #28]
 8005a00:	e001      	b.n	8005a06 <USB_HC_StartXfer+0x17e>
 8005a02:	2301      	movs	r3, #1
 8005a04:	84fb      	strh	r3, [r7, #38]	@ 0x26
 8005a06:	68bb      	ldr	r3, [r7, #8]
 8005a08:	78db      	ldrb	r3, [r3, #3]
 8005a0a:	2b00      	cmp	r3, #0
 8005a0c:	d00a      	beq.n	8005a24 <USB_HC_StartXfer+0x19c>
 8005a0e:	8cfb      	ldrh	r3, [r7, #38]	@ 0x26
 8005a10:	68ba      	ldr	r2, [r7, #8]
 8005a12:	8a92      	ldrh	r2, [r2, #20]
 8005a14:	fb03 f202 	mul.w	r2, r3, r2
 8005a18:	68bb      	ldr	r3, [r7, #8]
 8005a1a:	61da      	str	r2, [r3, #28]
 8005a1c:	e006      	b.n	8005a2c <USB_HC_StartXfer+0x1a4>
 8005a1e:	bf00      	nop
 8005a20:	40040000 	.word	0x40040000
 8005a24:	68bb      	ldr	r3, [r7, #8]
 8005a26:	6a1a      	ldr	r2, [r3, #32]
 8005a28:	68bb      	ldr	r3, [r7, #8]
 8005a2a:	61da      	str	r2, [r3, #28]
 8005a2c:	68bb      	ldr	r3, [r7, #8]
 8005a2e:	69db      	ldr	r3, [r3, #28]
 8005a30:	f3c3 0212 	ubfx	r2, r3, #0, #19
 8005a34:	8cfb      	ldrh	r3, [r7, #38]	@ 0x26
 8005a36:	04d9      	lsls	r1, r3, #19
 8005a38:	4ba3      	ldr	r3, [pc, #652]	@ (8005cc8 <USB_HC_StartXfer+0x440>)
 8005a3a:	400b      	ands	r3, r1
 8005a3c:	431a      	orrs	r2, r3
 8005a3e:	68bb      	ldr	r3, [r7, #8]
 8005a40:	7d9b      	ldrb	r3, [r3, #22]
 8005a42:	075b      	lsls	r3, r3, #29
 8005a44:	f003 43c0 	and.w	r3, r3, #1610612736	@ 0x60000000
 8005a48:	69f9      	ldr	r1, [r7, #28]
 8005a4a:	0148      	lsls	r0, r1, #5
 8005a4c:	6a39      	ldr	r1, [r7, #32]
 8005a4e:	4401      	add	r1, r0
 8005a50:	f501 61a0 	add.w	r1, r1, #1280	@ 0x500
 8005a54:	4313      	orrs	r3, r2
 8005a56:	610b      	str	r3, [r1, #16]
 8005a58:	79fb      	ldrb	r3, [r7, #7]
 8005a5a:	2b00      	cmp	r3, #0
 8005a5c:	d009      	beq.n	8005a72 <USB_HC_StartXfer+0x1ea>
 8005a5e:	68bb      	ldr	r3, [r7, #8]
 8005a60:	6999      	ldr	r1, [r3, #24]
 8005a62:	69fb      	ldr	r3, [r7, #28]
 8005a64:	015a      	lsls	r2, r3, #5
 8005a66:	6a3b      	ldr	r3, [r7, #32]
 8005a68:	4413      	add	r3, r2
 8005a6a:	f503 63a0 	add.w	r3, r3, #1280	@ 0x500
 8005a6e:	460a      	mov	r2, r1
 8005a70:	615a      	str	r2, [r3, #20]
 8005a72:	6a3b      	ldr	r3, [r7, #32]
 8005a74:	f503 6380 	add.w	r3, r3, #1024	@ 0x400
 8005a78:	689b      	ldr	r3, [r3, #8]
 8005a7a:	f003 0301 	and.w	r3, r3, #1
 8005a7e:	2b00      	cmp	r3, #0
 8005a80:	bf0c      	ite	eq
 8005a82:	2301      	moveq	r3, #1
 8005a84:	2300      	movne	r3, #0
 8005a86:	b2db      	uxtb	r3, r3
 8005a88:	767b      	strb	r3, [r7, #25]
 8005a8a:	69fb      	ldr	r3, [r7, #28]
 8005a8c:	015a      	lsls	r2, r3, #5
 8005a8e:	6a3b      	ldr	r3, [r7, #32]
 8005a90:	4413      	add	r3, r2
 8005a92:	f503 63a0 	add.w	r3, r3, #1280	@ 0x500
 8005a96:	681b      	ldr	r3, [r3, #0]
 8005a98:	69fa      	ldr	r2, [r7, #28]
 8005a9a:	0151      	lsls	r1, r2, #5
 8005a9c:	6a3a      	ldr	r2, [r7, #32]
 8005a9e:	440a      	add	r2, r1
 8005aa0:	f502 62a0 	add.w	r2, r2, #1280	@ 0x500
 8005aa4:	f023 5300 	bic.w	r3, r3, #536870912	@ 0x20000000
 8005aa8:	6013      	str	r3, [r2, #0]
 8005aaa:	69fb      	ldr	r3, [r7, #28]
 8005aac:	015a      	lsls	r2, r3, #5
 8005aae:	6a3b      	ldr	r3, [r7, #32]
 8005ab0:	4413      	add	r3, r2
 8005ab2:	f503 63a0 	add.w	r3, r3, #1280	@ 0x500
 8005ab6:	681a      	ldr	r2, [r3, #0]
 8005ab8:	7e7b      	ldrb	r3, [r7, #25]
 8005aba:	075b      	lsls	r3, r3, #29
 8005abc:	69f9      	ldr	r1, [r7, #28]
 8005abe:	0148      	lsls	r0, r1, #5
 8005ac0:	6a39      	ldr	r1, [r7, #32]
 8005ac2:	4401      	add	r1, r0
 8005ac4:	f501 61a0 	add.w	r1, r1, #1280	@ 0x500
 8005ac8:	4313      	orrs	r3, r2
 8005aca:	600b      	str	r3, [r1, #0]
 8005acc:	68bb      	ldr	r3, [r7, #8]
 8005ace:	799b      	ldrb	r3, [r3, #6]
 8005ad0:	2b01      	cmp	r3, #1
 8005ad2:	f040 80c3 	bne.w	8005c5c <USB_HC_StartXfer+0x3d4>
 8005ad6:	68bb      	ldr	r3, [r7, #8]
 8005ad8:	7c5b      	ldrb	r3, [r3, #17]
 8005ada:	01db      	lsls	r3, r3, #7
 8005adc:	68ba      	ldr	r2, [r7, #8]
 8005ade:	7c12      	ldrb	r2, [r2, #16]
 8005ae0:	4313      	orrs	r3, r2
 8005ae2:	69fa      	ldr	r2, [r7, #28]
 8005ae4:	0151      	lsls	r1, r2, #5
 8005ae6:	6a3a      	ldr	r2, [r7, #32]
 8005ae8:	440a      	add	r2, r1
 8005aea:	f502 62a0 	add.w	r2, r2, #1280	@ 0x500
 8005aee:	f043 4300 	orr.w	r3, r3, #2147483648	@ 0x80000000
 8005af2:	6053      	str	r3, [r2, #4]
 8005af4:	69fb      	ldr	r3, [r7, #28]
 8005af6:	015a      	lsls	r2, r3, #5
 8005af8:	6a3b      	ldr	r3, [r7, #32]
 8005afa:	4413      	add	r3, r2
 8005afc:	f503 63a0 	add.w	r3, r3, #1280	@ 0x500
 8005b00:	68db      	ldr	r3, [r3, #12]
 8005b02:	69fa      	ldr	r2, [r7, #28]
 8005b04:	0151      	lsls	r1, r2, #5
 8005b06:	6a3a      	ldr	r2, [r7, #32]
 8005b08:	440a      	add	r2, r1
 8005b0a:	f502 62a0 	add.w	r2, r2, #1280	@ 0x500
 8005b0e:	f043 0360 	orr.w	r3, r3, #96	@ 0x60
 8005b12:	60d3      	str	r3, [r2, #12]
 8005b14:	68bb      	ldr	r3, [r7, #8]
 8005b16:	79db      	ldrb	r3, [r3, #7]
 8005b18:	2b01      	cmp	r3, #1
 8005b1a:	d123      	bne.n	8005b64 <USB_HC_StartXfer+0x2dc>
 8005b1c:	68bb      	ldr	r3, [r7, #8]
 8005b1e:	78db      	ldrb	r3, [r3, #3]
 8005b20:	2b00      	cmp	r3, #0
 8005b22:	d11f      	bne.n	8005b64 <USB_HC_StartXfer+0x2dc>
 8005b24:	69fb      	ldr	r3, [r7, #28]
 8005b26:	015a      	lsls	r2, r3, #5
 8005b28:	6a3b      	ldr	r3, [r7, #32]
 8005b2a:	4413      	add	r3, r2
 8005b2c:	f503 63a0 	add.w	r3, r3, #1280	@ 0x500
 8005b30:	685b      	ldr	r3, [r3, #4]
 8005b32:	69fa      	ldr	r2, [r7, #28]
 8005b34:	0151      	lsls	r1, r2, #5
 8005b36:	6a3a      	ldr	r2, [r7, #32]
 8005b38:	440a      	add	r2, r1
 8005b3a:	f502 62a0 	add.w	r2, r2, #1280	@ 0x500
 8005b3e:	f443 3380 	orr.w	r3, r3, #65536	@ 0x10000
 8005b42:	6053      	str	r3, [r2, #4]
 8005b44:	69fb      	ldr	r3, [r7, #28]
 8005b46:	015a      	lsls	r2, r3, #5
 8005b48:	6a3b      	ldr	r3, [r7, #32]
 8005b4a:	4413      	add	r3, r2
 8005b4c:	f503 63a0 	add.w	r3, r3, #1280	@ 0x500
 8005b50:	68db      	ldr	r3, [r3, #12]
 8005b52:	69fa      	ldr	r2, [r7, #28]
 8005b54:	0151      	lsls	r1, r2, #5
 8005b56:	6a3a      	ldr	r2, [r7, #32]
 8005b58:	440a      	add	r2, r1
 8005b5a:	f502 62a0 	add.w	r2, r2, #1280	@ 0x500
 8005b5e:	f043 0340 	orr.w	r3, r3, #64	@ 0x40
 8005b62:	60d3      	str	r3, [r2, #12]
 8005b64:	68bb      	ldr	r3, [r7, #8]
 8005b66:	7c9b      	ldrb	r3, [r3, #18]
 8005b68:	2b01      	cmp	r3, #1
 8005b6a:	d003      	beq.n	8005b74 <USB_HC_StartXfer+0x2ec>
 8005b6c:	68bb      	ldr	r3, [r7, #8]
 8005b6e:	7c9b      	ldrb	r3, [r3, #18]
 8005b70:	2b03      	cmp	r3, #3
 8005b72:	d117      	bne.n	8005ba4 <USB_HC_StartXfer+0x31c>
 8005b74:	68bb      	ldr	r3, [r7, #8]
 8005b76:	79db      	ldrb	r3, [r3, #7]
 8005b78:	2b01      	cmp	r3, #1
 8005b7a:	d113      	bne.n	8005ba4 <USB_HC_StartXfer+0x31c>
 8005b7c:	68bb      	ldr	r3, [r7, #8]
 8005b7e:	78db      	ldrb	r3, [r3, #3]
 8005b80:	2b01      	cmp	r3, #1
 8005b82:	d10f      	bne.n	8005ba4 <USB_HC_StartXfer+0x31c>
 8005b84:	69fb      	ldr	r3, [r7, #28]
 8005b86:	015a      	lsls	r2, r3, #5
 8005b88:	6a3b      	ldr	r3, [r7, #32]
 8005b8a:	4413      	add	r3, r2
 8005b8c:	f503 63a0 	add.w	r3, r3, #1280	@ 0x500
 8005b90:	685b      	ldr	r3, [r3, #4]
 8005b92:	69fa      	ldr	r2, [r7, #28]
 8005b94:	0151      	lsls	r1, r2, #5
 8005b96:	6a3a      	ldr	r2, [r7, #32]
 8005b98:	440a      	add	r2, r1
 8005b9a:	f502 62a0 	add.w	r2, r2, #1280	@ 0x500
 8005b9e:	f443 3380 	orr.w	r3, r3, #65536	@ 0x10000
 8005ba2:	6053      	str	r3, [r2, #4]
 8005ba4:	68bb      	ldr	r3, [r7, #8]
 8005ba6:	7c9b      	ldrb	r3, [r3, #18]
 8005ba8:	2b01      	cmp	r3, #1
 8005baa:	d162      	bne.n	8005c72 <USB_HC_StartXfer+0x3ea>
 8005bac:	68bb      	ldr	r3, [r7, #8]
 8005bae:	78db      	ldrb	r3, [r3, #3]
 8005bb0:	2b00      	cmp	r3, #0
 8005bb2:	d15e      	bne.n	8005c72 <USB_HC_StartXfer+0x3ea>
 8005bb4:	68bb      	ldr	r3, [r7, #8]
 8005bb6:	68db      	ldr	r3, [r3, #12]
 8005bb8:	3b01      	subs	r3, #1
 8005bba:	2b03      	cmp	r3, #3
 8005bbc:	d858      	bhi.n	8005c70 <USB_HC_StartXfer+0x3e8>
 8005bbe:	a201      	add	r2, pc, #4	@ (adr r2, 8005bc4 <USB_HC_StartXfer+0x33c>)
 8005bc0:	f852 f023 	ldr.w	pc, [r2, r3, lsl #2]
 8005bc4:	08005bd5 	.word	0x08005bd5
 8005bc8:	08005bf7 	.word	0x08005bf7
 8005bcc:	08005c19 	.word	0x08005c19
 8005bd0:	08005c3b 	.word	0x08005c3b
 8005bd4:	69fb      	ldr	r3, [r7, #28]
 8005bd6:	015a      	lsls	r2, r3, #5
 8005bd8:	6a3b      	ldr	r3, [r7, #32]
 8005bda:	4413      	add	r3, r2
 8005bdc:	f503 63a0 	add.w	r3, r3, #1280	@ 0x500
 8005be0:	685b      	ldr	r3, [r3, #4]
 8005be2:	69fa      	ldr	r2, [r7, #28]
 8005be4:	0151      	lsls	r1, r2, #5
 8005be6:	6a3a      	ldr	r2, [r7, #32]
 8005be8:	440a      	add	r2, r1
 8005bea:	f502 62a0 	add.w	r2, r2, #1280	@ 0x500
 8005bee:	f443 4300 	orr.w	r3, r3, #32768	@ 0x8000
 8005bf2:	6053      	str	r3, [r2, #4]
 8005bf4:	e03d      	b.n	8005c72 <USB_HC_StartXfer+0x3ea>
 8005bf6:	69fb      	ldr	r3, [r7, #28]
 8005bf8:	015a      	lsls	r2, r3, #5
 8005bfa:	6a3b      	ldr	r3, [r7, #32]
 8005bfc:	4413      	add	r3, r2
 8005bfe:	f503 63a0 	add.w	r3, r3, #1280	@ 0x500
 8005c02:	685b      	ldr	r3, [r3, #4]
 8005c04:	69fa      	ldr	r2, [r7, #28]
 8005c06:	0151      	lsls	r1, r2, #5
 8005c08:	6a3a      	ldr	r2, [r7, #32]
 8005c0a:	440a      	add	r2, r1
 8005c0c:	f502 62a0 	add.w	r2, r2, #1280	@ 0x500
 8005c10:	f043 030e 	orr.w	r3, r3, #14
 8005c14:	6053      	str	r3, [r2, #4]
 8005c16:	e02c      	b.n	8005c72 <USB_HC_StartXfer+0x3ea>
 8005c18:	69fb      	ldr	r3, [r7, #28]
 8005c1a:	015a      	lsls	r2, r3, #5
 8005c1c:	6a3b      	ldr	r3, [r7, #32]
 8005c1e:	4413      	add	r3, r2
 8005c20:	f503 63a0 	add.w	r3, r3, #1280	@ 0x500
 8005c24:	685b      	ldr	r3, [r3, #4]
 8005c26:	69fa      	ldr	r2, [r7, #28]
 8005c28:	0151      	lsls	r1, r2, #5
 8005c2a:	6a3a      	ldr	r2, [r7, #32]
 8005c2c:	440a      	add	r2, r1
 8005c2e:	f502 62a0 	add.w	r2, r2, #1280	@ 0x500
 8005c32:	f443 4380 	orr.w	r3, r3, #16384	@ 0x4000
 8005c36:	6053      	str	r3, [r2, #4]
 8005c38:	e01b      	b.n	8005c72 <USB_HC_StartXfer+0x3ea>
 8005c3a:	69fb      	ldr	r3, [r7, #28]
 8005c3c:	015a      	lsls	r2, r3, #5
 8005c3e:	6a3b      	ldr	r3, [r7, #32]
 8005c40:	4413      	add	r3, r2
 8005c42:	f503 63a0 	add.w	r3, r3, #1280	@ 0x500
 8005c46:	685b      	ldr	r3, [r3, #4]
 8005c48:	69fa      	ldr	r2, [r7, #28]
 8005c4a:	0151      	lsls	r1, r2, #5
 8005c4c:	6a3a      	ldr	r2, [r7, #32]
 8005c4e:	440a      	add	r2, r1
 8005c50:	f502 62a0 	add.w	r2, r2, #1280	@ 0x500
 8005c54:	f443 4340 	orr.w	r3, r3, #49152	@ 0xc000
 8005c58:	6053      	str	r3, [r2, #4]
 8005c5a:	e00a      	b.n	8005c72 <USB_HC_StartXfer+0x3ea>
 8005c5c:	69fb      	ldr	r3, [r7, #28]
 8005c5e:	015a      	lsls	r2, r3, #5
 8005c60:	6a3b      	ldr	r3, [r7, #32]
 8005c62:	4413      	add	r3, r2
 8005c64:	f503 63a0 	add.w	r3, r3, #1280	@ 0x500
 8005c68:	461a      	mov	r2, r3
 8005c6a:	2300      	movs	r3, #0
 8005c6c:	6053      	str	r3, [r2, #4]
 8005c6e:	e000      	b.n	8005c72 <USB_HC_StartXfer+0x3ea>
 8005c70:	bf00      	nop
 8005c72:	69fb      	ldr	r3, [r7, #28]
 8005c74:	015a      	lsls	r2, r3, #5
 8005c76:	6a3b      	ldr	r3, [r7, #32]
 8005c78:	4413      	add	r3, r2
 8005c7a:	f503 63a0 	add.w	r3, r3, #1280	@ 0x500
 8005c7e:	681b      	ldr	r3, [r3, #0]
 8005c80:	613b      	str	r3, [r7, #16]
 8005c82:	693b      	ldr	r3, [r7, #16]
 8005c84:	f023 4380 	bic.w	r3, r3, #1073741824	@ 0x40000000
 8005c88:	613b      	str	r3, [r7, #16]
 8005c8a:	68bb      	ldr	r3, [r7, #8]
 8005c8c:	78db      	ldrb	r3, [r3, #3]
 8005c8e:	2b00      	cmp	r3, #0
 8005c90:	d004      	beq.n	8005c9c <USB_HC_StartXfer+0x414>
 8005c92:	693b      	ldr	r3, [r7, #16]
 8005c94:	f443 4300 	orr.w	r3, r3, #32768	@ 0x8000
 8005c98:	613b      	str	r3, [r7, #16]
 8005c9a:	e003      	b.n	8005ca4 <USB_HC_StartXfer+0x41c>
 8005c9c:	693b      	ldr	r3, [r7, #16]
 8005c9e:	f423 4300 	bic.w	r3, r3, #32768	@ 0x8000
 8005ca2:	613b      	str	r3, [r7, #16]
 8005ca4:	693b      	ldr	r3, [r7, #16]
 8005ca6:	f043 4300 	orr.w	r3, r3, #2147483648	@ 0x80000000
 8005caa:	613b      	str	r3, [r7, #16]
 8005cac:	69fb      	ldr	r3, [r7, #28]
 8005cae:	015a      	lsls	r2, r3, #5
 8005cb0:	6a3b      	ldr	r3, [r7, #32]
 8005cb2:	4413      	add	r3, r2
 8005cb4:	f503 63a0 	add.w	r3, r3, #1280	@ 0x500
 8005cb8:	461a      	mov	r2, r3
 8005cba:	693b      	ldr	r3, [r7, #16]
 8005cbc:	6013      	str	r3, [r2, #0]
 8005cbe:	79fb      	ldrb	r3, [r7, #7]
 8005cc0:	2b00      	cmp	r3, #0
 8005cc2:	d003      	beq.n	8005ccc <USB_HC_StartXfer+0x444>
 8005cc4:	2300      	movs	r3, #0
 8005cc6:	e055      	b.n	8005d74 <USB_HC_StartXfer+0x4ec>
 8005cc8:	1ff80000 	.word	0x1ff80000
 8005ccc:	68bb      	ldr	r3, [r7, #8]
 8005cce:	78db      	ldrb	r3, [r3, #3]
 8005cd0:	2b00      	cmp	r3, #0
 8005cd2:	d14e      	bne.n	8005d72 <USB_HC_StartXfer+0x4ea>
 8005cd4:	68bb      	ldr	r3, [r7, #8]
 8005cd6:	6a1b      	ldr	r3, [r3, #32]
 8005cd8:	2b00      	cmp	r3, #0
 8005cda:	d04a      	beq.n	8005d72 <USB_HC_StartXfer+0x4ea>
 8005cdc:	68bb      	ldr	r3, [r7, #8]
 8005cde:	79db      	ldrb	r3, [r3, #7]
 8005ce0:	2b00      	cmp	r3, #0
 8005ce2:	d146      	bne.n	8005d72 <USB_HC_StartXfer+0x4ea>
 8005ce4:	68bb      	ldr	r3, [r7, #8]
 8005ce6:	7c9b      	ldrb	r3, [r3, #18]
 8005ce8:	2b03      	cmp	r3, #3
 8005cea:	d831      	bhi.n	8005d50 <USB_HC_StartXfer+0x4c8>
 8005cec:	a201      	add	r2, pc, #4	@ (adr r2, 8005cf4 <USB_HC_StartXfer+0x46c>)
 8005cee:	f852 f023 	ldr.w	pc, [r2, r3, lsl #2]
 8005cf2:	bf00      	nop
 8005cf4:	08005d05 	.word	0x08005d05
 8005cf8:	08005d29 	.word	0x08005d29
 8005cfc:	08005d05 	.word	0x08005d05
 8005d00:	08005d29 	.word	0x08005d29
 8005d04:	68bb      	ldr	r3, [r7, #8]
 8005d06:	6a1b      	ldr	r3, [r3, #32]
 8005d08:	3303      	adds	r3, #3
 8005d0a:	089b      	lsrs	r3, r3, #2
 8005d0c:	82fb      	strh	r3, [r7, #22]
 8005d0e:	8afa      	ldrh	r2, [r7, #22]
 8005d10:	68fb      	ldr	r3, [r7, #12]
 8005d12:	6adb      	ldr	r3, [r3, #44]	@ 0x2c
 8005d14:	b29b      	uxth	r3, r3
 8005d16:	429a      	cmp	r2, r3
 8005d18:	d91c      	bls.n	8005d54 <USB_HC_StartXfer+0x4cc>
 8005d1a:	68fb      	ldr	r3, [r7, #12]
 8005d1c:	699b      	ldr	r3, [r3, #24]
 8005d1e:	f043 0220 	orr.w	r2, r3, #32
 8005d22:	68fb      	ldr	r3, [r7, #12]
 8005d24:	619a      	str	r2, [r3, #24]
 8005d26:	e015      	b.n	8005d54 <USB_HC_StartXfer+0x4cc>
 8005d28:	68bb      	ldr	r3, [r7, #8]
 8005d2a:	6a1b      	ldr	r3, [r3, #32]
 8005d2c:	3303      	adds	r3, #3
 8005d2e:	089b      	lsrs	r3, r3, #2
 8005d30:	82fb      	strh	r3, [r7, #22]
 8005d32:	8afa      	ldrh	r2, [r7, #22]
 8005d34:	6a3b      	ldr	r3, [r7, #32]
 8005d36:	f503 6380 	add.w	r3, r3, #1024	@ 0x400
 8005d3a:	691b      	ldr	r3, [r3, #16]
 8005d3c:	b29b      	uxth	r3, r3
 8005d3e:	429a      	cmp	r2, r3
 8005d40:	d90a      	bls.n	8005d58 <USB_HC_StartXfer+0x4d0>
 8005d42:	68fb      	ldr	r3, [r7, #12]
 8005d44:	699b      	ldr	r3, [r3, #24]
 8005d46:	f043 6280 	orr.w	r2, r3, #67108864	@ 0x4000000
 8005d4a:	68fb      	ldr	r3, [r7, #12]
 8005d4c:	619a      	str	r2, [r3, #24]
 8005d4e:	e003      	b.n	8005d58 <USB_HC_StartXfer+0x4d0>
 8005d50:	bf00      	nop
 8005d52:	e002      	b.n	8005d5a <USB_HC_StartXfer+0x4d2>
 8005d54:	bf00      	nop
 8005d56:	e000      	b.n	8005d5a <USB_HC_StartXfer+0x4d2>
 8005d58:	bf00      	nop
 8005d5a:	68bb      	ldr	r3, [r7, #8]
 8005d5c:	6999      	ldr	r1, [r3, #24]
 8005d5e:	68bb      	ldr	r3, [r7, #8]
 8005d60:	785a      	ldrb	r2, [r3, #1]
 8005d62:	68bb      	ldr	r3, [r7, #8]
 8005d64:	6a1b      	ldr	r3, [r3, #32]
 8005d66:	b29b      	uxth	r3, r3
 8005d68:	2000      	movs	r0, #0
 8005d6a:	9000      	str	r0, [sp, #0]
 8005d6c:	68f8      	ldr	r0, [r7, #12]
 8005d6e:	f7ff f9ca 	bl	8005106 <USB_WritePacket>
 8005d72:	2300      	movs	r3, #0
 8005d74:	4618      	mov	r0, r3
 8005d76:	3728      	adds	r7, #40	@ 0x28
 8005d78:	46bd      	mov	sp, r7
 8005d7a:	bd80      	pop	{r7, pc}

08005d7c <USB_HC_ReadInterrupt>:
 8005d7c:	b480      	push	{r7}
 8005d7e:	b085      	sub	sp, #20
 8005d80:	af00      	add	r7, sp, #0
 8005d82:	6078      	str	r0, [r7, #4]
 8005d84:	687b      	ldr	r3, [r7, #4]
 8005d86:	60fb      	str	r3, [r7, #12]
 8005d88:	68fb      	ldr	r3, [r7, #12]
 8005d8a:	f503 6380 	add.w	r3, r3, #1024	@ 0x400
 8005d8e:	695b      	ldr	r3, [r3, #20]
 8005d90:	b29b      	uxth	r3, r3
 8005d92:	4618      	mov	r0, r3
 8005d94:	3714      	adds	r7, #20
 8005d96:	46bd      	mov	sp, r7
 8005d98:	f85d 7b04 	ldr.w	r7, [sp], #4
 8005d9c:	4770      	bx	lr

08005d9e <USB_HC_Halt>:
 8005d9e:	b480      	push	{r7}
 8005da0:	b089      	sub	sp, #36	@ 0x24
 8005da2:	af00      	add	r7, sp, #0
 8005da4:	6078      	str	r0, [r7, #4]
 8005da6:	460b      	mov	r3, r1
 8005da8:	70fb      	strb	r3, [r7, #3]
 8005daa:	687b      	ldr	r3, [r7, #4]
 8005dac:	61fb      	str	r3, [r7, #28]
 8005dae:	78fb      	ldrb	r3, [r7, #3]
 8005db0:	61bb      	str	r3, [r7, #24]
 8005db2:	2300      	movs	r3, #0
 8005db4:	60bb      	str	r3, [r7, #8]
 8005db6:	69bb      	ldr	r3, [r7, #24]
 8005db8:	015a      	lsls	r2, r3, #5
 8005dba:	69fb      	ldr	r3, [r7, #28]
 8005dbc:	4413      	add	r3, r2
 8005dbe:	f503 63a0 	add.w	r3, r3, #1280	@ 0x500
 8005dc2:	681b      	ldr	r3, [r3, #0]
 8005dc4:	0c9b      	lsrs	r3, r3, #18
 8005dc6:	f003 0303 	and.w	r3, r3, #3
 8005dca:	617b      	str	r3, [r7, #20]
 8005dcc:	69bb      	ldr	r3, [r7, #24]
 8005dce:	015a      	lsls	r2, r3, #5
 8005dd0:	69fb      	ldr	r3, [r7, #28]
 8005dd2:	4413      	add	r3, r2
 8005dd4:	f503 63a0 	add.w	r3, r3, #1280	@ 0x500
 8005dd8:	681b      	ldr	r3, [r3, #0]
 8005dda:	0fdb      	lsrs	r3, r3, #31
 8005ddc:	f003 0301 	and.w	r3, r3, #1
 8005de0:	613b      	str	r3, [r7, #16]
 8005de2:	69bb      	ldr	r3, [r7, #24]
 8005de4:	015a      	lsls	r2, r3, #5
 8005de6:	69fb      	ldr	r3, [r7, #28]
 8005de8:	4413      	add	r3, r2
 8005dea:	f503 63a0 	add.w	r3, r3, #1280	@ 0x500
 8005dee:	685b      	ldr	r3, [r3, #4]
 8005df0:	0fdb      	lsrs	r3, r3, #31
 8005df2:	f003 0301 	and.w	r3, r3, #1
 8005df6:	60fb      	str	r3, [r7, #12]
 8005df8:	687b      	ldr	r3, [r7, #4]
 8005dfa:	689b      	ldr	r3, [r3, #8]
 8005dfc:	f003 0320 	and.w	r3, r3, #32
 8005e00:	2b20      	cmp	r3, #32
 8005e02:	d10d      	bne.n	8005e20 <USB_HC_Halt+0x82>
 8005e04:	68fb      	ldr	r3, [r7, #12]
 8005e06:	2b00      	cmp	r3, #0
 8005e08:	d10a      	bne.n	8005e20 <USB_HC_Halt+0x82>
 8005e0a:	693b      	ldr	r3, [r7, #16]
 8005e0c:	2b00      	cmp	r3, #0
 8005e0e:	d005      	beq.n	8005e1c <USB_HC_Halt+0x7e>
 8005e10:	697b      	ldr	r3, [r7, #20]
 8005e12:	2b01      	cmp	r3, #1
 8005e14:	d002      	beq.n	8005e1c <USB_HC_Halt+0x7e>
 8005e16:	697b      	ldr	r3, [r7, #20]
 8005e18:	2b03      	cmp	r3, #3
 8005e1a:	d101      	bne.n	8005e20 <USB_HC_Halt+0x82>
 8005e1c:	2300      	movs	r3, #0
 8005e1e:	e0d8      	b.n	8005fd2 <USB_HC_Halt+0x234>
 8005e20:	697b      	ldr	r3, [r7, #20]
 8005e22:	2b00      	cmp	r3, #0
 8005e24:	d002      	beq.n	8005e2c <USB_HC_Halt+0x8e>
 8005e26:	697b      	ldr	r3, [r7, #20]
 8005e28:	2b02      	cmp	r3, #2
 8005e2a:	d173      	bne.n	8005f14 <USB_HC_Halt+0x176>
 8005e2c:	69bb      	ldr	r3, [r7, #24]
 8005e2e:	015a      	lsls	r2, r3, #5
 8005e30:	69fb      	ldr	r3, [r7, #28]
 8005e32:	4413      	add	r3, r2
 8005e34:	f503 63a0 	add.w	r3, r3, #1280	@ 0x500
 8005e38:	681b      	ldr	r3, [r3, #0]
 8005e3a:	69ba      	ldr	r2, [r7, #24]
 8005e3c:	0151      	lsls	r1, r2, #5
 8005e3e:	69fa      	ldr	r2, [r7, #28]
 8005e40:	440a      	add	r2, r1
 8005e42:	f502 62a0 	add.w	r2, r2, #1280	@ 0x500
 8005e46:	f043 4380 	orr.w	r3, r3, #1073741824	@ 0x40000000
 8005e4a:	6013      	str	r3, [r2, #0]
 8005e4c:	687b      	ldr	r3, [r7, #4]
 8005e4e:	689b      	ldr	r3, [r3, #8]
 8005e50:	f003 0320 	and.w	r3, r3, #32
 8005e54:	2b00      	cmp	r3, #0
 8005e56:	d14a      	bne.n	8005eee <USB_HC_Halt+0x150>
 8005e58:	687b      	ldr	r3, [r7, #4]
 8005e5a:	6adb      	ldr	r3, [r3, #44]	@ 0x2c
 8005e5c:	f403 037f 	and.w	r3, r3, #16711680	@ 0xff0000
 8005e60:	2b00      	cmp	r3, #0
 8005e62:	d133      	bne.n	8005ecc <USB_HC_Halt+0x12e>
 8005e64:	69bb      	ldr	r3, [r7, #24]
 8005e66:	015a      	lsls	r2, r3, #5
 8005e68:	69fb      	ldr	r3, [r7, #28]
 8005e6a:	4413      	add	r3, r2
 8005e6c:	f503 63a0 	add.w	r3, r3, #1280	@ 0x500
 8005e70:	681b      	ldr	r3, [r3, #0]
 8005e72:	69ba      	ldr	r2, [r7, #24]
 8005e74:	0151      	lsls	r1, r2, #5
 8005e76:	69fa      	ldr	r2, [r7, #28]
 8005e78:	440a      	add	r2, r1
 8005e7a:	f502 62a0 	add.w	r2, r2, #1280	@ 0x500
 8005e7e:	f023 4300 	bic.w	r3, r3, #2147483648	@ 0x80000000
 8005e82:	6013      	str	r3, [r2, #0]
 8005e84:	69bb      	ldr	r3, [r7, #24]
 8005e86:	015a      	lsls	r2, r3, #5
 8005e88:	69fb      	ldr	r3, [r7, #28]
 8005e8a:	4413      	add	r3, r2
 8005e8c:	f503 63a0 	add.w	r3, r3, #1280	@ 0x500
 8005e90:	681b      	ldr	r3, [r3, #0]
 8005e92:	69ba      	ldr	r2, [r7, #24]
 8005e94:	0151      	lsls	r1, r2, #5
 8005e96:	69fa      	ldr	r2, [r7, #28]
 8005e98:	440a      	add	r2, r1
 8005e9a:	f502 62a0 	add.w	r2, r2, #1280	@ 0x500
 8005e9e:	f043 4300 	orr.w	r3, r3, #2147483648	@ 0x80000000
 8005ea2:	6013      	str	r3, [r2, #0]
 8005ea4:	68bb      	ldr	r3, [r7, #8]
 8005ea6:	3301      	adds	r3, #1
 8005ea8:	60bb      	str	r3, [r7, #8]
 8005eaa:	68bb      	ldr	r3, [r7, #8]
 8005eac:	f5b3 7f7a 	cmp.w	r3, #1000	@ 0x3e8
 8005eb0:	d82e      	bhi.n	8005f10 <USB_HC_Halt+0x172>
 8005eb2:	69bb      	ldr	r3, [r7, #24]
 8005eb4:	015a      	lsls	r2, r3, #5
 8005eb6:	69fb      	ldr	r3, [r7, #28]
 8005eb8:	4413      	add	r3, r2
 8005eba:	f503 63a0 	add.w	r3, r3, #1280	@ 0x500
 8005ebe:	681b      	ldr	r3, [r3, #0]
 8005ec0:	f003 4300 	and.w	r3, r3, #2147483648	@ 0x80000000
 8005ec4:	f1b3 4f00 	cmp.w	r3, #2147483648	@ 0x80000000
 8005ec8:	d0ec      	beq.n	8005ea4 <USB_HC_Halt+0x106>
 8005eca:	e081      	b.n	8005fd0 <USB_HC_Halt+0x232>
 8005ecc:	69bb      	ldr	r3, [r7, #24]
 8005ece:	015a      	lsls	r2, r3, #5
 8005ed0:	69fb      	ldr	r3, [r7, #28]
 8005ed2:	4413      	add	r3, r2
 8005ed4:	f503 63a0 	add.w	r3, r3, #1280	@ 0x500
 8005ed8:	681b      	ldr	r3, [r3, #0]
 8005eda:	69ba      	ldr	r2, [r7, #24]
 8005edc:	0151      	lsls	r1, r2, #5
 8005ede:	69fa      	ldr	r2, [r7, #28]
 8005ee0:	440a      	add	r2, r1
 8005ee2:	f502 62a0 	add.w	r2, r2, #1280	@ 0x500
 8005ee6:	f043 4300 	orr.w	r3, r3, #2147483648	@ 0x80000000
 8005eea:	6013      	str	r3, [r2, #0]
 8005eec:	e070      	b.n	8005fd0 <USB_HC_Halt+0x232>
 8005eee:	69bb      	ldr	r3, [r7, #24]
 8005ef0:	015a      	lsls	r2, r3, #5
 8005ef2:	69fb      	ldr	r3, [r7, #28]
 8005ef4:	4413      	add	r3, r2
 8005ef6:	f503 63a0 	add.w	r3, r3, #1280	@ 0x500
 8005efa:	681b      	ldr	r3, [r3, #0]
 8005efc:	69ba      	ldr	r2, [r7, #24]
 8005efe:	0151      	lsls	r1, r2, #5
 8005f00:	69fa      	ldr	r2, [r7, #28]
 8005f02:	440a      	add	r2, r1
 8005f04:	f502 62a0 	add.w	r2, r2, #1280	@ 0x500
 8005f08:	f043 4300 	orr.w	r3, r3, #2147483648	@ 0x80000000
 8005f0c:	6013      	str	r3, [r2, #0]
 8005f0e:	e05f      	b.n	8005fd0 <USB_HC_Halt+0x232>
 8005f10:	bf00      	nop
 8005f12:	e05d      	b.n	8005fd0 <USB_HC_Halt+0x232>
 8005f14:	69bb      	ldr	r3, [r7, #24]
 8005f16:	015a      	lsls	r2, r3, #5
 8005f18:	69fb      	ldr	r3, [r7, #28]
 8005f1a:	4413      	add	r3, r2
 8005f1c:	f503 63a0 	add.w	r3, r3, #1280	@ 0x500
 8005f20:	681b      	ldr	r3, [r3, #0]
 8005f22:	69ba      	ldr	r2, [r7, #24]
 8005f24:	0151      	lsls	r1, r2, #5
 8005f26:	69fa      	ldr	r2, [r7, #28]
 8005f28:	440a      	add	r2, r1
 8005f2a:	f502 62a0 	add.w	r2, r2, #1280	@ 0x500
 8005f2e:	f043 4380 	orr.w	r3, r3, #1073741824	@ 0x40000000
 8005f32:	6013      	str	r3, [r2, #0]
 8005f34:	69fb      	ldr	r3, [r7, #28]
 8005f36:	f503 6380 	add.w	r3, r3, #1024	@ 0x400
 8005f3a:	691b      	ldr	r3, [r3, #16]
 8005f3c:	f403 037f 	and.w	r3, r3, #16711680	@ 0xff0000
 8005f40:	2b00      	cmp	r3, #0
 8005f42:	d133      	bne.n	8005fac <USB_HC_Halt+0x20e>
 8005f44:	69bb      	ldr	r3, [r7, #24]
 8005f46:	015a      	lsls	r2, r3, #5
 8005f48:	69fb      	ldr	r3, [r7, #28]
 8005f4a:	4413      	add	r3, r2
 8005f4c:	f503 63a0 	add.w	r3, r3, #1280	@ 0x500
 8005f50:	681b      	ldr	r3, [r3, #0]
 8005f52:	69ba      	ldr	r2, [r7, #24]
 8005f54:	0151      	lsls	r1, r2, #5
 8005f56:	69fa      	ldr	r2, [r7, #28]
 8005f58:	440a      	add	r2, r1
 8005f5a:	f502 62a0 	add.w	r2, r2, #1280	@ 0x500
 8005f5e:	f023 4300 	bic.w	r3, r3, #2147483648	@ 0x80000000
 8005f62:	6013      	str	r3, [r2, #0]
 8005f64:	69bb      	ldr	r3, [r7, #24]
 8005f66:	015a      	lsls	r2, r3, #5
 8005f68:	69fb      	ldr	r3, [r7, #28]
 8005f6a:	4413      	add	r3, r2
 8005f6c:	f503 63a0 	add.w	r3, r3, #1280	@ 0x500
 8005f70:	681b      	ldr	r3, [r3, #0]
 8005f72:	69ba      	ldr	r2, [r7, #24]
 8005f74:	0151      	lsls	r1, r2, #5
 8005f76:	69fa      	ldr	r2, [r7, #28]
 8005f78:	440a      	add	r2, r1
 8005f7a:	f502 62a0 	add.w	r2, r2, #1280	@ 0x500
 8005f7e:	f043 4300 	orr.w	r3, r3, #2147483648	@ 0x80000000
 8005f82:	6013      	str	r3, [r2, #0]
 8005f84:	68bb      	ldr	r3, [r7, #8]
 8005f86:	3301      	adds	r3, #1
 8005f88:	60bb      	str	r3, [r7, #8]
 8005f8a:	68bb      	ldr	r3, [r7, #8]
 8005f8c:	f5b3 7f7a 	cmp.w	r3, #1000	@ 0x3e8
 8005f90:	d81d      	bhi.n	8005fce <USB_HC_Halt+0x230>
 8005f92:	69bb      	ldr	r3, [r7, #24]
 8005f94:	015a      	lsls	r2, r3, #5
 8005f96:	69fb      	ldr	r3, [r7, #28]
 8005f98:	4413      	add	r3, r2
 8005f9a:	f503 63a0 	add.w	r3, r3, #1280	@ 0x500
 8005f9e:	681b      	ldr	r3, [r3, #0]
 8005fa0:	f003 4300 	and.w	r3, r3, #2147483648	@ 0x80000000
 8005fa4:	f1b3 4f00 	cmp.w	r3, #2147483648	@ 0x80000000
 8005fa8:	d0ec      	beq.n	8005f84 <USB_HC_Halt+0x1e6>
 8005faa:	e011      	b.n	8005fd0 <USB_HC_Halt+0x232>
 8005fac:	69bb      	ldr	r3, [r7, #24]
 8005fae:	015a      	lsls	r2, r3, #5
 8005fb0:	69fb      	ldr	r3, [r7, #28]
 8005fb2:	4413      	add	r3, r2
 8005fb4:	f503 63a0 	add.w	r3, r3, #1280	@ 0x500
 8005fb8:	681b      	ldr	r3, [r3, #0]
 8005fba:	69ba      	ldr	r2, [r7, #24]
 8005fbc:	0151      	lsls	r1, r2, #5
 8005fbe:	69fa      	ldr	r2, [r7, #28]
 8005fc0:	440a      	add	r2, r1
 8005fc2:	f502 62a0 	add.w	r2, r2, #1280	@ 0x500
 8005fc6:	f043 4300 	orr.w	r3, r3, #2147483648	@ 0x80000000
 8005fca:	6013      	str	r3, [r2, #0]
 8005fcc:	e000      	b.n	8005fd0 <USB_HC_Halt+0x232>
 8005fce:	bf00      	nop
 8005fd0:	2300      	movs	r3, #0
 8005fd2:	4618      	mov	r0, r3
 8005fd4:	3724      	adds	r7, #36	@ 0x24
 8005fd6:	46bd      	mov	sp, r7
 8005fd8:	f85d 7b04 	ldr.w	r7, [sp], #4
 8005fdc:	4770      	bx	lr
	...

08005fe0 <USB_DoPing>:
 8005fe0:	b480      	push	{r7}
 8005fe2:	b087      	sub	sp, #28
 8005fe4:	af00      	add	r7, sp, #0
 8005fe6:	6078      	str	r0, [r7, #4]
 8005fe8:	460b      	mov	r3, r1
 8005fea:	70fb      	strb	r3, [r7, #3]
 8005fec:	687b      	ldr	r3, [r7, #4]
 8005fee:	617b      	str	r3, [r7, #20]
 8005ff0:	78fb      	ldrb	r3, [r7, #3]
 8005ff2:	613b      	str	r3, [r7, #16]
 8005ff4:	2301      	movs	r3, #1
 8005ff6:	60fb      	str	r3, [r7, #12]
 8005ff8:	68fb      	ldr	r3, [r7, #12]
 8005ffa:	04da      	lsls	r2, r3, #19
 8005ffc:	4b15      	ldr	r3, [pc, #84]	@ (8006054 <USB_DoPing+0x74>)
 8005ffe:	4013      	ands	r3, r2
 8006000:	693a      	ldr	r2, [r7, #16]
 8006002:	0151      	lsls	r1, r2, #5
 8006004:	697a      	ldr	r2, [r7, #20]
 8006006:	440a      	add	r2, r1
 8006008:	f502 62a0 	add.w	r2, r2, #1280	@ 0x500
 800600c:	f043 4300 	orr.w	r3, r3, #2147483648	@ 0x80000000
 8006010:	6113      	str	r3, [r2, #16]
 8006012:	693b      	ldr	r3, [r7, #16]
 8006014:	015a      	lsls	r2, r3, #5
 8006016:	697b      	ldr	r3, [r7, #20]
 8006018:	4413      	add	r3, r2
 800601a:	f503 63a0 	add.w	r3, r3, #1280	@ 0x500
 800601e:	681b      	ldr	r3, [r3, #0]
 8006020:	60bb      	str	r3, [r7, #8]
 8006022:	68bb      	ldr	r3, [r7, #8]
 8006024:	f023 4380 	bic.w	r3, r3, #1073741824	@ 0x40000000
 8006028:	60bb      	str	r3, [r7, #8]
 800602a:	68bb      	ldr	r3, [r7, #8]
 800602c:	f043 4300 	orr.w	r3, r3, #2147483648	@ 0x80000000
 8006030:	60bb      	str	r3, [r7, #8]
 8006032:	693b      	ldr	r3, [r7, #16]
 8006034:	015a      	lsls	r2, r3, #5
 8006036:	697b      	ldr	r3, [r7, #20]
 8006038:	4413      	add	r3, r2
 800603a:	f503 63a0 	add.w	r3, r3, #1280	@ 0x500
 800603e:	461a      	mov	r2, r3
 8006040:	68bb      	ldr	r3, [r7, #8]
 8006042:	6013      	str	r3, [r2, #0]
 8006044:	2300      	movs	r3, #0
 8006046:	4618      	mov	r0, r3
 8006048:	371c      	adds	r7, #28
 800604a:	46bd      	mov	sp, r7
 800604c:	f85d 7b04 	ldr.w	r7, [sp], #4
 8006050:	4770      	bx	lr
 8006052:	bf00      	nop
 8006054:	1ff80000 	.word	0x1ff80000

08006058 <USB_StopHost>:
 8006058:	b580      	push	{r7, lr}
 800605a:	b088      	sub	sp, #32
 800605c:	af00      	add	r7, sp, #0
 800605e:	6078      	str	r0, [r7, #4]
 8006060:	2300      	movs	r3, #0
 8006062:	77fb      	strb	r3, [r7, #31]
 8006064:	687b      	ldr	r3, [r7, #4]
 8006066:	617b      	str	r3, [r7, #20]
 8006068:	2300      	movs	r3, #0
 800606a:	60fb      	str	r3, [r7, #12]
 800606c:	6878      	ldr	r0, [r7, #4]
 800606e:	f7fe ff8d 	bl	8004f8c <USB_DisableGlobalInt>
 8006072:	2110      	movs	r1, #16
 8006074:	6878      	ldr	r0, [r7, #4]
 8006076:	f7fe ffe6 	bl	8005046 <USB_FlushTxFifo>
 800607a:	4603      	mov	r3, r0
 800607c:	2b00      	cmp	r3, #0
 800607e:	d001      	beq.n	8006084 <USB_StopHost+0x2c>
 8006080:	2301      	movs	r3, #1
 8006082:	77fb      	strb	r3, [r7, #31]
 8006084:	6878      	ldr	r0, [r7, #4]
 8006086:	f7ff f810 	bl	80050aa <USB_FlushRxFifo>
 800608a:	4603      	mov	r3, r0
 800608c:	2b00      	cmp	r3, #0
 800608e:	d001      	beq.n	8006094 <USB_StopHost+0x3c>
 8006090:	2301      	movs	r3, #1
 8006092:	77fb      	strb	r3, [r7, #31]
 8006094:	2300      	movs	r3, #0
 8006096:	61bb      	str	r3, [r7, #24]
 8006098:	e01f      	b.n	80060da <USB_StopHost+0x82>
 800609a:	69bb      	ldr	r3, [r7, #24]
 800609c:	015a      	lsls	r2, r3, #5
 800609e:	697b      	ldr	r3, [r7, #20]
 80060a0:	4413      	add	r3, r2
 80060a2:	f503 63a0 	add.w	r3, r3, #1280	@ 0x500
 80060a6:	681b      	ldr	r3, [r3, #0]
 80060a8:	613b      	str	r3, [r7, #16]
 80060aa:	693b      	ldr	r3, [r7, #16]
 80060ac:	f043 4380 	orr.w	r3, r3, #1073741824	@ 0x40000000
 80060b0:	613b      	str	r3, [r7, #16]
 80060b2:	693b      	ldr	r3, [r7, #16]
 80060b4:	f023 4300 	bic.w	r3, r3, #2147483648	@ 0x80000000
 80060b8:	613b      	str	r3, [r7, #16]
 80060ba:	693b      	ldr	r3, [r7, #16]
 80060bc:	f423 4300 	bic.w	r3, r3, #32768	@ 0x8000
 80060c0:	613b      	str	r3, [r7, #16]
 80060c2:	69bb      	ldr	r3, [r7, #24]
 80060c4:	015a      	lsls	r2, r3, #5
 80060c6:	697b      	ldr	r3, [r7, #20]
 80060c8:	4413      	add	r3, r2
 80060ca:	f503 63a0 	add.w	r3, r3, #1280	@ 0x500
 80060ce:	461a      	mov	r2, r3
 80060d0:	693b      	ldr	r3, [r7, #16]
 80060d2:	6013      	str	r3, [r2, #0]
 80060d4:	69bb      	ldr	r3, [r7, #24]
 80060d6:	3301      	adds	r3, #1
 80060d8:	61bb      	str	r3, [r7, #24]
 80060da:	69bb      	ldr	r3, [r7, #24]
 80060dc:	2b0f      	cmp	r3, #15
 80060de:	d9dc      	bls.n	800609a <USB_StopHost+0x42>
 80060e0:	2300      	movs	r3, #0
 80060e2:	61bb      	str	r3, [r7, #24]
 80060e4:	e034      	b.n	8006150 <USB_StopHost+0xf8>
 80060e6:	69bb      	ldr	r3, [r7, #24]
 80060e8:	015a      	lsls	r2, r3, #5
 80060ea:	697b      	ldr	r3, [r7, #20]
 80060ec:	4413      	add	r3, r2
 80060ee:	f503 63a0 	add.w	r3, r3, #1280	@ 0x500
 80060f2:	681b      	ldr	r3, [r3, #0]
 80060f4:	613b      	str	r3, [r7, #16]
 80060f6:	693b      	ldr	r3, [r7, #16]
 80060f8:	f043 4380 	orr.w	r3, r3, #1073741824	@ 0x40000000
 80060fc:	613b      	str	r3, [r7, #16]
 80060fe:	693b      	ldr	r3, [r7, #16]
 8006100:	f043 4300 	orr.w	r3, r3, #2147483648	@ 0x80000000
 8006104:	613b      	str	r3, [r7, #16]
 8006106:	693b      	ldr	r3, [r7, #16]
 8006108:	f423 4300 	bic.w	r3, r3, #32768	@ 0x8000
 800610c:	613b      	str	r3, [r7, #16]
 800610e:	69bb      	ldr	r3, [r7, #24]
 8006110:	015a      	lsls	r2, r3, #5
 8006112:	697b      	ldr	r3, [r7, #20]
 8006114:	4413      	add	r3, r2
 8006116:	f503 63a0 	add.w	r3, r3, #1280	@ 0x500
 800611a:	461a      	mov	r2, r3
 800611c:	693b      	ldr	r3, [r7, #16]
 800611e:	6013      	str	r3, [r2, #0]
 8006120:	68fb      	ldr	r3, [r7, #12]
 8006122:	3301      	adds	r3, #1
 8006124:	60fb      	str	r3, [r7, #12]
 8006126:	68fb      	ldr	r3, [r7, #12]
 8006128:	f5b3 7f7a 	cmp.w	r3, #1000	@ 0x3e8
 800612c:	d80c      	bhi.n	8006148 <USB_StopHost+0xf0>
 800612e:	69bb      	ldr	r3, [r7, #24]
 8006130:	015a      	lsls	r2, r3, #5
 8006132:	697b      	ldr	r3, [r7, #20]
 8006134:	4413      	add	r3, r2
 8006136:	f503 63a0 	add.w	r3, r3, #1280	@ 0x500
 800613a:	681b      	ldr	r3, [r3, #0]
 800613c:	f003 4300 	and.w	r3, r3, #2147483648	@ 0x80000000
 8006140:	f1b3 4f00 	cmp.w	r3, #2147483648	@ 0x80000000
 8006144:	d0ec      	beq.n	8006120 <USB_StopHost+0xc8>
 8006146:	e000      	b.n	800614a <USB_StopHost+0xf2>
 8006148:	bf00      	nop
 800614a:	69bb      	ldr	r3, [r7, #24]
 800614c:	3301      	adds	r3, #1
 800614e:	61bb      	str	r3, [r7, #24]
 8006150:	69bb      	ldr	r3, [r7, #24]
 8006152:	2b0f      	cmp	r3, #15
 8006154:	d9c7      	bls.n	80060e6 <USB_StopHost+0x8e>
 8006156:	697b      	ldr	r3, [r7, #20]
 8006158:	f503 6380 	add.w	r3, r3, #1024	@ 0x400
 800615c:	461a      	mov	r2, r3
 800615e:	f04f 33ff 	mov.w	r3, #4294967295
 8006162:	6153      	str	r3, [r2, #20]
 8006164:	687b      	ldr	r3, [r7, #4]
 8006166:	f04f 32ff 	mov.w	r2, #4294967295
 800616a:	615a      	str	r2, [r3, #20]
 800616c:	6878      	ldr	r0, [r7, #4]
 800616e:	f7fe fefc 	bl	8004f6a <USB_EnableGlobalInt>
 8006172:	7ffb      	ldrb	r3, [r7, #31]
 8006174:	4618      	mov	r0, r3
 8006176:	3720      	adds	r7, #32
 8006178:	46bd      	mov	sp, r7
 800617a:	bd80      	pop	{r7, pc}

0800617c <USBH_CDC_InterfaceInit>:
 800617c:	b590      	push	{r4, r7, lr}
 800617e:	b089      	sub	sp, #36	@ 0x24
 8006180:	af04      	add	r7, sp, #16
 8006182:	6078      	str	r0, [r7, #4]
 8006184:	2301      	movs	r3, #1
 8006186:	2202      	movs	r2, #2
 8006188:	2102      	movs	r1, #2
 800618a:	6878      	ldr	r0, [r7, #4]
 800618c:	f000 fc85 	bl	8006a9a <USBH_FindInterface>
 8006190:	4603      	mov	r3, r0
 8006192:	73fb      	strb	r3, [r7, #15]
 8006194:	7bfb      	ldrb	r3, [r7, #15]
 8006196:	2bff      	cmp	r3, #255	@ 0xff
 8006198:	d002      	beq.n	80061a0 <USBH_CDC_InterfaceInit+0x24>
 800619a:	7bfb      	ldrb	r3, [r7, #15]
 800619c:	2b01      	cmp	r3, #1
 800619e:	d901      	bls.n	80061a4 <USBH_CDC_InterfaceInit+0x28>
 80061a0:	2302      	movs	r3, #2
 80061a2:	e13d      	b.n	8006420 <USBH_CDC_InterfaceInit+0x2a4>
 80061a4:	7bfb      	ldrb	r3, [r7, #15]
 80061a6:	4619      	mov	r1, r3
 80061a8:	6878      	ldr	r0, [r7, #4]
 80061aa:	f000 fc5a 	bl	8006a62 <USBH_SelectInterface>
 80061ae:	4603      	mov	r3, r0
 80061b0:	73bb      	strb	r3, [r7, #14]
 80061b2:	7bbb      	ldrb	r3, [r7, #14]
 80061b4:	2b00      	cmp	r3, #0
 80061b6:	d001      	beq.n	80061bc <USBH_CDC_InterfaceInit+0x40>
 80061b8:	2302      	movs	r3, #2
 80061ba:	e131      	b.n	8006420 <USBH_CDC_InterfaceInit+0x2a4>
 80061bc:	687b      	ldr	r3, [r7, #4]
 80061be:	f8d3 437c 	ldr.w	r4, [r3, #892]	@ 0x37c
 80061c2:	2050      	movs	r0, #80	@ 0x50
 80061c4:	f002 fb64 	bl	8008890 <malloc>
 80061c8:	4603      	mov	r3, r0
 80061ca:	61e3      	str	r3, [r4, #28]
 80061cc:	687b      	ldr	r3, [r7, #4]
 80061ce:	f8d3 337c 	ldr.w	r3, [r3, #892]	@ 0x37c
 80061d2:	69db      	ldr	r3, [r3, #28]
 80061d4:	60bb      	str	r3, [r7, #8]
 80061d6:	68bb      	ldr	r3, [r7, #8]
 80061d8:	2b00      	cmp	r3, #0
 80061da:	d101      	bne.n	80061e0 <USBH_CDC_InterfaceInit+0x64>
 80061dc:	2302      	movs	r3, #2
 80061de:	e11f      	b.n	8006420 <USBH_CDC_InterfaceInit+0x2a4>
 80061e0:	2250      	movs	r2, #80	@ 0x50
 80061e2:	2100      	movs	r1, #0
 80061e4:	68b8      	ldr	r0, [r7, #8]
 80061e6:	f002 fc11 	bl	8008a0c <memset>
 80061ea:	7bfb      	ldrb	r3, [r7, #15]
 80061ec:	687a      	ldr	r2, [r7, #4]
 80061ee:	211a      	movs	r1, #26
 80061f0:	fb01 f303 	mul.w	r3, r1, r3
 80061f4:	4413      	add	r3, r2
 80061f6:	f203 334e 	addw	r3, r3, #846	@ 0x34e
 80061fa:	781b      	ldrb	r3, [r3, #0]
 80061fc:	b25b      	sxtb	r3, r3
 80061fe:	2b00      	cmp	r3, #0
 8006200:	da15      	bge.n	800622e <USBH_CDC_InterfaceInit+0xb2>
 8006202:	7bfb      	ldrb	r3, [r7, #15]
 8006204:	687a      	ldr	r2, [r7, #4]
 8006206:	211a      	movs	r1, #26
 8006208:	fb01 f303 	mul.w	r3, r1, r3
 800620c:	4413      	add	r3, r2
 800620e:	f203 334e 	addw	r3, r3, #846	@ 0x34e
 8006212:	781a      	ldrb	r2, [r3, #0]
 8006214:	68bb      	ldr	r3, [r7, #8]
 8006216:	705a      	strb	r2, [r3, #1]
 8006218:	7bfb      	ldrb	r3, [r7, #15]
 800621a:	687a      	ldr	r2, [r7, #4]
 800621c:	211a      	movs	r1, #26
 800621e:	fb01 f303 	mul.w	r3, r1, r3
 8006222:	4413      	add	r3, r2
 8006224:	f503 7354 	add.w	r3, r3, #848	@ 0x350
 8006228:	881a      	ldrh	r2, [r3, #0]
 800622a:	68bb      	ldr	r3, [r7, #8]
 800622c:	815a      	strh	r2, [r3, #10]
 800622e:	68bb      	ldr	r3, [r7, #8]
 8006230:	785b      	ldrb	r3, [r3, #1]
 8006232:	4619      	mov	r1, r3
 8006234:	6878      	ldr	r0, [r7, #4]
 8006236:	f001 ffbe 	bl	80081b6 <USBH_AllocPipe>
 800623a:	4603      	mov	r3, r0
 800623c:	461a      	mov	r2, r3
 800623e:	68bb      	ldr	r3, [r7, #8]
 8006240:	701a      	strb	r2, [r3, #0]
 8006242:	68bb      	ldr	r3, [r7, #8]
 8006244:	7819      	ldrb	r1, [r3, #0]
 8006246:	68bb      	ldr	r3, [r7, #8]
 8006248:	7858      	ldrb	r0, [r3, #1]
 800624a:	687b      	ldr	r3, [r7, #4]
 800624c:	f893 431c 	ldrb.w	r4, [r3, #796]	@ 0x31c
 8006250:	687b      	ldr	r3, [r7, #4]
 8006252:	f893 331d 	ldrb.w	r3, [r3, #797]	@ 0x31d
 8006256:	68ba      	ldr	r2, [r7, #8]
 8006258:	8952      	ldrh	r2, [r2, #10]
 800625a:	9202      	str	r2, [sp, #8]
 800625c:	2203      	movs	r2, #3
 800625e:	9201      	str	r2, [sp, #4]
 8006260:	9300      	str	r3, [sp, #0]
 8006262:	4623      	mov	r3, r4
 8006264:	4602      	mov	r2, r0
 8006266:	6878      	ldr	r0, [r7, #4]
 8006268:	f001 ff76 	bl	8008158 <USBH_OpenPipe>
 800626c:	68bb      	ldr	r3, [r7, #8]
 800626e:	781b      	ldrb	r3, [r3, #0]
 8006270:	2200      	movs	r2, #0
 8006272:	4619      	mov	r1, r3
 8006274:	6878      	ldr	r0, [r7, #4]
 8006276:	f002 fa85 	bl	8008784 <USBH_LL_SetToggle>
 800627a:	2300      	movs	r3, #0
 800627c:	2200      	movs	r2, #0
 800627e:	210a      	movs	r1, #10
 8006280:	6878      	ldr	r0, [r7, #4]
 8006282:	f000 fc0a 	bl	8006a9a <USBH_FindInterface>
 8006286:	4603      	mov	r3, r0
 8006288:	73fb      	strb	r3, [r7, #15]
 800628a:	7bfb      	ldrb	r3, [r7, #15]
 800628c:	2bff      	cmp	r3, #255	@ 0xff
 800628e:	d002      	beq.n	8006296 <USBH_CDC_InterfaceInit+0x11a>
 8006290:	7bfb      	ldrb	r3, [r7, #15]
 8006292:	2b01      	cmp	r3, #1
 8006294:	d901      	bls.n	800629a <USBH_CDC_InterfaceInit+0x11e>
 8006296:	2302      	movs	r3, #2
 8006298:	e0c2      	b.n	8006420 <USBH_CDC_InterfaceInit+0x2a4>
 800629a:	7bfb      	ldrb	r3, [r7, #15]
 800629c:	687a      	ldr	r2, [r7, #4]
 800629e:	211a      	movs	r1, #26
 80062a0:	fb01 f303 	mul.w	r3, r1, r3
 80062a4:	4413      	add	r3, r2
 80062a6:	f203 334e 	addw	r3, r3, #846	@ 0x34e
 80062aa:	781b      	ldrb	r3, [r3, #0]
 80062ac:	b25b      	sxtb	r3, r3
 80062ae:	2b00      	cmp	r3, #0
 80062b0:	da16      	bge.n	80062e0 <USBH_CDC_InterfaceInit+0x164>
 80062b2:	7bfb      	ldrb	r3, [r7, #15]
 80062b4:	687a      	ldr	r2, [r7, #4]
 80062b6:	211a      	movs	r1, #26
 80062b8:	fb01 f303 	mul.w	r3, r1, r3
 80062bc:	4413      	add	r3, r2
 80062be:	f203 334e 	addw	r3, r3, #846	@ 0x34e
 80062c2:	781a      	ldrb	r2, [r3, #0]
 80062c4:	68bb      	ldr	r3, [r7, #8]
 80062c6:	73da      	strb	r2, [r3, #15]
 80062c8:	7bfb      	ldrb	r3, [r7, #15]
 80062ca:	687a      	ldr	r2, [r7, #4]
 80062cc:	211a      	movs	r1, #26
 80062ce:	fb01 f303 	mul.w	r3, r1, r3
 80062d2:	4413      	add	r3, r2
 80062d4:	f503 7354 	add.w	r3, r3, #848	@ 0x350
 80062d8:	881a      	ldrh	r2, [r3, #0]
 80062da:	68bb      	ldr	r3, [r7, #8]
 80062dc:	835a      	strh	r2, [r3, #26]
 80062de:	e015      	b.n	800630c <USBH_CDC_InterfaceInit+0x190>
 80062e0:	7bfb      	ldrb	r3, [r7, #15]
 80062e2:	687a      	ldr	r2, [r7, #4]
 80062e4:	211a      	movs	r1, #26
 80062e6:	fb01 f303 	mul.w	r3, r1, r3
 80062ea:	4413      	add	r3, r2
 80062ec:	f203 334e 	addw	r3, r3, #846	@ 0x34e
 80062f0:	781a      	ldrb	r2, [r3, #0]
 80062f2:	68bb      	ldr	r3, [r7, #8]
 80062f4:	739a      	strb	r2, [r3, #14]
 80062f6:	7bfb      	ldrb	r3, [r7, #15]
 80062f8:	687a      	ldr	r2, [r7, #4]
 80062fa:	211a      	movs	r1, #26
 80062fc:	fb01 f303 	mul.w	r3, r1, r3
 8006300:	4413      	add	r3, r2
 8006302:	f503 7354 	add.w	r3, r3, #848	@ 0x350
 8006306:	881a      	ldrh	r2, [r3, #0]
 8006308:	68bb      	ldr	r3, [r7, #8]
 800630a:	831a      	strh	r2, [r3, #24]
 800630c:	7bfb      	ldrb	r3, [r7, #15]
 800630e:	687a      	ldr	r2, [r7, #4]
 8006310:	211a      	movs	r1, #26
 8006312:	fb01 f303 	mul.w	r3, r1, r3
 8006316:	4413      	add	r3, r2
 8006318:	f203 3356 	addw	r3, r3, #854	@ 0x356
 800631c:	781b      	ldrb	r3, [r3, #0]
 800631e:	b25b      	sxtb	r3, r3
 8006320:	2b00      	cmp	r3, #0
 8006322:	da16      	bge.n	8006352 <USBH_CDC_InterfaceInit+0x1d6>
 8006324:	7bfb      	ldrb	r3, [r7, #15]
 8006326:	687a      	ldr	r2, [r7, #4]
 8006328:	211a      	movs	r1, #26
 800632a:	fb01 f303 	mul.w	r3, r1, r3
 800632e:	4413      	add	r3, r2
 8006330:	f203 3356 	addw	r3, r3, #854	@ 0x356
 8006334:	781a      	ldrb	r2, [r3, #0]
 8006336:	68bb      	ldr	r3, [r7, #8]
 8006338:	73da      	strb	r2, [r3, #15]
 800633a:	7bfb      	ldrb	r3, [r7, #15]
 800633c:	687a      	ldr	r2, [r7, #4]
 800633e:	211a      	movs	r1, #26
 8006340:	fb01 f303 	mul.w	r3, r1, r3
 8006344:	4413      	add	r3, r2
 8006346:	f503 7356 	add.w	r3, r3, #856	@ 0x358
 800634a:	881a      	ldrh	r2, [r3, #0]
 800634c:	68bb      	ldr	r3, [r7, #8]
 800634e:	835a      	strh	r2, [r3, #26]
 8006350:	e015      	b.n	800637e <USBH_CDC_InterfaceInit+0x202>
 8006352:	7bfb      	ldrb	r3, [r7, #15]
 8006354:	687a      	ldr	r2, [r7, #4]
 8006356:	211a      	movs	r1, #26
 8006358:	fb01 f303 	mul.w	r3, r1, r3
 800635c:	4413      	add	r3, r2
 800635e:	f203 3356 	addw	r3, r3, #854	@ 0x356
 8006362:	781a      	ldrb	r2, [r3, #0]
 8006364:	68bb      	ldr	r3, [r7, #8]
 8006366:	739a      	strb	r2, [r3, #14]
 8006368:	7bfb      	ldrb	r3, [r7, #15]
 800636a:	687a      	ldr	r2, [r7, #4]
 800636c:	211a      	movs	r1, #26
 800636e:	fb01 f303 	mul.w	r3, r1, r3
 8006372:	4413      	add	r3, r2
 8006374:	f503 7356 	add.w	r3, r3, #856	@ 0x358
 8006378:	881a      	ldrh	r2, [r3, #0]
 800637a:	68bb      	ldr	r3, [r7, #8]
 800637c:	831a      	strh	r2, [r3, #24]
 800637e:	68bb      	ldr	r3, [r7, #8]
 8006380:	7b9b      	ldrb	r3, [r3, #14]
 8006382:	4619      	mov	r1, r3
 8006384:	6878      	ldr	r0, [r7, #4]
 8006386:	f001 ff16 	bl	80081b6 <USBH_AllocPipe>
 800638a:	4603      	mov	r3, r0
 800638c:	461a      	mov	r2, r3
 800638e:	68bb      	ldr	r3, [r7, #8]
 8006390:	735a      	strb	r2, [r3, #13]
 8006392:	68bb      	ldr	r3, [r7, #8]
 8006394:	7bdb      	ldrb	r3, [r3, #15]
 8006396:	4619      	mov	r1, r3
 8006398:	6878      	ldr	r0, [r7, #4]
 800639a:	f001 ff0c 	bl	80081b6 <USBH_AllocPipe>
 800639e:	4603      	mov	r3, r0
 80063a0:	461a      	mov	r2, r3
 80063a2:	68bb      	ldr	r3, [r7, #8]
 80063a4:	731a      	strb	r2, [r3, #12]
 80063a6:	68bb      	ldr	r3, [r7, #8]
 80063a8:	7b59      	ldrb	r1, [r3, #13]
 80063aa:	68bb      	ldr	r3, [r7, #8]
 80063ac:	7b98      	ldrb	r0, [r3, #14]
 80063ae:	687b      	ldr	r3, [r7, #4]
 80063b0:	f893 431c 	ldrb.w	r4, [r3, #796]	@ 0x31c
 80063b4:	687b      	ldr	r3, [r7, #4]
 80063b6:	f893 331d 	ldrb.w	r3, [r3, #797]	@ 0x31d
 80063ba:	68ba      	ldr	r2, [r7, #8]
 80063bc:	8b12      	ldrh	r2, [r2, #24]
 80063be:	9202      	str	r2, [sp, #8]
 80063c0:	2202      	movs	r2, #2
 80063c2:	9201      	str	r2, [sp, #4]
 80063c4:	9300      	str	r3, [sp, #0]
 80063c6:	4623      	mov	r3, r4
 80063c8:	4602      	mov	r2, r0
 80063ca:	6878      	ldr	r0, [r7, #4]
 80063cc:	f001 fec4 	bl	8008158 <USBH_OpenPipe>
 80063d0:	68bb      	ldr	r3, [r7, #8]
 80063d2:	7b19      	ldrb	r1, [r3, #12]
 80063d4:	68bb      	ldr	r3, [r7, #8]
 80063d6:	7bd8      	ldrb	r0, [r3, #15]
 80063d8:	687b      	ldr	r3, [r7, #4]
 80063da:	f893 431c 	ldrb.w	r4, [r3, #796]	@ 0x31c
 80063de:	687b      	ldr	r3, [r7, #4]
 80063e0:	f893 331d 	ldrb.w	r3, [r3, #797]	@ 0x31d
 80063e4:	68ba      	ldr	r2, [r7, #8]
 80063e6:	8b52      	ldrh	r2, [r2, #26]
 80063e8:	9202      	str	r2, [sp, #8]
 80063ea:	2202      	movs	r2, #2
 80063ec:	9201      	str	r2, [sp, #4]
 80063ee:	9300      	str	r3, [sp, #0]
 80063f0:	4623      	mov	r3, r4
 80063f2:	4602      	mov	r2, r0
 80063f4:	6878      	ldr	r0, [r7, #4]
 80063f6:	f001 feaf 	bl	8008158 <USBH_OpenPipe>
 80063fa:	68bb      	ldr	r3, [r7, #8]
 80063fc:	2200      	movs	r2, #0
 80063fe:	f883 204c 	strb.w	r2, [r3, #76]	@ 0x4c
 8006402:	68bb      	ldr	r3, [r7, #8]
 8006404:	7b5b      	ldrb	r3, [r3, #13]
 8006406:	2200      	movs	r2, #0
 8006408:	4619      	mov	r1, r3
 800640a:	6878      	ldr	r0, [r7, #4]
 800640c:	f002 f9ba 	bl	8008784 <USBH_LL_SetToggle>
 8006410:	68bb      	ldr	r3, [r7, #8]
 8006412:	7b1b      	ldrb	r3, [r3, #12]
 8006414:	2200      	movs	r2, #0
 8006416:	4619      	mov	r1, r3
 8006418:	6878      	ldr	r0, [r7, #4]
 800641a:	f002 f9b3 	bl	8008784 <USBH_LL_SetToggle>
 800641e:	2300      	movs	r3, #0
 8006420:	4618      	mov	r0, r3
 8006422:	3714      	adds	r7, #20
 8006424:	46bd      	mov	sp, r7
 8006426:	bd90      	pop	{r4, r7, pc}

08006428 <USBH_CDC_InterfaceDeInit>:
 8006428:	b580      	push	{r7, lr}
 800642a:	b084      	sub	sp, #16
 800642c:	af00      	add	r7, sp, #0
 800642e:	6078      	str	r0, [r7, #4]
 8006430:	687b      	ldr	r3, [r7, #4]
 8006432:	f8d3 337c 	ldr.w	r3, [r3, #892]	@ 0x37c
 8006436:	69db      	ldr	r3, [r3, #28]
 8006438:	60fb      	str	r3, [r7, #12]
 800643a:	68fb      	ldr	r3, [r7, #12]
 800643c:	781b      	ldrb	r3, [r3, #0]
 800643e:	2b00      	cmp	r3, #0
 8006440:	d00e      	beq.n	8006460 <USBH_CDC_InterfaceDeInit+0x38>
 8006442:	68fb      	ldr	r3, [r7, #12]
 8006444:	781b      	ldrb	r3, [r3, #0]
 8006446:	4619      	mov	r1, r3
 8006448:	6878      	ldr	r0, [r7, #4]
 800644a:	f001 fea4 	bl	8008196 <USBH_ClosePipe>
 800644e:	68fb      	ldr	r3, [r7, #12]
 8006450:	781b      	ldrb	r3, [r3, #0]
 8006452:	4619      	mov	r1, r3
 8006454:	6878      	ldr	r0, [r7, #4]
 8006456:	f001 fecf 	bl	80081f8 <USBH_FreePipe>
 800645a:	68fb      	ldr	r3, [r7, #12]
 800645c:	2200      	movs	r2, #0
 800645e:	701a      	strb	r2, [r3, #0]
 8006460:	68fb      	ldr	r3, [r7, #12]
 8006462:	7b1b      	ldrb	r3, [r3, #12]
 8006464:	2b00      	cmp	r3, #0
 8006466:	d00e      	beq.n	8006486 <USBH_CDC_InterfaceDeInit+0x5e>
 8006468:	68fb      	ldr	r3, [r7, #12]
 800646a:	7b1b      	ldrb	r3, [r3, #12]
 800646c:	4619      	mov	r1, r3
 800646e:	6878      	ldr	r0, [r7, #4]
 8006470:	f001 fe91 	bl	8008196 <USBH_ClosePipe>
 8006474:	68fb      	ldr	r3, [r7, #12]
 8006476:	7b1b      	ldrb	r3, [r3, #12]
 8006478:	4619      	mov	r1, r3
 800647a:	6878      	ldr	r0, [r7, #4]
 800647c:	f001 febc 	bl	80081f8 <USBH_FreePipe>
 8006480:	68fb      	ldr	r3, [r7, #12]
 8006482:	2200      	movs	r2, #0
 8006484:	731a      	strb	r2, [r3, #12]
 8006486:	68fb      	ldr	r3, [r7, #12]
 8006488:	7b5b      	ldrb	r3, [r3, #13]
 800648a:	2b00      	cmp	r3, #0
 800648c:	d00e      	beq.n	80064ac <USBH_CDC_InterfaceDeInit+0x84>
 800648e:	68fb      	ldr	r3, [r7, #12]
 8006490:	7b5b      	ldrb	r3, [r3, #13]
 8006492:	4619      	mov	r1, r3
 8006494:	6878      	ldr	r0, [r7, #4]
 8006496:	f001 fe7e 	bl	8008196 <USBH_ClosePipe>
 800649a:	68fb      	ldr	r3, [r7, #12]
 800649c:	7b5b      	ldrb	r3, [r3, #13]
 800649e:	4619      	mov	r1, r3
 80064a0:	6878      	ldr	r0, [r7, #4]
 80064a2:	f001 fea9 	bl	80081f8 <USBH_FreePipe>
 80064a6:	68fb      	ldr	r3, [r7, #12]
 80064a8:	2200      	movs	r2, #0
 80064aa:	735a      	strb	r2, [r3, #13]
 80064ac:	687b      	ldr	r3, [r7, #4]
 80064ae:	f8d3 337c 	ldr.w	r3, [r3, #892]	@ 0x37c
 80064b2:	69db      	ldr	r3, [r3, #28]
 80064b4:	2b00      	cmp	r3, #0
 80064b6:	d00b      	beq.n	80064d0 <USBH_CDC_InterfaceDeInit+0xa8>
 80064b8:	687b      	ldr	r3, [r7, #4]
 80064ba:	f8d3 337c 	ldr.w	r3, [r3, #892]	@ 0x37c
 80064be:	69db      	ldr	r3, [r3, #28]
 80064c0:	4618      	mov	r0, r3
 80064c2:	f002 f9ed 	bl	80088a0 <free>
 80064c6:	687b      	ldr	r3, [r7, #4]
 80064c8:	f8d3 337c 	ldr.w	r3, [r3, #892]	@ 0x37c
 80064cc:	2200      	movs	r2, #0
 80064ce:	61da      	str	r2, [r3, #28]
 80064d0:	2300      	movs	r3, #0
 80064d2:	4618      	mov	r0, r3
 80064d4:	3710      	adds	r7, #16
 80064d6:	46bd      	mov	sp, r7
 80064d8:	bd80      	pop	{r7, pc}

080064da <USBH_CDC_ClassRequest>:
 80064da:	b580      	push	{r7, lr}
 80064dc:	b084      	sub	sp, #16
 80064de:	af00      	add	r7, sp, #0
 80064e0:	6078      	str	r0, [r7, #4]
 80064e2:	687b      	ldr	r3, [r7, #4]
 80064e4:	f8d3 337c 	ldr.w	r3, [r3, #892]	@ 0x37c
 80064e8:	69db      	ldr	r3, [r3, #28]
 80064ea:	60fb      	str	r3, [r7, #12]
 80064ec:	68fb      	ldr	r3, [r7, #12]
 80064ee:	3340      	adds	r3, #64	@ 0x40
 80064f0:	4619      	mov	r1, r3
 80064f2:	6878      	ldr	r0, [r7, #4]
 80064f4:	f000 f8b1 	bl	800665a <GetLineCoding>
 80064f8:	4603      	mov	r3, r0
 80064fa:	72fb      	strb	r3, [r7, #11]
 80064fc:	7afb      	ldrb	r3, [r7, #11]
 80064fe:	2b00      	cmp	r3, #0
 8006500:	d105      	bne.n	800650e <USBH_CDC_ClassRequest+0x34>
 8006502:	687b      	ldr	r3, [r7, #4]
 8006504:	f8d3 33d4 	ldr.w	r3, [r3, #980]	@ 0x3d4
 8006508:	2102      	movs	r1, #2
 800650a:	6878      	ldr	r0, [r7, #4]
 800650c:	4798      	blx	r3
 800650e:	7afb      	ldrb	r3, [r7, #11]
 8006510:	4618      	mov	r0, r3
 8006512:	3710      	adds	r7, #16
 8006514:	46bd      	mov	sp, r7
 8006516:	bd80      	pop	{r7, pc}

08006518 <USBH_CDC_Process>:
 8006518:	b580      	push	{r7, lr}
 800651a:	b084      	sub	sp, #16
 800651c:	af00      	add	r7, sp, #0
 800651e:	6078      	str	r0, [r7, #4]
 8006520:	2301      	movs	r3, #1
 8006522:	73fb      	strb	r3, [r7, #15]
 8006524:	2300      	movs	r3, #0
 8006526:	73bb      	strb	r3, [r7, #14]
 8006528:	687b      	ldr	r3, [r7, #4]
 800652a:	f8d3 337c 	ldr.w	r3, [r3, #892]	@ 0x37c
 800652e:	69db      	ldr	r3, [r3, #28]
 8006530:	60bb      	str	r3, [r7, #8]
 8006532:	68bb      	ldr	r3, [r7, #8]
 8006534:	f893 304c 	ldrb.w	r3, [r3, #76]	@ 0x4c
 8006538:	2b04      	cmp	r3, #4
 800653a:	d877      	bhi.n	800662c <USBH_CDC_Process+0x114>
 800653c:	a201      	add	r2, pc, #4	@ (adr r2, 8006544 <USBH_CDC_Process+0x2c>)
 800653e:	f852 f023 	ldr.w	pc, [r2, r3, lsl #2]
 8006542:	bf00      	nop
 8006544:	08006559 	.word	0x08006559
 8006548:	0800655f 	.word	0x0800655f
 800654c:	0800658f 	.word	0x0800658f
 8006550:	08006603 	.word	0x08006603
 8006554:	08006611 	.word	0x08006611
 8006558:	2300      	movs	r3, #0
 800655a:	73fb      	strb	r3, [r7, #15]
 800655c:	e06d      	b.n	800663a <USBH_CDC_Process+0x122>
 800655e:	68bb      	ldr	r3, [r7, #8]
 8006560:	6c9b      	ldr	r3, [r3, #72]	@ 0x48
 8006562:	4619      	mov	r1, r3
 8006564:	6878      	ldr	r0, [r7, #4]
 8006566:	f000 f897 	bl	8006698 <SetLineCoding>
 800656a:	4603      	mov	r3, r0
 800656c:	73bb      	strb	r3, [r7, #14]
 800656e:	7bbb      	ldrb	r3, [r7, #14]
 8006570:	2b00      	cmp	r3, #0
 8006572:	d104      	bne.n	800657e <USBH_CDC_Process+0x66>
 8006574:	68bb      	ldr	r3, [r7, #8]
 8006576:	2202      	movs	r2, #2
 8006578:	f883 204c 	strb.w	r2, [r3, #76]	@ 0x4c
 800657c:	e058      	b.n	8006630 <USBH_CDC_Process+0x118>
 800657e:	7bbb      	ldrb	r3, [r7, #14]
 8006580:	2b01      	cmp	r3, #1
 8006582:	d055      	beq.n	8006630 <USBH_CDC_Process+0x118>
 8006584:	68bb      	ldr	r3, [r7, #8]
 8006586:	2204      	movs	r2, #4
 8006588:	f883 204c 	strb.w	r2, [r3, #76]	@ 0x4c
 800658c:	e050      	b.n	8006630 <USBH_CDC_Process+0x118>
 800658e:	68bb      	ldr	r3, [r7, #8]
 8006590:	3340      	adds	r3, #64	@ 0x40
 8006592:	4619      	mov	r1, r3
 8006594:	6878      	ldr	r0, [r7, #4]
 8006596:	f000 f860 	bl	800665a <GetLineCoding>
 800659a:	4603      	mov	r3, r0
 800659c:	73bb      	strb	r3, [r7, #14]
 800659e:	7bbb      	ldrb	r3, [r7, #14]
 80065a0:	2b00      	cmp	r3, #0
 80065a2:	d126      	bne.n	80065f2 <USBH_CDC_Process+0xda>
 80065a4:	68bb      	ldr	r3, [r7, #8]
 80065a6:	2200      	movs	r2, #0
 80065a8:	f883 204c 	strb.w	r2, [r3, #76]	@ 0x4c
 80065ac:	68bb      	ldr	r3, [r7, #8]
 80065ae:	f893 2044 	ldrb.w	r2, [r3, #68]	@ 0x44
 80065b2:	68bb      	ldr	r3, [r7, #8]
 80065b4:	6c9b      	ldr	r3, [r3, #72]	@ 0x48
 80065b6:	791b      	ldrb	r3, [r3, #4]
 80065b8:	429a      	cmp	r2, r3
 80065ba:	d13b      	bne.n	8006634 <USBH_CDC_Process+0x11c>
 80065bc:	68bb      	ldr	r3, [r7, #8]
 80065be:	f893 2046 	ldrb.w	r2, [r3, #70]	@ 0x46
 80065c2:	68bb      	ldr	r3, [r7, #8]
 80065c4:	6c9b      	ldr	r3, [r3, #72]	@ 0x48
 80065c6:	799b      	ldrb	r3, [r3, #6]
 80065c8:	429a      	cmp	r2, r3
 80065ca:	d133      	bne.n	8006634 <USBH_CDC_Process+0x11c>
 80065cc:	68bb      	ldr	r3, [r7, #8]
 80065ce:	f893 2045 	ldrb.w	r2, [r3, #69]	@ 0x45
 80065d2:	68bb      	ldr	r3, [r7, #8]
 80065d4:	6c9b      	ldr	r3, [r3, #72]	@ 0x48
 80065d6:	795b      	ldrb	r3, [r3, #5]
 80065d8:	429a      	cmp	r2, r3
 80065da:	d12b      	bne.n	8006634 <USBH_CDC_Process+0x11c>
 80065dc:	68bb      	ldr	r3, [r7, #8]
 80065de:	6c1a      	ldr	r2, [r3, #64]	@ 0x40
 80065e0:	68bb      	ldr	r3, [r7, #8]
 80065e2:	6c9b      	ldr	r3, [r3, #72]	@ 0x48
 80065e4:	681b      	ldr	r3, [r3, #0]
 80065e6:	429a      	cmp	r2, r3
 80065e8:	d124      	bne.n	8006634 <USBH_CDC_Process+0x11c>
 80065ea:	6878      	ldr	r0, [r7, #4]
 80065ec:	f000 f958 	bl	80068a0 <USBH_CDC_LineCodingChanged>
 80065f0:	e020      	b.n	8006634 <USBH_CDC_Process+0x11c>
 80065f2:	7bbb      	ldrb	r3, [r7, #14]
 80065f4:	2b01      	cmp	r3, #1
 80065f6:	d01d      	beq.n	8006634 <USBH_CDC_Process+0x11c>
 80065f8:	68bb      	ldr	r3, [r7, #8]
 80065fa:	2204      	movs	r2, #4
 80065fc:	f883 204c 	strb.w	r2, [r3, #76]	@ 0x4c
 8006600:	e018      	b.n	8006634 <USBH_CDC_Process+0x11c>
 8006602:	6878      	ldr	r0, [r7, #4]
 8006604:	f000 f867 	bl	80066d6 <CDC_ProcessTransmission>
 8006608:	6878      	ldr	r0, [r7, #4]
 800660a:	f000 f8da 	bl	80067c2 <CDC_ProcessReception>
 800660e:	e014      	b.n	800663a <USBH_CDC_Process+0x122>
 8006610:	2100      	movs	r1, #0
 8006612:	6878      	ldr	r0, [r7, #4]
 8006614:	f001 f81a 	bl	800764c <USBH_ClrFeature>
 8006618:	4603      	mov	r3, r0
 800661a:	73bb      	strb	r3, [r7, #14]
 800661c:	7bbb      	ldrb	r3, [r7, #14]
 800661e:	2b00      	cmp	r3, #0
 8006620:	d10a      	bne.n	8006638 <USBH_CDC_Process+0x120>
 8006622:	68bb      	ldr	r3, [r7, #8]
 8006624:	2200      	movs	r2, #0
 8006626:	f883 204c 	strb.w	r2, [r3, #76]	@ 0x4c
 800662a:	e005      	b.n	8006638 <USBH_CDC_Process+0x120>
 800662c:	bf00      	nop
 800662e:	e004      	b.n	800663a <USBH_CDC_Process+0x122>
 8006630:	bf00      	nop
 8006632:	e002      	b.n	800663a <USBH_CDC_Process+0x122>
 8006634:	bf00      	nop
 8006636:	e000      	b.n	800663a <USBH_CDC_Process+0x122>
 8006638:	bf00      	nop
 800663a:	7bfb      	ldrb	r3, [r7, #15]
 800663c:	4618      	mov	r0, r3
 800663e:	3710      	adds	r7, #16
 8006640:	46bd      	mov	sp, r7
 8006642:	bd80      	pop	{r7, pc}

08006644 <USBH_CDC_SOFProcess>:
 8006644:	b480      	push	{r7}
 8006646:	b083      	sub	sp, #12
 8006648:	af00      	add	r7, sp, #0
 800664a:	6078      	str	r0, [r7, #4]
 800664c:	2300      	movs	r3, #0
 800664e:	4618      	mov	r0, r3
 8006650:	370c      	adds	r7, #12
 8006652:	46bd      	mov	sp, r7
 8006654:	f85d 7b04 	ldr.w	r7, [sp], #4
 8006658:	4770      	bx	lr

0800665a <GetLineCoding>:
 800665a:	b580      	push	{r7, lr}
 800665c:	b082      	sub	sp, #8
 800665e:	af00      	add	r7, sp, #0
 8006660:	6078      	str	r0, [r7, #4]
 8006662:	6039      	str	r1, [r7, #0]
 8006664:	687b      	ldr	r3, [r7, #4]
 8006666:	22a1      	movs	r2, #161	@ 0xa1
 8006668:	741a      	strb	r2, [r3, #16]
 800666a:	687b      	ldr	r3, [r7, #4]
 800666c:	2221      	movs	r2, #33	@ 0x21
 800666e:	745a      	strb	r2, [r3, #17]
 8006670:	687b      	ldr	r3, [r7, #4]
 8006672:	2200      	movs	r2, #0
 8006674:	825a      	strh	r2, [r3, #18]
 8006676:	687b      	ldr	r3, [r7, #4]
 8006678:	2200      	movs	r2, #0
 800667a:	829a      	strh	r2, [r3, #20]
 800667c:	687b      	ldr	r3, [r7, #4]
 800667e:	2207      	movs	r2, #7
 8006680:	82da      	strh	r2, [r3, #22]
 8006682:	683b      	ldr	r3, [r7, #0]
 8006684:	2207      	movs	r2, #7
 8006686:	4619      	mov	r1, r3
 8006688:	6878      	ldr	r0, [r7, #4]
 800668a:	f001 fb14 	bl	8007cb6 <USBH_CtlReq>
 800668e:	4603      	mov	r3, r0
 8006690:	4618      	mov	r0, r3
 8006692:	3708      	adds	r7, #8
 8006694:	46bd      	mov	sp, r7
 8006696:	bd80      	pop	{r7, pc}

08006698 <SetLineCoding>:
 8006698:	b580      	push	{r7, lr}
 800669a:	b082      	sub	sp, #8
 800669c:	af00      	add	r7, sp, #0
 800669e:	6078      	str	r0, [r7, #4]
 80066a0:	6039      	str	r1, [r7, #0]
 80066a2:	687b      	ldr	r3, [r7, #4]
 80066a4:	2221      	movs	r2, #33	@ 0x21
 80066a6:	741a      	strb	r2, [r3, #16]
 80066a8:	687b      	ldr	r3, [r7, #4]
 80066aa:	2220      	movs	r2, #32
 80066ac:	745a      	strb	r2, [r3, #17]
 80066ae:	687b      	ldr	r3, [r7, #4]
 80066b0:	2200      	movs	r2, #0
 80066b2:	825a      	strh	r2, [r3, #18]
 80066b4:	687b      	ldr	r3, [r7, #4]
 80066b6:	2200      	movs	r2, #0
 80066b8:	829a      	strh	r2, [r3, #20]
 80066ba:	687b      	ldr	r3, [r7, #4]
 80066bc:	2207      	movs	r2, #7
 80066be:	82da      	strh	r2, [r3, #22]
 80066c0:	683b      	ldr	r3, [r7, #0]
 80066c2:	2207      	movs	r2, #7
 80066c4:	4619      	mov	r1, r3
 80066c6:	6878      	ldr	r0, [r7, #4]
 80066c8:	f001 faf5 	bl	8007cb6 <USBH_CtlReq>
 80066cc:	4603      	mov	r3, r0
 80066ce:	4618      	mov	r0, r3
 80066d0:	3708      	adds	r7, #8
 80066d2:	46bd      	mov	sp, r7
 80066d4:	bd80      	pop	{r7, pc}

080066d6 <CDC_ProcessTransmission>:
 80066d6:	b580      	push	{r7, lr}
 80066d8:	b086      	sub	sp, #24
 80066da:	af02      	add	r7, sp, #8
 80066dc:	6078      	str	r0, [r7, #4]
 80066de:	687b      	ldr	r3, [r7, #4]
 80066e0:	f8d3 337c 	ldr.w	r3, [r3, #892]	@ 0x37c
 80066e4:	69db      	ldr	r3, [r3, #28]
 80066e6:	60fb      	str	r3, [r7, #12]
 80066e8:	2300      	movs	r3, #0
 80066ea:	72fb      	strb	r3, [r7, #11]
 80066ec:	68fb      	ldr	r3, [r7, #12]
 80066ee:	f893 304d 	ldrb.w	r3, [r3, #77]	@ 0x4d
 80066f2:	2b01      	cmp	r3, #1
 80066f4:	d002      	beq.n	80066fc <CDC_ProcessTransmission+0x26>
 80066f6:	2b02      	cmp	r3, #2
 80066f8:	d023      	beq.n	8006742 <CDC_ProcessTransmission+0x6c>
 80066fa:	e05e      	b.n	80067ba <CDC_ProcessTransmission+0xe4>
 80066fc:	68fb      	ldr	r3, [r7, #12]
 80066fe:	6a5b      	ldr	r3, [r3, #36]	@ 0x24
 8006700:	68fa      	ldr	r2, [r7, #12]
 8006702:	8b12      	ldrh	r2, [r2, #24]
 8006704:	4293      	cmp	r3, r2
 8006706:	d90b      	bls.n	8006720 <CDC_ProcessTransmission+0x4a>
 8006708:	68fb      	ldr	r3, [r7, #12]
 800670a:	69d9      	ldr	r1, [r3, #28]
 800670c:	68fb      	ldr	r3, [r7, #12]
 800670e:	8b1a      	ldrh	r2, [r3, #24]
 8006710:	68fb      	ldr	r3, [r7, #12]
 8006712:	7b5b      	ldrb	r3, [r3, #13]
 8006714:	2001      	movs	r0, #1
 8006716:	9000      	str	r0, [sp, #0]
 8006718:	6878      	ldr	r0, [r7, #4]
 800671a:	f001 fcda 	bl	80080d2 <USBH_BulkSendData>
 800671e:	e00b      	b.n	8006738 <CDC_ProcessTransmission+0x62>
 8006720:	68fb      	ldr	r3, [r7, #12]
 8006722:	69d9      	ldr	r1, [r3, #28]
 8006724:	68fb      	ldr	r3, [r7, #12]
 8006726:	6a5b      	ldr	r3, [r3, #36]	@ 0x24
 8006728:	b29a      	uxth	r2, r3
 800672a:	68fb      	ldr	r3, [r7, #12]
 800672c:	7b5b      	ldrb	r3, [r3, #13]
 800672e:	2001      	movs	r0, #1
 8006730:	9000      	str	r0, [sp, #0]
 8006732:	6878      	ldr	r0, [r7, #4]
 8006734:	f001 fccd 	bl	80080d2 <USBH_BulkSendData>
 8006738:	68fb      	ldr	r3, [r7, #12]
 800673a:	2202      	movs	r2, #2
 800673c:	f883 204d 	strb.w	r2, [r3, #77]	@ 0x4d
 8006740:	e03b      	b.n	80067ba <CDC_ProcessTransmission+0xe4>
 8006742:	68fb      	ldr	r3, [r7, #12]
 8006744:	7b5b      	ldrb	r3, [r3, #13]
 8006746:	4619      	mov	r1, r3
 8006748:	6878      	ldr	r0, [r7, #4]
 800674a:	f001 fff1 	bl	8008730 <USBH_LL_GetURBState>
 800674e:	4603      	mov	r3, r0
 8006750:	72fb      	strb	r3, [r7, #11]
 8006752:	7afb      	ldrb	r3, [r7, #11]
 8006754:	2b01      	cmp	r3, #1
 8006756:	d128      	bne.n	80067aa <CDC_ProcessTransmission+0xd4>
 8006758:	68fb      	ldr	r3, [r7, #12]
 800675a:	6a5b      	ldr	r3, [r3, #36]	@ 0x24
 800675c:	68fa      	ldr	r2, [r7, #12]
 800675e:	8b12      	ldrh	r2, [r2, #24]
 8006760:	4293      	cmp	r3, r2
 8006762:	d90e      	bls.n	8006782 <CDC_ProcessTransmission+0xac>
 8006764:	68fb      	ldr	r3, [r7, #12]
 8006766:	6a5b      	ldr	r3, [r3, #36]	@ 0x24
 8006768:	68fa      	ldr	r2, [r7, #12]
 800676a:	8b12      	ldrh	r2, [r2, #24]
 800676c:	1a9a      	subs	r2, r3, r2
 800676e:	68fb      	ldr	r3, [r7, #12]
 8006770:	625a      	str	r2, [r3, #36]	@ 0x24
 8006772:	68fb      	ldr	r3, [r7, #12]
 8006774:	69db      	ldr	r3, [r3, #28]
 8006776:	68fa      	ldr	r2, [r7, #12]
 8006778:	8b12      	ldrh	r2, [r2, #24]
 800677a:	441a      	add	r2, r3
 800677c:	68fb      	ldr	r3, [r7, #12]
 800677e:	61da      	str	r2, [r3, #28]
 8006780:	e002      	b.n	8006788 <CDC_ProcessTransmission+0xb2>
 8006782:	68fb      	ldr	r3, [r7, #12]
 8006784:	2200      	movs	r2, #0
 8006786:	625a      	str	r2, [r3, #36]	@ 0x24
 8006788:	68fb      	ldr	r3, [r7, #12]
 800678a:	6a5b      	ldr	r3, [r3, #36]	@ 0x24
 800678c:	2b00      	cmp	r3, #0
 800678e:	d004      	beq.n	800679a <CDC_ProcessTransmission+0xc4>
 8006790:	68fb      	ldr	r3, [r7, #12]
 8006792:	2201      	movs	r2, #1
 8006794:	f883 204d 	strb.w	r2, [r3, #77]	@ 0x4d
 8006798:	e00e      	b.n	80067b8 <CDC_ProcessTransmission+0xe2>
 800679a:	68fb      	ldr	r3, [r7, #12]
 800679c:	2200      	movs	r2, #0
 800679e:	f883 204d 	strb.w	r2, [r3, #77]	@ 0x4d
 80067a2:	6878      	ldr	r0, [r7, #4]
 80067a4:	f000 f868 	bl	8006878 <USBH_CDC_TransmitCallback>
 80067a8:	e006      	b.n	80067b8 <CDC_ProcessTransmission+0xe2>
 80067aa:	7afb      	ldrb	r3, [r7, #11]
 80067ac:	2b02      	cmp	r3, #2
 80067ae:	d103      	bne.n	80067b8 <CDC_ProcessTransmission+0xe2>
 80067b0:	68fb      	ldr	r3, [r7, #12]
 80067b2:	2201      	movs	r2, #1
 80067b4:	f883 204d 	strb.w	r2, [r3, #77]	@ 0x4d
 80067b8:	bf00      	nop
 80067ba:	bf00      	nop
 80067bc:	3710      	adds	r7, #16
 80067be:	46bd      	mov	sp, r7
 80067c0:	bd80      	pop	{r7, pc}

080067c2 <CDC_ProcessReception>:
 80067c2:	b580      	push	{r7, lr}
 80067c4:	b086      	sub	sp, #24
 80067c6:	af00      	add	r7, sp, #0
 80067c8:	6078      	str	r0, [r7, #4]
 80067ca:	687b      	ldr	r3, [r7, #4]
 80067cc:	f8d3 337c 	ldr.w	r3, [r3, #892]	@ 0x37c
 80067d0:	69db      	ldr	r3, [r3, #28]
 80067d2:	617b      	str	r3, [r7, #20]
 80067d4:	2300      	movs	r3, #0
 80067d6:	74fb      	strb	r3, [r7, #19]
 80067d8:	697b      	ldr	r3, [r7, #20]
 80067da:	f893 304e 	ldrb.w	r3, [r3, #78]	@ 0x4e
 80067de:	2b03      	cmp	r3, #3
 80067e0:	d002      	beq.n	80067e8 <CDC_ProcessReception+0x26>
 80067e2:	2b04      	cmp	r3, #4
 80067e4:	d00e      	beq.n	8006804 <CDC_ProcessReception+0x42>
 80067e6:	e043      	b.n	8006870 <CDC_ProcessReception+0xae>
 80067e8:	697b      	ldr	r3, [r7, #20]
 80067ea:	6a19      	ldr	r1, [r3, #32]
 80067ec:	697b      	ldr	r3, [r7, #20]
 80067ee:	8b5a      	ldrh	r2, [r3, #26]
 80067f0:	697b      	ldr	r3, [r7, #20]
 80067f2:	7b1b      	ldrb	r3, [r3, #12]
 80067f4:	6878      	ldr	r0, [r7, #4]
 80067f6:	f001 fc91 	bl	800811c <USBH_BulkReceiveData>
 80067fa:	697b      	ldr	r3, [r7, #20]
 80067fc:	2204      	movs	r2, #4
 80067fe:	f883 204e 	strb.w	r2, [r3, #78]	@ 0x4e
 8006802:	e035      	b.n	8006870 <CDC_ProcessReception+0xae>
 8006804:	697b      	ldr	r3, [r7, #20]
 8006806:	7b1b      	ldrb	r3, [r3, #12]
 8006808:	4619      	mov	r1, r3
 800680a:	6878      	ldr	r0, [r7, #4]
 800680c:	f001 ff90 	bl	8008730 <USBH_LL_GetURBState>
 8006810:	4603      	mov	r3, r0
 8006812:	74fb      	strb	r3, [r7, #19]
 8006814:	7cfb      	ldrb	r3, [r7, #19]
 8006816:	2b01      	cmp	r3, #1
 8006818:	d129      	bne.n	800686e <CDC_ProcessReception+0xac>
 800681a:	697b      	ldr	r3, [r7, #20]
 800681c:	7b1b      	ldrb	r3, [r3, #12]
 800681e:	4619      	mov	r1, r3
 8006820:	6878      	ldr	r0, [r7, #4]
 8006822:	f001 fef3 	bl	800860c <USBH_LL_GetLastXferSize>
 8006826:	60f8      	str	r0, [r7, #12]
 8006828:	697b      	ldr	r3, [r7, #20]
 800682a:	6a9b      	ldr	r3, [r3, #40]	@ 0x28
 800682c:	68fa      	ldr	r2, [r7, #12]
 800682e:	429a      	cmp	r2, r3
 8006830:	d016      	beq.n	8006860 <CDC_ProcessReception+0x9e>
 8006832:	697b      	ldr	r3, [r7, #20]
 8006834:	8b5b      	ldrh	r3, [r3, #26]
 8006836:	461a      	mov	r2, r3
 8006838:	68fb      	ldr	r3, [r7, #12]
 800683a:	4293      	cmp	r3, r2
 800683c:	d910      	bls.n	8006860 <CDC_ProcessReception+0x9e>
 800683e:	697b      	ldr	r3, [r7, #20]
 8006840:	6a9a      	ldr	r2, [r3, #40]	@ 0x28
 8006842:	68fb      	ldr	r3, [r7, #12]
 8006844:	1ad2      	subs	r2, r2, r3
 8006846:	697b      	ldr	r3, [r7, #20]
 8006848:	629a      	str	r2, [r3, #40]	@ 0x28
 800684a:	697b      	ldr	r3, [r7, #20]
 800684c:	6a1a      	ldr	r2, [r3, #32]
 800684e:	68fb      	ldr	r3, [r7, #12]
 8006850:	441a      	add	r2, r3
 8006852:	697b      	ldr	r3, [r7, #20]
 8006854:	621a      	str	r2, [r3, #32]
 8006856:	697b      	ldr	r3, [r7, #20]
 8006858:	2203      	movs	r2, #3
 800685a:	f883 204e 	strb.w	r2, [r3, #78]	@ 0x4e
 800685e:	e006      	b.n	800686e <CDC_ProcessReception+0xac>
 8006860:	697b      	ldr	r3, [r7, #20]
 8006862:	2200      	movs	r2, #0
 8006864:	f883 204e 	strb.w	r2, [r3, #78]	@ 0x4e
 8006868:	6878      	ldr	r0, [r7, #4]
 800686a:	f000 f80f 	bl	800688c <USBH_CDC_ReceiveCallback>
 800686e:	bf00      	nop
 8006870:	bf00      	nop
 8006872:	3718      	adds	r7, #24
 8006874:	46bd      	mov	sp, r7
 8006876:	bd80      	pop	{r7, pc}

08006878 <USBH_CDC_TransmitCallback>:
 8006878:	b480      	push	{r7}
 800687a:	b083      	sub	sp, #12
 800687c:	af00      	add	r7, sp, #0
 800687e:	6078      	str	r0, [r7, #4]
 8006880:	bf00      	nop
 8006882:	370c      	adds	r7, #12
 8006884:	46bd      	mov	sp, r7
 8006886:	f85d 7b04 	ldr.w	r7, [sp], #4
 800688a:	4770      	bx	lr

0800688c <USBH_CDC_ReceiveCallback>:
 800688c:	b480      	push	{r7}
 800688e:	b083      	sub	sp, #12
 8006890:	af00      	add	r7, sp, #0
 8006892:	6078      	str	r0, [r7, #4]
 8006894:	bf00      	nop
 8006896:	370c      	adds	r7, #12
 8006898:	46bd      	mov	sp, r7
 800689a:	f85d 7b04 	ldr.w	r7, [sp], #4
 800689e:	4770      	bx	lr

080068a0 <USBH_CDC_LineCodingChanged>:
 80068a0:	b480      	push	{r7}
 80068a2:	b083      	sub	sp, #12
 80068a4:	af00      	add	r7, sp, #0
 80068a6:	6078      	str	r0, [r7, #4]
 80068a8:	bf00      	nop
 80068aa:	370c      	adds	r7, #12
 80068ac:	46bd      	mov	sp, r7
 80068ae:	f85d 7b04 	ldr.w	r7, [sp], #4
 80068b2:	4770      	bx	lr

080068b4 <USBH_Init>:
 80068b4:	b580      	push	{r7, lr}
 80068b6:	b084      	sub	sp, #16
 80068b8:	af00      	add	r7, sp, #0
 80068ba:	60f8      	str	r0, [r7, #12]
 80068bc:	60b9      	str	r1, [r7, #8]
 80068be:	4613      	mov	r3, r2
 80068c0:	71fb      	strb	r3, [r7, #7]
 80068c2:	68fb      	ldr	r3, [r7, #12]
 80068c4:	2b00      	cmp	r3, #0
 80068c6:	d101      	bne.n	80068cc <USBH_Init+0x18>
 80068c8:	2302      	movs	r3, #2
 80068ca:	e029      	b.n	8006920 <USBH_Init+0x6c>
 80068cc:	68fb      	ldr	r3, [r7, #12]
 80068ce:	79fa      	ldrb	r2, [r7, #7]
 80068d0:	f883 23cc 	strb.w	r2, [r3, #972]	@ 0x3cc
 80068d4:	68fb      	ldr	r3, [r7, #12]
 80068d6:	2200      	movs	r2, #0
 80068d8:	f8c3 237c 	str.w	r2, [r3, #892]	@ 0x37c
 80068dc:	68fb      	ldr	r3, [r7, #12]
 80068de:	2200      	movs	r2, #0
 80068e0:	f8c3 2380 	str.w	r2, [r3, #896]	@ 0x380
 80068e4:	68f8      	ldr	r0, [r7, #12]
 80068e6:	f000 f81f 	bl	8006928 <DeInitStateMachine>
 80068ea:	68fb      	ldr	r3, [r7, #12]
 80068ec:	2200      	movs	r2, #0
 80068ee:	f883 2323 	strb.w	r2, [r3, #803]	@ 0x323
 80068f2:	68fb      	ldr	r3, [r7, #12]
 80068f4:	2200      	movs	r2, #0
 80068f6:	f883 2320 	strb.w	r2, [r3, #800]	@ 0x320
 80068fa:	68fb      	ldr	r3, [r7, #12]
 80068fc:	2200      	movs	r2, #0
 80068fe:	f883 2321 	strb.w	r2, [r3, #801]	@ 0x321
 8006902:	68fb      	ldr	r3, [r7, #12]
 8006904:	2200      	movs	r2, #0
 8006906:	f883 2322 	strb.w	r2, [r3, #802]	@ 0x322
 800690a:	68bb      	ldr	r3, [r7, #8]
 800690c:	2b00      	cmp	r3, #0
 800690e:	d003      	beq.n	8006918 <USBH_Init+0x64>
 8006910:	68fb      	ldr	r3, [r7, #12]
 8006912:	68ba      	ldr	r2, [r7, #8]
 8006914:	f8c3 23d4 	str.w	r2, [r3, #980]	@ 0x3d4
 8006918:	68f8      	ldr	r0, [r7, #12]
 800691a:	f001 fdc3 	bl	80084a4 <USBH_LL_Init>
 800691e:	2300      	movs	r3, #0
 8006920:	4618      	mov	r0, r3
 8006922:	3710      	adds	r7, #16
 8006924:	46bd      	mov	sp, r7
 8006926:	bd80      	pop	{r7, pc}

08006928 <DeInitStateMachine>:
 8006928:	b580      	push	{r7, lr}
 800692a:	b084      	sub	sp, #16
 800692c:	af00      	add	r7, sp, #0
 800692e:	6078      	str	r0, [r7, #4]
 8006930:	2300      	movs	r3, #0
 8006932:	60fb      	str	r3, [r7, #12]
 8006934:	2300      	movs	r3, #0
 8006936:	60fb      	str	r3, [r7, #12]
 8006938:	e009      	b.n	800694e <DeInitStateMachine+0x26>
 800693a:	687a      	ldr	r2, [r7, #4]
 800693c:	68fb      	ldr	r3, [r7, #12]
 800693e:	33e0      	adds	r3, #224	@ 0xe0
 8006940:	009b      	lsls	r3, r3, #2
 8006942:	4413      	add	r3, r2
 8006944:	2200      	movs	r2, #0
 8006946:	605a      	str	r2, [r3, #4]
 8006948:	68fb      	ldr	r3, [r7, #12]
 800694a:	3301      	adds	r3, #1
 800694c:	60fb      	str	r3, [r7, #12]
 800694e:	68fb      	ldr	r3, [r7, #12]
 8006950:	2b0f      	cmp	r3, #15
 8006952:	d9f2      	bls.n	800693a <DeInitStateMachine+0x12>
 8006954:	2300      	movs	r3, #0
 8006956:	60fb      	str	r3, [r7, #12]
 8006958:	e009      	b.n	800696e <DeInitStateMachine+0x46>
 800695a:	687a      	ldr	r2, [r7, #4]
 800695c:	68fb      	ldr	r3, [r7, #12]
 800695e:	4413      	add	r3, r2
 8006960:	f503 738e 	add.w	r3, r3, #284	@ 0x11c
 8006964:	2200      	movs	r2, #0
 8006966:	701a      	strb	r2, [r3, #0]
 8006968:	68fb      	ldr	r3, [r7, #12]
 800696a:	3301      	adds	r3, #1
 800696c:	60fb      	str	r3, [r7, #12]
 800696e:	68fb      	ldr	r3, [r7, #12]
 8006970:	f5b3 7f00 	cmp.w	r3, #512	@ 0x200
 8006974:	d3f1      	bcc.n	800695a <DeInitStateMachine+0x32>
 8006976:	687b      	ldr	r3, [r7, #4]
 8006978:	2200      	movs	r2, #0
 800697a:	701a      	strb	r2, [r3, #0]
 800697c:	687b      	ldr	r3, [r7, #4]
 800697e:	2200      	movs	r2, #0
 8006980:	705a      	strb	r2, [r3, #1]
 8006982:	687b      	ldr	r3, [r7, #4]
 8006984:	2201      	movs	r2, #1
 8006986:	709a      	strb	r2, [r3, #2]
 8006988:	687b      	ldr	r3, [r7, #4]
 800698a:	2200      	movs	r2, #0
 800698c:	f8c3 23c4 	str.w	r2, [r3, #964]	@ 0x3c4
 8006990:	687b      	ldr	r3, [r7, #4]
 8006992:	2201      	movs	r2, #1
 8006994:	761a      	strb	r2, [r3, #24]
 8006996:	687b      	ldr	r3, [r7, #4]
 8006998:	2240      	movs	r2, #64	@ 0x40
 800699a:	719a      	strb	r2, [r3, #6]
 800699c:	687b      	ldr	r3, [r7, #4]
 800699e:	2200      	movs	r2, #0
 80069a0:	765a      	strb	r2, [r3, #25]
 80069a2:	687b      	ldr	r3, [r7, #4]
 80069a4:	2200      	movs	r2, #0
 80069a6:	f883 231c 	strb.w	r2, [r3, #796]	@ 0x31c
 80069aa:	687b      	ldr	r3, [r7, #4]
 80069ac:	2201      	movs	r2, #1
 80069ae:	f883 231d 	strb.w	r2, [r3, #797]	@ 0x31d
 80069b2:	687b      	ldr	r3, [r7, #4]
 80069b4:	2200      	movs	r2, #0
 80069b6:	f883 231f 	strb.w	r2, [r3, #799]	@ 0x31f
 80069ba:	687b      	ldr	r3, [r7, #4]
 80069bc:	2200      	movs	r2, #0
 80069be:	f883 231e 	strb.w	r2, [r3, #798]	@ 0x31e
 80069c2:	687b      	ldr	r3, [r7, #4]
 80069c4:	331c      	adds	r3, #28
 80069c6:	f44f 7280 	mov.w	r2, #256	@ 0x100
 80069ca:	2100      	movs	r1, #0
 80069cc:	4618      	mov	r0, r3
 80069ce:	f002 f81d 	bl	8008a0c <memset>
 80069d2:	687b      	ldr	r3, [r7, #4]
 80069d4:	f503 738e 	add.w	r3, r3, #284	@ 0x11c
 80069d8:	f44f 7200 	mov.w	r2, #512	@ 0x200
 80069dc:	2100      	movs	r1, #0
 80069de:	4618      	mov	r0, r3
 80069e0:	f002 f814 	bl	8008a0c <memset>
 80069e4:	687b      	ldr	r3, [r7, #4]
 80069e6:	f203 3326 	addw	r3, r3, #806	@ 0x326
 80069ea:	2212      	movs	r2, #18
 80069ec:	2100      	movs	r1, #0
 80069ee:	4618      	mov	r0, r3
 80069f0:	f002 f80c 	bl	8008a0c <memset>
 80069f4:	687b      	ldr	r3, [r7, #4]
 80069f6:	f503 734e 	add.w	r3, r3, #824	@ 0x338
 80069fa:	223e      	movs	r2, #62	@ 0x3e
 80069fc:	2100      	movs	r1, #0
 80069fe:	4618      	mov	r0, r3
 8006a00:	f002 f804 	bl	8008a0c <memset>
 8006a04:	2300      	movs	r3, #0
 8006a06:	4618      	mov	r0, r3
 8006a08:	3710      	adds	r7, #16
 8006a0a:	46bd      	mov	sp, r7
 8006a0c:	bd80      	pop	{r7, pc}

08006a0e <USBH_RegisterClass>:
 8006a0e:	b480      	push	{r7}
 8006a10:	b085      	sub	sp, #20
 8006a12:	af00      	add	r7, sp, #0
 8006a14:	6078      	str	r0, [r7, #4]
 8006a16:	6039      	str	r1, [r7, #0]
 8006a18:	2300      	movs	r3, #0
 8006a1a:	73fb      	strb	r3, [r7, #15]
 8006a1c:	683b      	ldr	r3, [r7, #0]
 8006a1e:	2b00      	cmp	r3, #0
 8006a20:	d016      	beq.n	8006a50 <USBH_RegisterClass+0x42>
 8006a22:	687b      	ldr	r3, [r7, #4]
 8006a24:	f8d3 3380 	ldr.w	r3, [r3, #896]	@ 0x380
 8006a28:	2b00      	cmp	r3, #0
 8006a2a:	d10e      	bne.n	8006a4a <USBH_RegisterClass+0x3c>
 8006a2c:	687b      	ldr	r3, [r7, #4]
 8006a2e:	f8d3 3380 	ldr.w	r3, [r3, #896]	@ 0x380
 8006a32:	1c59      	adds	r1, r3, #1
 8006a34:	687a      	ldr	r2, [r7, #4]
 8006a36:	f8c2 1380 	str.w	r1, [r2, #896]	@ 0x380
 8006a3a:	687a      	ldr	r2, [r7, #4]
 8006a3c:	33de      	adds	r3, #222	@ 0xde
 8006a3e:	6839      	ldr	r1, [r7, #0]
 8006a40:	f842 1023 	str.w	r1, [r2, r3, lsl #2]
 8006a44:	2300      	movs	r3, #0
 8006a46:	73fb      	strb	r3, [r7, #15]
 8006a48:	e004      	b.n	8006a54 <USBH_RegisterClass+0x46>
 8006a4a:	2302      	movs	r3, #2
 8006a4c:	73fb      	strb	r3, [r7, #15]
 8006a4e:	e001      	b.n	8006a54 <USBH_RegisterClass+0x46>
 8006a50:	2302      	movs	r3, #2
 8006a52:	73fb      	strb	r3, [r7, #15]
 8006a54:	7bfb      	ldrb	r3, [r7, #15]
 8006a56:	4618      	mov	r0, r3
 8006a58:	3714      	adds	r7, #20
 8006a5a:	46bd      	mov	sp, r7
 8006a5c:	f85d 7b04 	ldr.w	r7, [sp], #4
 8006a60:	4770      	bx	lr

08006a62 <USBH_SelectInterface>:
 8006a62:	b480      	push	{r7}
 8006a64:	b085      	sub	sp, #20
 8006a66:	af00      	add	r7, sp, #0
 8006a68:	6078      	str	r0, [r7, #4]
 8006a6a:	460b      	mov	r3, r1
 8006a6c:	70fb      	strb	r3, [r7, #3]
 8006a6e:	2300      	movs	r3, #0
 8006a70:	73fb      	strb	r3, [r7, #15]
 8006a72:	687b      	ldr	r3, [r7, #4]
 8006a74:	f893 333c 	ldrb.w	r3, [r3, #828]	@ 0x33c
 8006a78:	78fa      	ldrb	r2, [r7, #3]
 8006a7a:	429a      	cmp	r2, r3
 8006a7c:	d204      	bcs.n	8006a88 <USBH_SelectInterface+0x26>
 8006a7e:	687b      	ldr	r3, [r7, #4]
 8006a80:	78fa      	ldrb	r2, [r7, #3]
 8006a82:	f883 2324 	strb.w	r2, [r3, #804]	@ 0x324
 8006a86:	e001      	b.n	8006a8c <USBH_SelectInterface+0x2a>
 8006a88:	2302      	movs	r3, #2
 8006a8a:	73fb      	strb	r3, [r7, #15]
 8006a8c:	7bfb      	ldrb	r3, [r7, #15]
 8006a8e:	4618      	mov	r0, r3
 8006a90:	3714      	adds	r7, #20
 8006a92:	46bd      	mov	sp, r7
 8006a94:	f85d 7b04 	ldr.w	r7, [sp], #4
 8006a98:	4770      	bx	lr

08006a9a <USBH_FindInterface>:
 8006a9a:	b480      	push	{r7}
 8006a9c:	b087      	sub	sp, #28
 8006a9e:	af00      	add	r7, sp, #0
 8006aa0:	6078      	str	r0, [r7, #4]
 8006aa2:	4608      	mov	r0, r1
 8006aa4:	4611      	mov	r1, r2
 8006aa6:	461a      	mov	r2, r3
 8006aa8:	4603      	mov	r3, r0
 8006aaa:	70fb      	strb	r3, [r7, #3]
 8006aac:	460b      	mov	r3, r1
 8006aae:	70bb      	strb	r3, [r7, #2]
 8006ab0:	4613      	mov	r3, r2
 8006ab2:	707b      	strb	r3, [r7, #1]
 8006ab4:	2300      	movs	r3, #0
 8006ab6:	75fb      	strb	r3, [r7, #23]
 8006ab8:	2300      	movs	r3, #0
 8006aba:	613b      	str	r3, [r7, #16]
 8006abc:	687b      	ldr	r3, [r7, #4]
 8006abe:	f503 734e 	add.w	r3, r3, #824	@ 0x338
 8006ac2:	60fb      	str	r3, [r7, #12]
 8006ac4:	e025      	b.n	8006b12 <USBH_FindInterface+0x78>
 8006ac6:	7dfb      	ldrb	r3, [r7, #23]
 8006ac8:	221a      	movs	r2, #26
 8006aca:	fb02 f303 	mul.w	r3, r2, r3
 8006ace:	3308      	adds	r3, #8
 8006ad0:	68fa      	ldr	r2, [r7, #12]
 8006ad2:	4413      	add	r3, r2
 8006ad4:	3302      	adds	r3, #2
 8006ad6:	613b      	str	r3, [r7, #16]
 8006ad8:	693b      	ldr	r3, [r7, #16]
 8006ada:	795b      	ldrb	r3, [r3, #5]
 8006adc:	78fa      	ldrb	r2, [r7, #3]
 8006ade:	429a      	cmp	r2, r3
 8006ae0:	d002      	beq.n	8006ae8 <USBH_FindInterface+0x4e>
 8006ae2:	78fb      	ldrb	r3, [r7, #3]
 8006ae4:	2bff      	cmp	r3, #255	@ 0xff
 8006ae6:	d111      	bne.n	8006b0c <USBH_FindInterface+0x72>
 8006ae8:	693b      	ldr	r3, [r7, #16]
 8006aea:	799b      	ldrb	r3, [r3, #6]
 8006aec:	78ba      	ldrb	r2, [r7, #2]
 8006aee:	429a      	cmp	r2, r3
 8006af0:	d002      	beq.n	8006af8 <USBH_FindInterface+0x5e>
 8006af2:	78bb      	ldrb	r3, [r7, #2]
 8006af4:	2bff      	cmp	r3, #255	@ 0xff
 8006af6:	d109      	bne.n	8006b0c <USBH_FindInterface+0x72>
 8006af8:	693b      	ldr	r3, [r7, #16]
 8006afa:	79db      	ldrb	r3, [r3, #7]
 8006afc:	787a      	ldrb	r2, [r7, #1]
 8006afe:	429a      	cmp	r2, r3
 8006b00:	d002      	beq.n	8006b08 <USBH_FindInterface+0x6e>
 8006b02:	787b      	ldrb	r3, [r7, #1]
 8006b04:	2bff      	cmp	r3, #255	@ 0xff
 8006b06:	d101      	bne.n	8006b0c <USBH_FindInterface+0x72>
 8006b08:	7dfb      	ldrb	r3, [r7, #23]
 8006b0a:	e006      	b.n	8006b1a <USBH_FindInterface+0x80>
 8006b0c:	7dfb      	ldrb	r3, [r7, #23]
 8006b0e:	3301      	adds	r3, #1
 8006b10:	75fb      	strb	r3, [r7, #23]
 8006b12:	7dfb      	ldrb	r3, [r7, #23]
 8006b14:	2b01      	cmp	r3, #1
 8006b16:	d9d6      	bls.n	8006ac6 <USBH_FindInterface+0x2c>
 8006b18:	23ff      	movs	r3, #255	@ 0xff
 8006b1a:	4618      	mov	r0, r3
 8006b1c:	371c      	adds	r7, #28
 8006b1e:	46bd      	mov	sp, r7
 8006b20:	f85d 7b04 	ldr.w	r7, [sp], #4
 8006b24:	4770      	bx	lr

08006b26 <USBH_Start>:
 8006b26:	b580      	push	{r7, lr}
 8006b28:	b082      	sub	sp, #8
 8006b2a:	af00      	add	r7, sp, #0
 8006b2c:	6078      	str	r0, [r7, #4]
 8006b2e:	6878      	ldr	r0, [r7, #4]
 8006b30:	f001 fcf4 	bl	800851c <USBH_LL_Start>
 8006b34:	2101      	movs	r1, #1
 8006b36:	6878      	ldr	r0, [r7, #4]
 8006b38:	f001 fe0d 	bl	8008756 <USBH_LL_DriverVBUS>
 8006b3c:	2300      	movs	r3, #0
 8006b3e:	4618      	mov	r0, r3
 8006b40:	3708      	adds	r7, #8
 8006b42:	46bd      	mov	sp, r7
 8006b44:	bd80      	pop	{r7, pc}
	...

08006b48 <USBH_Process>:
 8006b48:	b580      	push	{r7, lr}
 8006b4a:	b088      	sub	sp, #32
 8006b4c:	af04      	add	r7, sp, #16
 8006b4e:	6078      	str	r0, [r7, #4]
 8006b50:	2302      	movs	r3, #2
 8006b52:	73bb      	strb	r3, [r7, #14]
 8006b54:	2300      	movs	r3, #0
 8006b56:	73fb      	strb	r3, [r7, #15]
 8006b58:	687b      	ldr	r3, [r7, #4]
 8006b5a:	f893 3321 	ldrb.w	r3, [r3, #801]	@ 0x321
 8006b5e:	b2db      	uxtb	r3, r3
 8006b60:	2b01      	cmp	r3, #1
 8006b62:	d102      	bne.n	8006b6a <USBH_Process+0x22>
 8006b64:	687b      	ldr	r3, [r7, #4]
 8006b66:	2203      	movs	r2, #3
 8006b68:	701a      	strb	r2, [r3, #0]
 8006b6a:	687b      	ldr	r3, [r7, #4]
 8006b6c:	781b      	ldrb	r3, [r3, #0]
 8006b6e:	b2db      	uxtb	r3, r3
 8006b70:	2b0b      	cmp	r3, #11
 8006b72:	f200 81bb 	bhi.w	8006eec <USBH_Process+0x3a4>
 8006b76:	a201      	add	r2, pc, #4	@ (adr r2, 8006b7c <USBH_Process+0x34>)
 8006b78:	f852 f023 	ldr.w	pc, [r2, r3, lsl #2]
 8006b7c:	08006bad 	.word	0x08006bad
 8006b80:	08006bdf 	.word	0x08006bdf
 8006b84:	08006c47 	.word	0x08006c47
 8006b88:	08006e87 	.word	0x08006e87
 8006b8c:	08006eed 	.word	0x08006eed
 8006b90:	08006ce7 	.word	0x08006ce7
 8006b94:	08006e2d 	.word	0x08006e2d
 8006b98:	08006d1d 	.word	0x08006d1d
 8006b9c:	08006d3d 	.word	0x08006d3d
 8006ba0:	08006d5b 	.word	0x08006d5b
 8006ba4:	08006d9f 	.word	0x08006d9f
 8006ba8:	08006e6f 	.word	0x08006e6f
 8006bac:	687b      	ldr	r3, [r7, #4]
 8006bae:	f893 3320 	ldrb.w	r3, [r3, #800]	@ 0x320
 8006bb2:	b2db      	uxtb	r3, r3
 8006bb4:	2b00      	cmp	r3, #0
 8006bb6:	f000 819b 	beq.w	8006ef0 <USBH_Process+0x3a8>
 8006bba:	687b      	ldr	r3, [r7, #4]
 8006bbc:	2201      	movs	r2, #1
 8006bbe:	701a      	strb	r2, [r3, #0]
 8006bc0:	20c8      	movs	r0, #200	@ 0xc8
 8006bc2:	f001 fe12 	bl	80087ea <USBH_Delay>
 8006bc6:	6878      	ldr	r0, [r7, #4]
 8006bc8:	f001 fd05 	bl	80085d6 <USBH_LL_ResetPort>
 8006bcc:	687b      	ldr	r3, [r7, #4]
 8006bce:	2200      	movs	r2, #0
 8006bd0:	f883 231c 	strb.w	r2, [r3, #796]	@ 0x31c
 8006bd4:	687b      	ldr	r3, [r7, #4]
 8006bd6:	2200      	movs	r2, #0
 8006bd8:	f8c3 23c8 	str.w	r2, [r3, #968]	@ 0x3c8
 8006bdc:	e188      	b.n	8006ef0 <USBH_Process+0x3a8>
 8006bde:	687b      	ldr	r3, [r7, #4]
 8006be0:	f893 3323 	ldrb.w	r3, [r3, #803]	@ 0x323
 8006be4:	2b01      	cmp	r3, #1
 8006be6:	d107      	bne.n	8006bf8 <USBH_Process+0xb0>
 8006be8:	687b      	ldr	r3, [r7, #4]
 8006bea:	2200      	movs	r2, #0
 8006bec:	f883 231f 	strb.w	r2, [r3, #799]	@ 0x31f
 8006bf0:	687b      	ldr	r3, [r7, #4]
 8006bf2:	2202      	movs	r2, #2
 8006bf4:	701a      	strb	r2, [r3, #0]
 8006bf6:	e18a      	b.n	8006f0e <USBH_Process+0x3c6>
 8006bf8:	687b      	ldr	r3, [r7, #4]
 8006bfa:	f8d3 33c8 	ldr.w	r3, [r3, #968]	@ 0x3c8
 8006bfe:	f5b3 7f7a 	cmp.w	r3, #1000	@ 0x3e8
 8006c02:	d914      	bls.n	8006c2e <USBH_Process+0xe6>
 8006c04:	687b      	ldr	r3, [r7, #4]
 8006c06:	f893 331f 	ldrb.w	r3, [r3, #799]	@ 0x31f
 8006c0a:	3301      	adds	r3, #1
 8006c0c:	b2da      	uxtb	r2, r3
 8006c0e:	687b      	ldr	r3, [r7, #4]
 8006c10:	f883 231f 	strb.w	r2, [r3, #799]	@ 0x31f
 8006c14:	687b      	ldr	r3, [r7, #4]
 8006c16:	f893 331f 	ldrb.w	r3, [r3, #799]	@ 0x31f
 8006c1a:	2b03      	cmp	r3, #3
 8006c1c:	d903      	bls.n	8006c26 <USBH_Process+0xde>
 8006c1e:	687b      	ldr	r3, [r7, #4]
 8006c20:	220d      	movs	r2, #13
 8006c22:	701a      	strb	r2, [r3, #0]
 8006c24:	e173      	b.n	8006f0e <USBH_Process+0x3c6>
 8006c26:	687b      	ldr	r3, [r7, #4]
 8006c28:	2200      	movs	r2, #0
 8006c2a:	701a      	strb	r2, [r3, #0]
 8006c2c:	e16f      	b.n	8006f0e <USBH_Process+0x3c6>
 8006c2e:	687b      	ldr	r3, [r7, #4]
 8006c30:	f8d3 33c8 	ldr.w	r3, [r3, #968]	@ 0x3c8
 8006c34:	f103 020a 	add.w	r2, r3, #10
 8006c38:	687b      	ldr	r3, [r7, #4]
 8006c3a:	f8c3 23c8 	str.w	r2, [r3, #968]	@ 0x3c8
 8006c3e:	200a      	movs	r0, #10
 8006c40:	f001 fdd3 	bl	80087ea <USBH_Delay>
 8006c44:	e163      	b.n	8006f0e <USBH_Process+0x3c6>
 8006c46:	687b      	ldr	r3, [r7, #4]
 8006c48:	f8d3 33d4 	ldr.w	r3, [r3, #980]	@ 0x3d4
 8006c4c:	2b00      	cmp	r3, #0
 8006c4e:	d005      	beq.n	8006c5c <USBH_Process+0x114>
 8006c50:	687b      	ldr	r3, [r7, #4]
 8006c52:	f8d3 33d4 	ldr.w	r3, [r3, #980]	@ 0x3d4
 8006c56:	2104      	movs	r1, #4
 8006c58:	6878      	ldr	r0, [r7, #4]
 8006c5a:	4798      	blx	r3
 8006c5c:	2064      	movs	r0, #100	@ 0x64
 8006c5e:	f001 fdc4 	bl	80087ea <USBH_Delay>
 8006c62:	6878      	ldr	r0, [r7, #4]
 8006c64:	f001 fc90 	bl	8008588 <USBH_LL_GetSpeed>
 8006c68:	4603      	mov	r3, r0
 8006c6a:	461a      	mov	r2, r3
 8006c6c:	687b      	ldr	r3, [r7, #4]
 8006c6e:	f883 231d 	strb.w	r2, [r3, #797]	@ 0x31d
 8006c72:	687b      	ldr	r3, [r7, #4]
 8006c74:	2205      	movs	r2, #5
 8006c76:	701a      	strb	r2, [r3, #0]
 8006c78:	2100      	movs	r1, #0
 8006c7a:	6878      	ldr	r0, [r7, #4]
 8006c7c:	f001 fa9b 	bl	80081b6 <USBH_AllocPipe>
 8006c80:	4603      	mov	r3, r0
 8006c82:	461a      	mov	r2, r3
 8006c84:	687b      	ldr	r3, [r7, #4]
 8006c86:	715a      	strb	r2, [r3, #5]
 8006c88:	2180      	movs	r1, #128	@ 0x80
 8006c8a:	6878      	ldr	r0, [r7, #4]
 8006c8c:	f001 fa93 	bl	80081b6 <USBH_AllocPipe>
 8006c90:	4603      	mov	r3, r0
 8006c92:	461a      	mov	r2, r3
 8006c94:	687b      	ldr	r3, [r7, #4]
 8006c96:	711a      	strb	r2, [r3, #4]
 8006c98:	687b      	ldr	r3, [r7, #4]
 8006c9a:	7919      	ldrb	r1, [r3, #4]
 8006c9c:	687b      	ldr	r3, [r7, #4]
 8006c9e:	f893 031c 	ldrb.w	r0, [r3, #796]	@ 0x31c
 8006ca2:	687b      	ldr	r3, [r7, #4]
 8006ca4:	f893 331d 	ldrb.w	r3, [r3, #797]	@ 0x31d
 8006ca8:	687a      	ldr	r2, [r7, #4]
 8006caa:	7992      	ldrb	r2, [r2, #6]
 8006cac:	9202      	str	r2, [sp, #8]
 8006cae:	2200      	movs	r2, #0
 8006cb0:	9201      	str	r2, [sp, #4]
 8006cb2:	9300      	str	r3, [sp, #0]
 8006cb4:	4603      	mov	r3, r0
 8006cb6:	2280      	movs	r2, #128	@ 0x80
 8006cb8:	6878      	ldr	r0, [r7, #4]
 8006cba:	f001 fa4d 	bl	8008158 <USBH_OpenPipe>
 8006cbe:	687b      	ldr	r3, [r7, #4]
 8006cc0:	7959      	ldrb	r1, [r3, #5]
 8006cc2:	687b      	ldr	r3, [r7, #4]
 8006cc4:	f893 031c 	ldrb.w	r0, [r3, #796]	@ 0x31c
 8006cc8:	687b      	ldr	r3, [r7, #4]
 8006cca:	f893 331d 	ldrb.w	r3, [r3, #797]	@ 0x31d
 8006cce:	687a      	ldr	r2, [r7, #4]
 8006cd0:	7992      	ldrb	r2, [r2, #6]
 8006cd2:	9202      	str	r2, [sp, #8]
 8006cd4:	2200      	movs	r2, #0
 8006cd6:	9201      	str	r2, [sp, #4]
 8006cd8:	9300      	str	r3, [sp, #0]
 8006cda:	4603      	mov	r3, r0
 8006cdc:	2200      	movs	r2, #0
 8006cde:	6878      	ldr	r0, [r7, #4]
 8006ce0:	f001 fa3a 	bl	8008158 <USBH_OpenPipe>
 8006ce4:	e113      	b.n	8006f0e <USBH_Process+0x3c6>
 8006ce6:	6878      	ldr	r0, [r7, #4]
 8006ce8:	f000 f916 	bl	8006f18 <USBH_HandleEnum>
 8006cec:	4603      	mov	r3, r0
 8006cee:	73bb      	strb	r3, [r7, #14]
 8006cf0:	7bbb      	ldrb	r3, [r7, #14]
 8006cf2:	b2db      	uxtb	r3, r3
 8006cf4:	2b00      	cmp	r3, #0
 8006cf6:	f040 80fd 	bne.w	8006ef4 <USBH_Process+0x3ac>
 8006cfa:	687b      	ldr	r3, [r7, #4]
 8006cfc:	2200      	movs	r2, #0
 8006cfe:	f883 2324 	strb.w	r2, [r3, #804]	@ 0x324
 8006d02:	687b      	ldr	r3, [r7, #4]
 8006d04:	f893 3337 	ldrb.w	r3, [r3, #823]	@ 0x337
 8006d08:	2b01      	cmp	r3, #1
 8006d0a:	d103      	bne.n	8006d14 <USBH_Process+0x1cc>
 8006d0c:	687b      	ldr	r3, [r7, #4]
 8006d0e:	2208      	movs	r2, #8
 8006d10:	701a      	strb	r2, [r3, #0]
 8006d12:	e0ef      	b.n	8006ef4 <USBH_Process+0x3ac>
 8006d14:	687b      	ldr	r3, [r7, #4]
 8006d16:	2207      	movs	r2, #7
 8006d18:	701a      	strb	r2, [r3, #0]
 8006d1a:	e0eb      	b.n	8006ef4 <USBH_Process+0x3ac>
 8006d1c:	687b      	ldr	r3, [r7, #4]
 8006d1e:	f8d3 33d4 	ldr.w	r3, [r3, #980]	@ 0x3d4
 8006d22:	2b00      	cmp	r3, #0
 8006d24:	f000 80e8 	beq.w	8006ef8 <USBH_Process+0x3b0>
 8006d28:	687b      	ldr	r3, [r7, #4]
 8006d2a:	f8d3 33d4 	ldr.w	r3, [r3, #980]	@ 0x3d4
 8006d2e:	2101      	movs	r1, #1
 8006d30:	6878      	ldr	r0, [r7, #4]
 8006d32:	4798      	blx	r3
 8006d34:	687b      	ldr	r3, [r7, #4]
 8006d36:	2208      	movs	r2, #8
 8006d38:	701a      	strb	r2, [r3, #0]
 8006d3a:	e0dd      	b.n	8006ef8 <USBH_Process+0x3b0>
 8006d3c:	687b      	ldr	r3, [r7, #4]
 8006d3e:	f893 333d 	ldrb.w	r3, [r3, #829]	@ 0x33d
 8006d42:	4619      	mov	r1, r3
 8006d44:	6878      	ldr	r0, [r7, #4]
 8006d46:	f000 fc3a 	bl	80075be <USBH_SetCfg>
 8006d4a:	4603      	mov	r3, r0
 8006d4c:	2b00      	cmp	r3, #0
 8006d4e:	f040 80d5 	bne.w	8006efc <USBH_Process+0x3b4>
 8006d52:	687b      	ldr	r3, [r7, #4]
 8006d54:	2209      	movs	r2, #9
 8006d56:	701a      	strb	r2, [r3, #0]
 8006d58:	e0d0      	b.n	8006efc <USBH_Process+0x3b4>
 8006d5a:	687b      	ldr	r3, [r7, #4]
 8006d5c:	f893 333f 	ldrb.w	r3, [r3, #831]	@ 0x33f
 8006d60:	f003 0320 	and.w	r3, r3, #32
 8006d64:	2b00      	cmp	r3, #0
 8006d66:	d016      	beq.n	8006d96 <USBH_Process+0x24e>
 8006d68:	2101      	movs	r1, #1
 8006d6a:	6878      	ldr	r0, [r7, #4]
 8006d6c:	f000 fc4a 	bl	8007604 <USBH_SetFeature>
 8006d70:	4603      	mov	r3, r0
 8006d72:	73bb      	strb	r3, [r7, #14]
 8006d74:	7bbb      	ldrb	r3, [r7, #14]
 8006d76:	b2db      	uxtb	r3, r3
 8006d78:	2b00      	cmp	r3, #0
 8006d7a:	d103      	bne.n	8006d84 <USBH_Process+0x23c>
 8006d7c:	687b      	ldr	r3, [r7, #4]
 8006d7e:	220a      	movs	r2, #10
 8006d80:	701a      	strb	r2, [r3, #0]
 8006d82:	e0bd      	b.n	8006f00 <USBH_Process+0x3b8>
 8006d84:	7bbb      	ldrb	r3, [r7, #14]
 8006d86:	b2db      	uxtb	r3, r3
 8006d88:	2b03      	cmp	r3, #3
 8006d8a:	f040 80b9 	bne.w	8006f00 <USBH_Process+0x3b8>
 8006d8e:	687b      	ldr	r3, [r7, #4]
 8006d90:	220a      	movs	r2, #10
 8006d92:	701a      	strb	r2, [r3, #0]
 8006d94:	e0b4      	b.n	8006f00 <USBH_Process+0x3b8>
 8006d96:	687b      	ldr	r3, [r7, #4]
 8006d98:	220a      	movs	r2, #10
 8006d9a:	701a      	strb	r2, [r3, #0]
 8006d9c:	e0b0      	b.n	8006f00 <USBH_Process+0x3b8>
 8006d9e:	687b      	ldr	r3, [r7, #4]
 8006da0:	f8d3 3380 	ldr.w	r3, [r3, #896]	@ 0x380
 8006da4:	2b00      	cmp	r3, #0
 8006da6:	f000 80ad 	beq.w	8006f04 <USBH_Process+0x3bc>
 8006daa:	687b      	ldr	r3, [r7, #4]
 8006dac:	2200      	movs	r2, #0
 8006dae:	f8c3 237c 	str.w	r2, [r3, #892]	@ 0x37c
 8006db2:	2300      	movs	r3, #0
 8006db4:	73fb      	strb	r3, [r7, #15]
 8006db6:	e016      	b.n	8006de6 <USBH_Process+0x29e>
 8006db8:	7bfa      	ldrb	r2, [r7, #15]
 8006dba:	687b      	ldr	r3, [r7, #4]
 8006dbc:	32de      	adds	r2, #222	@ 0xde
 8006dbe:	f853 3022 	ldr.w	r3, [r3, r2, lsl #2]
 8006dc2:	791a      	ldrb	r2, [r3, #4]
 8006dc4:	687b      	ldr	r3, [r7, #4]
 8006dc6:	f893 3347 	ldrb.w	r3, [r3, #839]	@ 0x347
 8006dca:	429a      	cmp	r2, r3
 8006dcc:	d108      	bne.n	8006de0 <USBH_Process+0x298>
 8006dce:	7bfa      	ldrb	r2, [r7, #15]
 8006dd0:	687b      	ldr	r3, [r7, #4]
 8006dd2:	32de      	adds	r2, #222	@ 0xde
 8006dd4:	f853 2022 	ldr.w	r2, [r3, r2, lsl #2]
 8006dd8:	687b      	ldr	r3, [r7, #4]
 8006dda:	f8c3 237c 	str.w	r2, [r3, #892]	@ 0x37c
 8006dde:	e005      	b.n	8006dec <USBH_Process+0x2a4>
 8006de0:	7bfb      	ldrb	r3, [r7, #15]
 8006de2:	3301      	adds	r3, #1
 8006de4:	73fb      	strb	r3, [r7, #15]
 8006de6:	7bfb      	ldrb	r3, [r7, #15]
 8006de8:	2b00      	cmp	r3, #0
 8006dea:	d0e5      	beq.n	8006db8 <USBH_Process+0x270>
 8006dec:	687b      	ldr	r3, [r7, #4]
 8006dee:	f8d3 337c 	ldr.w	r3, [r3, #892]	@ 0x37c
 8006df2:	2b00      	cmp	r3, #0
 8006df4:	d016      	beq.n	8006e24 <USBH_Process+0x2dc>
 8006df6:	687b      	ldr	r3, [r7, #4]
 8006df8:	f8d3 337c 	ldr.w	r3, [r3, #892]	@ 0x37c
 8006dfc:	689b      	ldr	r3, [r3, #8]
 8006dfe:	6878      	ldr	r0, [r7, #4]
 8006e00:	4798      	blx	r3
 8006e02:	4603      	mov	r3, r0
 8006e04:	2b00      	cmp	r3, #0
 8006e06:	d109      	bne.n	8006e1c <USBH_Process+0x2d4>
 8006e08:	687b      	ldr	r3, [r7, #4]
 8006e0a:	2206      	movs	r2, #6
 8006e0c:	701a      	strb	r2, [r3, #0]
 8006e0e:	687b      	ldr	r3, [r7, #4]
 8006e10:	f8d3 33d4 	ldr.w	r3, [r3, #980]	@ 0x3d4
 8006e14:	2103      	movs	r1, #3
 8006e16:	6878      	ldr	r0, [r7, #4]
 8006e18:	4798      	blx	r3
 8006e1a:	e073      	b.n	8006f04 <USBH_Process+0x3bc>
 8006e1c:	687b      	ldr	r3, [r7, #4]
 8006e1e:	220d      	movs	r2, #13
 8006e20:	701a      	strb	r2, [r3, #0]
 8006e22:	e06f      	b.n	8006f04 <USBH_Process+0x3bc>
 8006e24:	687b      	ldr	r3, [r7, #4]
 8006e26:	220d      	movs	r2, #13
 8006e28:	701a      	strb	r2, [r3, #0]
 8006e2a:	e06b      	b.n	8006f04 <USBH_Process+0x3bc>
 8006e2c:	687b      	ldr	r3, [r7, #4]
 8006e2e:	f8d3 337c 	ldr.w	r3, [r3, #892]	@ 0x37c
 8006e32:	2b00      	cmp	r3, #0
 8006e34:	d017      	beq.n	8006e66 <USBH_Process+0x31e>
 8006e36:	687b      	ldr	r3, [r7, #4]
 8006e38:	f8d3 337c 	ldr.w	r3, [r3, #892]	@ 0x37c
 8006e3c:	691b      	ldr	r3, [r3, #16]
 8006e3e:	6878      	ldr	r0, [r7, #4]
 8006e40:	4798      	blx	r3
 8006e42:	4603      	mov	r3, r0
 8006e44:	73bb      	strb	r3, [r7, #14]
 8006e46:	7bbb      	ldrb	r3, [r7, #14]
 8006e48:	b2db      	uxtb	r3, r3
 8006e4a:	2b00      	cmp	r3, #0
 8006e4c:	d103      	bne.n	8006e56 <USBH_Process+0x30e>
 8006e4e:	687b      	ldr	r3, [r7, #4]
 8006e50:	220b      	movs	r2, #11
 8006e52:	701a      	strb	r2, [r3, #0]
 8006e54:	e058      	b.n	8006f08 <USBH_Process+0x3c0>
 8006e56:	7bbb      	ldrb	r3, [r7, #14]
 8006e58:	b2db      	uxtb	r3, r3
 8006e5a:	2b02      	cmp	r3, #2
 8006e5c:	d154      	bne.n	8006f08 <USBH_Process+0x3c0>
 8006e5e:	687b      	ldr	r3, [r7, #4]
 8006e60:	220d      	movs	r2, #13
 8006e62:	701a      	strb	r2, [r3, #0]
 8006e64:	e050      	b.n	8006f08 <USBH_Process+0x3c0>
 8006e66:	687b      	ldr	r3, [r7, #4]
 8006e68:	220d      	movs	r2, #13
 8006e6a:	701a      	strb	r2, [r3, #0]
 8006e6c:	e04c      	b.n	8006f08 <USBH_Process+0x3c0>
 8006e6e:	687b      	ldr	r3, [r7, #4]
 8006e70:	f8d3 337c 	ldr.w	r3, [r3, #892]	@ 0x37c
 8006e74:	2b00      	cmp	r3, #0
 8006e76:	d049      	beq.n	8006f0c <USBH_Process+0x3c4>
 8006e78:	687b      	ldr	r3, [r7, #4]
 8006e7a:	f8d3 337c 	ldr.w	r3, [r3, #892]	@ 0x37c
 8006e7e:	695b      	ldr	r3, [r3, #20]
 8006e80:	6878      	ldr	r0, [r7, #4]
 8006e82:	4798      	blx	r3
 8006e84:	e042      	b.n	8006f0c <USBH_Process+0x3c4>
 8006e86:	687b      	ldr	r3, [r7, #4]
 8006e88:	2200      	movs	r2, #0
 8006e8a:	f883 2321 	strb.w	r2, [r3, #801]	@ 0x321
 8006e8e:	6878      	ldr	r0, [r7, #4]
 8006e90:	f7ff fd4a 	bl	8006928 <DeInitStateMachine>
 8006e94:	687b      	ldr	r3, [r7, #4]
 8006e96:	f8d3 337c 	ldr.w	r3, [r3, #892]	@ 0x37c
 8006e9a:	2b00      	cmp	r3, #0
 8006e9c:	d009      	beq.n	8006eb2 <USBH_Process+0x36a>
 8006e9e:	687b      	ldr	r3, [r7, #4]
 8006ea0:	f8d3 337c 	ldr.w	r3, [r3, #892]	@ 0x37c
 8006ea4:	68db      	ldr	r3, [r3, #12]
 8006ea6:	6878      	ldr	r0, [r7, #4]
 8006ea8:	4798      	blx	r3
 8006eaa:	687b      	ldr	r3, [r7, #4]
 8006eac:	2200      	movs	r2, #0
 8006eae:	f8c3 237c 	str.w	r2, [r3, #892]	@ 0x37c
 8006eb2:	687b      	ldr	r3, [r7, #4]
 8006eb4:	f8d3 33d4 	ldr.w	r3, [r3, #980]	@ 0x3d4
 8006eb8:	2b00      	cmp	r3, #0
 8006eba:	d005      	beq.n	8006ec8 <USBH_Process+0x380>
 8006ebc:	687b      	ldr	r3, [r7, #4]
 8006ebe:	f8d3 33d4 	ldr.w	r3, [r3, #980]	@ 0x3d4
 8006ec2:	2105      	movs	r1, #5
 8006ec4:	6878      	ldr	r0, [r7, #4]
 8006ec6:	4798      	blx	r3
 8006ec8:	687b      	ldr	r3, [r7, #4]
 8006eca:	f893 3322 	ldrb.w	r3, [r3, #802]	@ 0x322
 8006ece:	b2db      	uxtb	r3, r3
 8006ed0:	2b01      	cmp	r3, #1
 8006ed2:	d107      	bne.n	8006ee4 <USBH_Process+0x39c>
 8006ed4:	687b      	ldr	r3, [r7, #4]
 8006ed6:	2200      	movs	r2, #0
 8006ed8:	f883 2322 	strb.w	r2, [r3, #802]	@ 0x322
 8006edc:	6878      	ldr	r0, [r7, #4]
 8006ede:	f7ff fe22 	bl	8006b26 <USBH_Start>
 8006ee2:	e014      	b.n	8006f0e <USBH_Process+0x3c6>
 8006ee4:	6878      	ldr	r0, [r7, #4]
 8006ee6:	f001 fb19 	bl	800851c <USBH_LL_Start>
 8006eea:	e010      	b.n	8006f0e <USBH_Process+0x3c6>
 8006eec:	bf00      	nop
 8006eee:	e00e      	b.n	8006f0e <USBH_Process+0x3c6>
 8006ef0:	bf00      	nop
 8006ef2:	e00c      	b.n	8006f0e <USBH_Process+0x3c6>
 8006ef4:	bf00      	nop
 8006ef6:	e00a      	b.n	8006f0e <USBH_Process+0x3c6>
 8006ef8:	bf00      	nop
 8006efa:	e008      	b.n	8006f0e <USBH_Process+0x3c6>
 8006efc:	bf00      	nop
 8006efe:	e006      	b.n	8006f0e <USBH_Process+0x3c6>
 8006f00:	bf00      	nop
 8006f02:	e004      	b.n	8006f0e <USBH_Process+0x3c6>
 8006f04:	bf00      	nop
 8006f06:	e002      	b.n	8006f0e <USBH_Process+0x3c6>
 8006f08:	bf00      	nop
 8006f0a:	e000      	b.n	8006f0e <USBH_Process+0x3c6>
 8006f0c:	bf00      	nop
 8006f0e:	2300      	movs	r3, #0
 8006f10:	4618      	mov	r0, r3
 8006f12:	3710      	adds	r7, #16
 8006f14:	46bd      	mov	sp, r7
 8006f16:	bd80      	pop	{r7, pc}

08006f18 <USBH_HandleEnum>:
 8006f18:	b580      	push	{r7, lr}
 8006f1a:	b088      	sub	sp, #32
 8006f1c:	af04      	add	r7, sp, #16
 8006f1e:	6078      	str	r0, [r7, #4]
 8006f20:	2301      	movs	r3, #1
 8006f22:	73fb      	strb	r3, [r7, #15]
 8006f24:	2301      	movs	r3, #1
 8006f26:	73bb      	strb	r3, [r7, #14]
 8006f28:	687b      	ldr	r3, [r7, #4]
 8006f2a:	785b      	ldrb	r3, [r3, #1]
 8006f2c:	2b07      	cmp	r3, #7
 8006f2e:	f200 81bd 	bhi.w	80072ac <USBH_HandleEnum+0x394>
 8006f32:	a201      	add	r2, pc, #4	@ (adr r2, 8006f38 <USBH_HandleEnum+0x20>)
 8006f34:	f852 f023 	ldr.w	pc, [r2, r3, lsl #2]
 8006f38:	08006f59 	.word	0x08006f59
 8006f3c:	08007013 	.word	0x08007013
 8006f40:	0800707d 	.word	0x0800707d
 8006f44:	08007107 	.word	0x08007107
 8006f48:	08007171 	.word	0x08007171
 8006f4c:	080071e1 	.word	0x080071e1
 8006f50:	08007227 	.word	0x08007227
 8006f54:	0800726d 	.word	0x0800726d
 8006f58:	2108      	movs	r1, #8
 8006f5a:	6878      	ldr	r0, [r7, #4]
 8006f5c:	f000 fa4c 	bl	80073f8 <USBH_Get_DevDesc>
 8006f60:	4603      	mov	r3, r0
 8006f62:	73bb      	strb	r3, [r7, #14]
 8006f64:	7bbb      	ldrb	r3, [r7, #14]
 8006f66:	2b00      	cmp	r3, #0
 8006f68:	d12e      	bne.n	8006fc8 <USBH_HandleEnum+0xb0>
 8006f6a:	687b      	ldr	r3, [r7, #4]
 8006f6c:	f893 232d 	ldrb.w	r2, [r3, #813]	@ 0x32d
 8006f70:	687b      	ldr	r3, [r7, #4]
 8006f72:	719a      	strb	r2, [r3, #6]
 8006f74:	687b      	ldr	r3, [r7, #4]
 8006f76:	2201      	movs	r2, #1
 8006f78:	705a      	strb	r2, [r3, #1]
 8006f7a:	687b      	ldr	r3, [r7, #4]
 8006f7c:	7919      	ldrb	r1, [r3, #4]
 8006f7e:	687b      	ldr	r3, [r7, #4]
 8006f80:	f893 031c 	ldrb.w	r0, [r3, #796]	@ 0x31c
 8006f84:	687b      	ldr	r3, [r7, #4]
 8006f86:	f893 331d 	ldrb.w	r3, [r3, #797]	@ 0x31d
 8006f8a:	687a      	ldr	r2, [r7, #4]
 8006f8c:	7992      	ldrb	r2, [r2, #6]
 8006f8e:	9202      	str	r2, [sp, #8]
 8006f90:	2200      	movs	r2, #0
 8006f92:	9201      	str	r2, [sp, #4]
 8006f94:	9300      	str	r3, [sp, #0]
 8006f96:	4603      	mov	r3, r0
 8006f98:	2280      	movs	r2, #128	@ 0x80
 8006f9a:	6878      	ldr	r0, [r7, #4]
 8006f9c:	f001 f8dc 	bl	8008158 <USBH_OpenPipe>
 8006fa0:	687b      	ldr	r3, [r7, #4]
 8006fa2:	7959      	ldrb	r1, [r3, #5]
 8006fa4:	687b      	ldr	r3, [r7, #4]
 8006fa6:	f893 031c 	ldrb.w	r0, [r3, #796]	@ 0x31c
 8006faa:	687b      	ldr	r3, [r7, #4]
 8006fac:	f893 331d 	ldrb.w	r3, [r3, #797]	@ 0x31d
 8006fb0:	687a      	ldr	r2, [r7, #4]
 8006fb2:	7992      	ldrb	r2, [r2, #6]
 8006fb4:	9202      	str	r2, [sp, #8]
 8006fb6:	2200      	movs	r2, #0
 8006fb8:	9201      	str	r2, [sp, #4]
 8006fba:	9300      	str	r3, [sp, #0]
 8006fbc:	4603      	mov	r3, r0
 8006fbe:	2200      	movs	r2, #0
 8006fc0:	6878      	ldr	r0, [r7, #4]
 8006fc2:	f001 f8c9 	bl	8008158 <USBH_OpenPipe>
 8006fc6:	e173      	b.n	80072b0 <USBH_HandleEnum+0x398>
 8006fc8:	7bbb      	ldrb	r3, [r7, #14]
 8006fca:	2b03      	cmp	r3, #3
 8006fcc:	f040 8170 	bne.w	80072b0 <USBH_HandleEnum+0x398>
 8006fd0:	687b      	ldr	r3, [r7, #4]
 8006fd2:	f893 331e 	ldrb.w	r3, [r3, #798]	@ 0x31e
 8006fd6:	3301      	adds	r3, #1
 8006fd8:	b2da      	uxtb	r2, r3
 8006fda:	687b      	ldr	r3, [r7, #4]
 8006fdc:	f883 231e 	strb.w	r2, [r3, #798]	@ 0x31e
 8006fe0:	687b      	ldr	r3, [r7, #4]
 8006fe2:	f893 331e 	ldrb.w	r3, [r3, #798]	@ 0x31e
 8006fe6:	2b03      	cmp	r3, #3
 8006fe8:	d903      	bls.n	8006ff2 <USBH_HandleEnum+0xda>
 8006fea:	687b      	ldr	r3, [r7, #4]
 8006fec:	220d      	movs	r2, #13
 8006fee:	701a      	strb	r2, [r3, #0]
 8006ff0:	e15e      	b.n	80072b0 <USBH_HandleEnum+0x398>
 8006ff2:	687b      	ldr	r3, [r7, #4]
 8006ff4:	795b      	ldrb	r3, [r3, #5]
 8006ff6:	4619      	mov	r1, r3
 8006ff8:	6878      	ldr	r0, [r7, #4]
 8006ffa:	f001 f8fd 	bl	80081f8 <USBH_FreePipe>
 8006ffe:	687b      	ldr	r3, [r7, #4]
 8007000:	791b      	ldrb	r3, [r3, #4]
 8007002:	4619      	mov	r1, r3
 8007004:	6878      	ldr	r0, [r7, #4]
 8007006:	f001 f8f7 	bl	80081f8 <USBH_FreePipe>
 800700a:	687b      	ldr	r3, [r7, #4]
 800700c:	2200      	movs	r2, #0
 800700e:	701a      	strb	r2, [r3, #0]
 8007010:	e14e      	b.n	80072b0 <USBH_HandleEnum+0x398>
 8007012:	2112      	movs	r1, #18
 8007014:	6878      	ldr	r0, [r7, #4]
 8007016:	f000 f9ef 	bl	80073f8 <USBH_Get_DevDesc>
 800701a:	4603      	mov	r3, r0
 800701c:	73bb      	strb	r3, [r7, #14]
 800701e:	7bbb      	ldrb	r3, [r7, #14]
 8007020:	2b00      	cmp	r3, #0
 8007022:	d103      	bne.n	800702c <USBH_HandleEnum+0x114>
 8007024:	687b      	ldr	r3, [r7, #4]
 8007026:	2202      	movs	r2, #2
 8007028:	705a      	strb	r2, [r3, #1]
 800702a:	e143      	b.n	80072b4 <USBH_HandleEnum+0x39c>
 800702c:	7bbb      	ldrb	r3, [r7, #14]
 800702e:	2b03      	cmp	r3, #3
 8007030:	f040 8140 	bne.w	80072b4 <USBH_HandleEnum+0x39c>
 8007034:	687b      	ldr	r3, [r7, #4]
 8007036:	f893 331e 	ldrb.w	r3, [r3, #798]	@ 0x31e
 800703a:	3301      	adds	r3, #1
 800703c:	b2da      	uxtb	r2, r3
 800703e:	687b      	ldr	r3, [r7, #4]
 8007040:	f883 231e 	strb.w	r2, [r3, #798]	@ 0x31e
 8007044:	687b      	ldr	r3, [r7, #4]
 8007046:	f893 331e 	ldrb.w	r3, [r3, #798]	@ 0x31e
 800704a:	2b03      	cmp	r3, #3
 800704c:	d903      	bls.n	8007056 <USBH_HandleEnum+0x13e>
 800704e:	687b      	ldr	r3, [r7, #4]
 8007050:	220d      	movs	r2, #13
 8007052:	701a      	strb	r2, [r3, #0]
 8007054:	e12e      	b.n	80072b4 <USBH_HandleEnum+0x39c>
 8007056:	687b      	ldr	r3, [r7, #4]
 8007058:	795b      	ldrb	r3, [r3, #5]
 800705a:	4619      	mov	r1, r3
 800705c:	6878      	ldr	r0, [r7, #4]
 800705e:	f001 f8cb 	bl	80081f8 <USBH_FreePipe>
 8007062:	687b      	ldr	r3, [r7, #4]
 8007064:	791b      	ldrb	r3, [r3, #4]
 8007066:	4619      	mov	r1, r3
 8007068:	6878      	ldr	r0, [r7, #4]
 800706a:	f001 f8c5 	bl	80081f8 <USBH_FreePipe>
 800706e:	687b      	ldr	r3, [r7, #4]
 8007070:	2200      	movs	r2, #0
 8007072:	705a      	strb	r2, [r3, #1]
 8007074:	687b      	ldr	r3, [r7, #4]
 8007076:	2200      	movs	r2, #0
 8007078:	701a      	strb	r2, [r3, #0]
 800707a:	e11b      	b.n	80072b4 <USBH_HandleEnum+0x39c>
 800707c:	2101      	movs	r1, #1
 800707e:	6878      	ldr	r0, [r7, #4]
 8007080:	f000 fa79 	bl	8007576 <USBH_SetAddress>
 8007084:	4603      	mov	r3, r0
 8007086:	73bb      	strb	r3, [r7, #14]
 8007088:	7bbb      	ldrb	r3, [r7, #14]
 800708a:	2b00      	cmp	r3, #0
 800708c:	d130      	bne.n	80070f0 <USBH_HandleEnum+0x1d8>
 800708e:	2002      	movs	r0, #2
 8007090:	f001 fbab 	bl	80087ea <USBH_Delay>
 8007094:	687b      	ldr	r3, [r7, #4]
 8007096:	2201      	movs	r2, #1
 8007098:	f883 231c 	strb.w	r2, [r3, #796]	@ 0x31c
 800709c:	687b      	ldr	r3, [r7, #4]
 800709e:	2203      	movs	r2, #3
 80070a0:	705a      	strb	r2, [r3, #1]
 80070a2:	687b      	ldr	r3, [r7, #4]
 80070a4:	7919      	ldrb	r1, [r3, #4]
 80070a6:	687b      	ldr	r3, [r7, #4]
 80070a8:	f893 031c 	ldrb.w	r0, [r3, #796]	@ 0x31c
 80070ac:	687b      	ldr	r3, [r7, #4]
 80070ae:	f893 331d 	ldrb.w	r3, [r3, #797]	@ 0x31d
 80070b2:	687a      	ldr	r2, [r7, #4]
 80070b4:	7992      	ldrb	r2, [r2, #6]
 80070b6:	9202      	str	r2, [sp, #8]
 80070b8:	2200      	movs	r2, #0
 80070ba:	9201      	str	r2, [sp, #4]
 80070bc:	9300      	str	r3, [sp, #0]
 80070be:	4603      	mov	r3, r0
 80070c0:	2280      	movs	r2, #128	@ 0x80
 80070c2:	6878      	ldr	r0, [r7, #4]
 80070c4:	f001 f848 	bl	8008158 <USBH_OpenPipe>
 80070c8:	687b      	ldr	r3, [r7, #4]
 80070ca:	7959      	ldrb	r1, [r3, #5]
 80070cc:	687b      	ldr	r3, [r7, #4]
 80070ce:	f893 031c 	ldrb.w	r0, [r3, #796]	@ 0x31c
 80070d2:	687b      	ldr	r3, [r7, #4]
 80070d4:	f893 331d 	ldrb.w	r3, [r3, #797]	@ 0x31d
 80070d8:	687a      	ldr	r2, [r7, #4]
 80070da:	7992      	ldrb	r2, [r2, #6]
 80070dc:	9202      	str	r2, [sp, #8]
 80070de:	2200      	movs	r2, #0
 80070e0:	9201      	str	r2, [sp, #4]
 80070e2:	9300      	str	r3, [sp, #0]
 80070e4:	4603      	mov	r3, r0
 80070e6:	2200      	movs	r2, #0
 80070e8:	6878      	ldr	r0, [r7, #4]
 80070ea:	f001 f835 	bl	8008158 <USBH_OpenPipe>
 80070ee:	e0e3      	b.n	80072b8 <USBH_HandleEnum+0x3a0>
 80070f0:	7bbb      	ldrb	r3, [r7, #14]
 80070f2:	2b03      	cmp	r3, #3
 80070f4:	f040 80e0 	bne.w	80072b8 <USBH_HandleEnum+0x3a0>
 80070f8:	687b      	ldr	r3, [r7, #4]
 80070fa:	220d      	movs	r2, #13
 80070fc:	701a      	strb	r2, [r3, #0]
 80070fe:	687b      	ldr	r3, [r7, #4]
 8007100:	2200      	movs	r2, #0
 8007102:	705a      	strb	r2, [r3, #1]
 8007104:	e0d8      	b.n	80072b8 <USBH_HandleEnum+0x3a0>
 8007106:	2109      	movs	r1, #9
 8007108:	6878      	ldr	r0, [r7, #4]
 800710a:	f000 f9a1 	bl	8007450 <USBH_Get_CfgDesc>
 800710e:	4603      	mov	r3, r0
 8007110:	73bb      	strb	r3, [r7, #14]
 8007112:	7bbb      	ldrb	r3, [r7, #14]
 8007114:	2b00      	cmp	r3, #0
 8007116:	d103      	bne.n	8007120 <USBH_HandleEnum+0x208>
 8007118:	687b      	ldr	r3, [r7, #4]
 800711a:	2204      	movs	r2, #4
 800711c:	705a      	strb	r2, [r3, #1]
 800711e:	e0cd      	b.n	80072bc <USBH_HandleEnum+0x3a4>
 8007120:	7bbb      	ldrb	r3, [r7, #14]
 8007122:	2b03      	cmp	r3, #3
 8007124:	f040 80ca 	bne.w	80072bc <USBH_HandleEnum+0x3a4>
 8007128:	687b      	ldr	r3, [r7, #4]
 800712a:	f893 331e 	ldrb.w	r3, [r3, #798]	@ 0x31e
 800712e:	3301      	adds	r3, #1
 8007130:	b2da      	uxtb	r2, r3
 8007132:	687b      	ldr	r3, [r7, #4]
 8007134:	f883 231e 	strb.w	r2, [r3, #798]	@ 0x31e
 8007138:	687b      	ldr	r3, [r7, #4]
 800713a:	f893 331e 	ldrb.w	r3, [r3, #798]	@ 0x31e
 800713e:	2b03      	cmp	r3, #3
 8007140:	d903      	bls.n	800714a <USBH_HandleEnum+0x232>
 8007142:	687b      	ldr	r3, [r7, #4]
 8007144:	220d      	movs	r2, #13
 8007146:	701a      	strb	r2, [r3, #0]
 8007148:	e0b8      	b.n	80072bc <USBH_HandleEnum+0x3a4>
 800714a:	687b      	ldr	r3, [r7, #4]
 800714c:	795b      	ldrb	r3, [r3, #5]
 800714e:	4619      	mov	r1, r3
 8007150:	6878      	ldr	r0, [r7, #4]
 8007152:	f001 f851 	bl	80081f8 <USBH_FreePipe>
 8007156:	687b      	ldr	r3, [r7, #4]
 8007158:	791b      	ldrb	r3, [r3, #4]
 800715a:	4619      	mov	r1, r3
 800715c:	6878      	ldr	r0, [r7, #4]
 800715e:	f001 f84b 	bl	80081f8 <USBH_FreePipe>
 8007162:	687b      	ldr	r3, [r7, #4]
 8007164:	2200      	movs	r2, #0
 8007166:	705a      	strb	r2, [r3, #1]
 8007168:	687b      	ldr	r3, [r7, #4]
 800716a:	2200      	movs	r2, #0
 800716c:	701a      	strb	r2, [r3, #0]
 800716e:	e0a5      	b.n	80072bc <USBH_HandleEnum+0x3a4>
 8007170:	687b      	ldr	r3, [r7, #4]
 8007172:	f8b3 333a 	ldrh.w	r3, [r3, #826]	@ 0x33a
 8007176:	4619      	mov	r1, r3
 8007178:	6878      	ldr	r0, [r7, #4]
 800717a:	f000 f969 	bl	8007450 <USBH_Get_CfgDesc>
 800717e:	4603      	mov	r3, r0
 8007180:	73bb      	strb	r3, [r7, #14]
 8007182:	7bbb      	ldrb	r3, [r7, #14]
 8007184:	2b00      	cmp	r3, #0
 8007186:	d103      	bne.n	8007190 <USBH_HandleEnum+0x278>
 8007188:	687b      	ldr	r3, [r7, #4]
 800718a:	2205      	movs	r2, #5
 800718c:	705a      	strb	r2, [r3, #1]
 800718e:	e097      	b.n	80072c0 <USBH_HandleEnum+0x3a8>
 8007190:	7bbb      	ldrb	r3, [r7, #14]
 8007192:	2b03      	cmp	r3, #3
 8007194:	f040 8094 	bne.w	80072c0 <USBH_HandleEnum+0x3a8>
 8007198:	687b      	ldr	r3, [r7, #4]
 800719a:	f893 331e 	ldrb.w	r3, [r3, #798]	@ 0x31e
 800719e:	3301      	adds	r3, #1
 80071a0:	b2da      	uxtb	r2, r3
 80071a2:	687b      	ldr	r3, [r7, #4]
 80071a4:	f883 231e 	strb.w	r2, [r3, #798]	@ 0x31e
 80071a8:	687b      	ldr	r3, [r7, #4]
 80071aa:	f893 331e 	ldrb.w	r3, [r3, #798]	@ 0x31e
 80071ae:	2b03      	cmp	r3, #3
 80071b0:	d903      	bls.n	80071ba <USBH_HandleEnum+0x2a2>
 80071b2:	687b      	ldr	r3, [r7, #4]
 80071b4:	220d      	movs	r2, #13
 80071b6:	701a      	strb	r2, [r3, #0]
 80071b8:	e082      	b.n	80072c0 <USBH_HandleEnum+0x3a8>
 80071ba:	687b      	ldr	r3, [r7, #4]
 80071bc:	795b      	ldrb	r3, [r3, #5]
 80071be:	4619      	mov	r1, r3
 80071c0:	6878      	ldr	r0, [r7, #4]
 80071c2:	f001 f819 	bl	80081f8 <USBH_FreePipe>
 80071c6:	687b      	ldr	r3, [r7, #4]
 80071c8:	791b      	ldrb	r3, [r3, #4]
 80071ca:	4619      	mov	r1, r3
 80071cc:	6878      	ldr	r0, [r7, #4]
 80071ce:	f001 f813 	bl	80081f8 <USBH_FreePipe>
 80071d2:	687b      	ldr	r3, [r7, #4]
 80071d4:	2200      	movs	r2, #0
 80071d6:	705a      	strb	r2, [r3, #1]
 80071d8:	687b      	ldr	r3, [r7, #4]
 80071da:	2200      	movs	r2, #0
 80071dc:	701a      	strb	r2, [r3, #0]
 80071de:	e06f      	b.n	80072c0 <USBH_HandleEnum+0x3a8>
 80071e0:	687b      	ldr	r3, [r7, #4]
 80071e2:	f893 3334 	ldrb.w	r3, [r3, #820]	@ 0x334
 80071e6:	2b00      	cmp	r3, #0
 80071e8:	d019      	beq.n	800721e <USBH_HandleEnum+0x306>
 80071ea:	687b      	ldr	r3, [r7, #4]
 80071ec:	f893 1334 	ldrb.w	r1, [r3, #820]	@ 0x334
 80071f0:	687b      	ldr	r3, [r7, #4]
 80071f2:	f503 728e 	add.w	r2, r3, #284	@ 0x11c
 80071f6:	23ff      	movs	r3, #255	@ 0xff
 80071f8:	6878      	ldr	r0, [r7, #4]
 80071fa:	f000 f953 	bl	80074a4 <USBH_Get_StringDesc>
 80071fe:	4603      	mov	r3, r0
 8007200:	73bb      	strb	r3, [r7, #14]
 8007202:	7bbb      	ldrb	r3, [r7, #14]
 8007204:	2b00      	cmp	r3, #0
 8007206:	d103      	bne.n	8007210 <USBH_HandleEnum+0x2f8>
 8007208:	687b      	ldr	r3, [r7, #4]
 800720a:	2206      	movs	r2, #6
 800720c:	705a      	strb	r2, [r3, #1]
 800720e:	e059      	b.n	80072c4 <USBH_HandleEnum+0x3ac>
 8007210:	7bbb      	ldrb	r3, [r7, #14]
 8007212:	2b03      	cmp	r3, #3
 8007214:	d156      	bne.n	80072c4 <USBH_HandleEnum+0x3ac>
 8007216:	687b      	ldr	r3, [r7, #4]
 8007218:	2206      	movs	r2, #6
 800721a:	705a      	strb	r2, [r3, #1]
 800721c:	e052      	b.n	80072c4 <USBH_HandleEnum+0x3ac>
 800721e:	687b      	ldr	r3, [r7, #4]
 8007220:	2206      	movs	r2, #6
 8007222:	705a      	strb	r2, [r3, #1]
 8007224:	e04e      	b.n	80072c4 <USBH_HandleEnum+0x3ac>
 8007226:	687b      	ldr	r3, [r7, #4]
 8007228:	f893 3335 	ldrb.w	r3, [r3, #821]	@ 0x335
 800722c:	2b00      	cmp	r3, #0
 800722e:	d019      	beq.n	8007264 <USBH_HandleEnum+0x34c>
 8007230:	687b      	ldr	r3, [r7, #4]
 8007232:	f893 1335 	ldrb.w	r1, [r3, #821]	@ 0x335
 8007236:	687b      	ldr	r3, [r7, #4]
 8007238:	f503 728e 	add.w	r2, r3, #284	@ 0x11c
 800723c:	23ff      	movs	r3, #255	@ 0xff
 800723e:	6878      	ldr	r0, [r7, #4]
 8007240:	f000 f930 	bl	80074a4 <USBH_Get_StringDesc>
 8007244:	4603      	mov	r3, r0
 8007246:	73bb      	strb	r3, [r7, #14]
 8007248:	7bbb      	ldrb	r3, [r7, #14]
 800724a:	2b00      	cmp	r3, #0
 800724c:	d103      	bne.n	8007256 <USBH_HandleEnum+0x33e>
 800724e:	687b      	ldr	r3, [r7, #4]
 8007250:	2207      	movs	r2, #7
 8007252:	705a      	strb	r2, [r3, #1]
 8007254:	e038      	b.n	80072c8 <USBH_HandleEnum+0x3b0>
 8007256:	7bbb      	ldrb	r3, [r7, #14]
 8007258:	2b03      	cmp	r3, #3
 800725a:	d135      	bne.n	80072c8 <USBH_HandleEnum+0x3b0>
 800725c:	687b      	ldr	r3, [r7, #4]
 800725e:	2207      	movs	r2, #7
 8007260:	705a      	strb	r2, [r3, #1]
 8007262:	e031      	b.n	80072c8 <USBH_HandleEnum+0x3b0>
 8007264:	687b      	ldr	r3, [r7, #4]
 8007266:	2207      	movs	r2, #7
 8007268:	705a      	strb	r2, [r3, #1]
 800726a:	e02d      	b.n	80072c8 <USBH_HandleEnum+0x3b0>
 800726c:	687b      	ldr	r3, [r7, #4]
 800726e:	f893 3336 	ldrb.w	r3, [r3, #822]	@ 0x336
 8007272:	2b00      	cmp	r3, #0
 8007274:	d017      	beq.n	80072a6 <USBH_HandleEnum+0x38e>
 8007276:	687b      	ldr	r3, [r7, #4]
 8007278:	f893 1336 	ldrb.w	r1, [r3, #822]	@ 0x336
 800727c:	687b      	ldr	r3, [r7, #4]
 800727e:	f503 728e 	add.w	r2, r3, #284	@ 0x11c
 8007282:	23ff      	movs	r3, #255	@ 0xff
 8007284:	6878      	ldr	r0, [r7, #4]
 8007286:	f000 f90d 	bl	80074a4 <USBH_Get_StringDesc>
 800728a:	4603      	mov	r3, r0
 800728c:	73bb      	strb	r3, [r7, #14]
 800728e:	7bbb      	ldrb	r3, [r7, #14]
 8007290:	2b00      	cmp	r3, #0
 8007292:	d102      	bne.n	800729a <USBH_HandleEnum+0x382>
 8007294:	2300      	movs	r3, #0
 8007296:	73fb      	strb	r3, [r7, #15]
 8007298:	e018      	b.n	80072cc <USBH_HandleEnum+0x3b4>
 800729a:	7bbb      	ldrb	r3, [r7, #14]
 800729c:	2b03      	cmp	r3, #3
 800729e:	d115      	bne.n	80072cc <USBH_HandleEnum+0x3b4>
 80072a0:	2300      	movs	r3, #0
 80072a2:	73fb      	strb	r3, [r7, #15]
 80072a4:	e012      	b.n	80072cc <USBH_HandleEnum+0x3b4>
 80072a6:	2300      	movs	r3, #0
 80072a8:	73fb      	strb	r3, [r7, #15]
 80072aa:	e00f      	b.n	80072cc <USBH_HandleEnum+0x3b4>
 80072ac:	bf00      	nop
 80072ae:	e00e      	b.n	80072ce <USBH_HandleEnum+0x3b6>
 80072b0:	bf00      	nop
 80072b2:	e00c      	b.n	80072ce <USBH_HandleEnum+0x3b6>
 80072b4:	bf00      	nop
 80072b6:	e00a      	b.n	80072ce <USBH_HandleEnum+0x3b6>
 80072b8:	bf00      	nop
 80072ba:	e008      	b.n	80072ce <USBH_HandleEnum+0x3b6>
 80072bc:	bf00      	nop
 80072be:	e006      	b.n	80072ce <USBH_HandleEnum+0x3b6>
 80072c0:	bf00      	nop
 80072c2:	e004      	b.n	80072ce <USBH_HandleEnum+0x3b6>
 80072c4:	bf00      	nop
 80072c6:	e002      	b.n	80072ce <USBH_HandleEnum+0x3b6>
 80072c8:	bf00      	nop
 80072ca:	e000      	b.n	80072ce <USBH_HandleEnum+0x3b6>
 80072cc:	bf00      	nop
 80072ce:	7bfb      	ldrb	r3, [r7, #15]
 80072d0:	4618      	mov	r0, r3
 80072d2:	3710      	adds	r7, #16
 80072d4:	46bd      	mov	sp, r7
 80072d6:	bd80      	pop	{r7, pc}

080072d8 <USBH_LL_SetTimer>:
 80072d8:	b480      	push	{r7}
 80072da:	b083      	sub	sp, #12
 80072dc:	af00      	add	r7, sp, #0
 80072de:	6078      	str	r0, [r7, #4]
 80072e0:	6039      	str	r1, [r7, #0]
 80072e2:	687b      	ldr	r3, [r7, #4]
 80072e4:	683a      	ldr	r2, [r7, #0]
 80072e6:	f8c3 23c4 	str.w	r2, [r3, #964]	@ 0x3c4
 80072ea:	bf00      	nop
 80072ec:	370c      	adds	r7, #12
 80072ee:	46bd      	mov	sp, r7
 80072f0:	f85d 7b04 	ldr.w	r7, [sp], #4
 80072f4:	4770      	bx	lr

080072f6 <USBH_LL_IncTimer>:
 80072f6:	b580      	push	{r7, lr}
 80072f8:	b082      	sub	sp, #8
 80072fa:	af00      	add	r7, sp, #0
 80072fc:	6078      	str	r0, [r7, #4]
 80072fe:	687b      	ldr	r3, [r7, #4]
 8007300:	f8d3 33c4 	ldr.w	r3, [r3, #964]	@ 0x3c4
 8007304:	1c5a      	adds	r2, r3, #1
 8007306:	687b      	ldr	r3, [r7, #4]
 8007308:	f8c3 23c4 	str.w	r2, [r3, #964]	@ 0x3c4
 800730c:	6878      	ldr	r0, [r7, #4]
 800730e:	f000 f804 	bl	800731a <USBH_HandleSof>
 8007312:	bf00      	nop
 8007314:	3708      	adds	r7, #8
 8007316:	46bd      	mov	sp, r7
 8007318:	bd80      	pop	{r7, pc}

0800731a <USBH_HandleSof>:
 800731a:	b580      	push	{r7, lr}
 800731c:	b082      	sub	sp, #8
 800731e:	af00      	add	r7, sp, #0
 8007320:	6078      	str	r0, [r7, #4]
 8007322:	687b      	ldr	r3, [r7, #4]
 8007324:	781b      	ldrb	r3, [r3, #0]
 8007326:	b2db      	uxtb	r3, r3
 8007328:	2b0b      	cmp	r3, #11
 800732a:	d10a      	bne.n	8007342 <USBH_HandleSof+0x28>
 800732c:	687b      	ldr	r3, [r7, #4]
 800732e:	f8d3 337c 	ldr.w	r3, [r3, #892]	@ 0x37c
 8007332:	2b00      	cmp	r3, #0
 8007334:	d005      	beq.n	8007342 <USBH_HandleSof+0x28>
 8007336:	687b      	ldr	r3, [r7, #4]
 8007338:	f8d3 337c 	ldr.w	r3, [r3, #892]	@ 0x37c
 800733c:	699b      	ldr	r3, [r3, #24]
 800733e:	6878      	ldr	r0, [r7, #4]
 8007340:	4798      	blx	r3
 8007342:	bf00      	nop
 8007344:	3708      	adds	r7, #8
 8007346:	46bd      	mov	sp, r7
 8007348:	bd80      	pop	{r7, pc}

0800734a <USBH_LL_PortEnabled>:
 800734a:	b480      	push	{r7}
 800734c:	b083      	sub	sp, #12
 800734e:	af00      	add	r7, sp, #0
 8007350:	6078      	str	r0, [r7, #4]
 8007352:	687b      	ldr	r3, [r7, #4]
 8007354:	2201      	movs	r2, #1
 8007356:	f883 2323 	strb.w	r2, [r3, #803]	@ 0x323
 800735a:	bf00      	nop
 800735c:	370c      	adds	r7, #12
 800735e:	46bd      	mov	sp, r7
 8007360:	f85d 7b04 	ldr.w	r7, [sp], #4
 8007364:	4770      	bx	lr

08007366 <USBH_LL_PortDisabled>:
 8007366:	b480      	push	{r7}
 8007368:	b083      	sub	sp, #12
 800736a:	af00      	add	r7, sp, #0
 800736c:	6078      	str	r0, [r7, #4]
 800736e:	687b      	ldr	r3, [r7, #4]
 8007370:	2200      	movs	r2, #0
 8007372:	f883 2323 	strb.w	r2, [r3, #803]	@ 0x323
 8007376:	bf00      	nop
 8007378:	370c      	adds	r7, #12
 800737a:	46bd      	mov	sp, r7
 800737c:	f85d 7b04 	ldr.w	r7, [sp], #4
 8007380:	4770      	bx	lr

08007382 <USBH_LL_Connect>:
 8007382:	b480      	push	{r7}
 8007384:	b083      	sub	sp, #12
 8007386:	af00      	add	r7, sp, #0
 8007388:	6078      	str	r0, [r7, #4]
 800738a:	687b      	ldr	r3, [r7, #4]
 800738c:	2201      	movs	r2, #1
 800738e:	f883 2320 	strb.w	r2, [r3, #800]	@ 0x320
 8007392:	687b      	ldr	r3, [r7, #4]
 8007394:	2200      	movs	r2, #0
 8007396:	f883 2321 	strb.w	r2, [r3, #801]	@ 0x321
 800739a:	687b      	ldr	r3, [r7, #4]
 800739c:	2200      	movs	r2, #0
 800739e:	f883 2322 	strb.w	r2, [r3, #802]	@ 0x322
 80073a2:	2300      	movs	r3, #0
 80073a4:	4618      	mov	r0, r3
 80073a6:	370c      	adds	r7, #12
 80073a8:	46bd      	mov	sp, r7
 80073aa:	f85d 7b04 	ldr.w	r7, [sp], #4
 80073ae:	4770      	bx	lr

080073b0 <USBH_LL_Disconnect>:
 80073b0:	b580      	push	{r7, lr}
 80073b2:	b082      	sub	sp, #8
 80073b4:	af00      	add	r7, sp, #0
 80073b6:	6078      	str	r0, [r7, #4]
 80073b8:	687b      	ldr	r3, [r7, #4]
 80073ba:	2201      	movs	r2, #1
 80073bc:	f883 2321 	strb.w	r2, [r3, #801]	@ 0x321
 80073c0:	687b      	ldr	r3, [r7, #4]
 80073c2:	2200      	movs	r2, #0
 80073c4:	f883 2320 	strb.w	r2, [r3, #800]	@ 0x320
 80073c8:	687b      	ldr	r3, [r7, #4]
 80073ca:	2200      	movs	r2, #0
 80073cc:	f883 2323 	strb.w	r2, [r3, #803]	@ 0x323
 80073d0:	6878      	ldr	r0, [r7, #4]
 80073d2:	f001 f8be 	bl	8008552 <USBH_LL_Stop>
 80073d6:	687b      	ldr	r3, [r7, #4]
 80073d8:	791b      	ldrb	r3, [r3, #4]
 80073da:	4619      	mov	r1, r3
 80073dc:	6878      	ldr	r0, [r7, #4]
 80073de:	f000 ff0b 	bl	80081f8 <USBH_FreePipe>
 80073e2:	687b      	ldr	r3, [r7, #4]
 80073e4:	795b      	ldrb	r3, [r3, #5]
 80073e6:	4619      	mov	r1, r3
 80073e8:	6878      	ldr	r0, [r7, #4]
 80073ea:	f000 ff05 	bl	80081f8 <USBH_FreePipe>
 80073ee:	2300      	movs	r3, #0
 80073f0:	4618      	mov	r0, r3
 80073f2:	3708      	adds	r7, #8
 80073f4:	46bd      	mov	sp, r7
 80073f6:	bd80      	pop	{r7, pc}

080073f8 <USBH_Get_DevDesc>:
 80073f8:	b580      	push	{r7, lr}
 80073fa:	b086      	sub	sp, #24
 80073fc:	af02      	add	r7, sp, #8
 80073fe:	6078      	str	r0, [r7, #4]
 8007400:	460b      	mov	r3, r1
 8007402:	807b      	strh	r3, [r7, #2]
 8007404:	887b      	ldrh	r3, [r7, #2]
 8007406:	f5b3 7f00 	cmp.w	r3, #512	@ 0x200
 800740a:	d901      	bls.n	8007410 <USBH_Get_DevDesc+0x18>
 800740c:	2303      	movs	r3, #3
 800740e:	e01b      	b.n	8007448 <USBH_Get_DevDesc+0x50>
 8007410:	687b      	ldr	r3, [r7, #4]
 8007412:	f503 728e 	add.w	r2, r3, #284	@ 0x11c
 8007416:	887b      	ldrh	r3, [r7, #2]
 8007418:	9300      	str	r3, [sp, #0]
 800741a:	4613      	mov	r3, r2
 800741c:	f44f 7280 	mov.w	r2, #256	@ 0x100
 8007420:	2100      	movs	r1, #0
 8007422:	6878      	ldr	r0, [r7, #4]
 8007424:	f000 f872 	bl	800750c <USBH_GetDescriptor>
 8007428:	4603      	mov	r3, r0
 800742a:	73fb      	strb	r3, [r7, #15]
 800742c:	7bfb      	ldrb	r3, [r7, #15]
 800742e:	2b00      	cmp	r3, #0
 8007430:	d109      	bne.n	8007446 <USBH_Get_DevDesc+0x4e>
 8007432:	687b      	ldr	r3, [r7, #4]
 8007434:	f503 738e 	add.w	r3, r3, #284	@ 0x11c
 8007438:	887a      	ldrh	r2, [r7, #2]
 800743a:	4619      	mov	r1, r3
 800743c:	6878      	ldr	r0, [r7, #4]
 800743e:	f000 f929 	bl	8007694 <USBH_ParseDevDesc>
 8007442:	4603      	mov	r3, r0
 8007444:	73fb      	strb	r3, [r7, #15]
 8007446:	7bfb      	ldrb	r3, [r7, #15]
 8007448:	4618      	mov	r0, r3
 800744a:	3710      	adds	r7, #16
 800744c:	46bd      	mov	sp, r7
 800744e:	bd80      	pop	{r7, pc}

08007450 <USBH_Get_CfgDesc>:
 8007450:	b580      	push	{r7, lr}
 8007452:	b086      	sub	sp, #24
 8007454:	af02      	add	r7, sp, #8
 8007456:	6078      	str	r0, [r7, #4]
 8007458:	460b      	mov	r3, r1
 800745a:	807b      	strh	r3, [r7, #2]
 800745c:	687b      	ldr	r3, [r7, #4]
 800745e:	331c      	adds	r3, #28
 8007460:	60bb      	str	r3, [r7, #8]
 8007462:	887b      	ldrh	r3, [r7, #2]
 8007464:	f5b3 7f80 	cmp.w	r3, #256	@ 0x100
 8007468:	d901      	bls.n	800746e <USBH_Get_CfgDesc+0x1e>
 800746a:	2303      	movs	r3, #3
 800746c:	e016      	b.n	800749c <USBH_Get_CfgDesc+0x4c>
 800746e:	887b      	ldrh	r3, [r7, #2]
 8007470:	9300      	str	r3, [sp, #0]
 8007472:	68bb      	ldr	r3, [r7, #8]
 8007474:	f44f 7200 	mov.w	r2, #512	@ 0x200
 8007478:	2100      	movs	r1, #0
 800747a:	6878      	ldr	r0, [r7, #4]
 800747c:	f000 f846 	bl	800750c <USBH_GetDescriptor>
 8007480:	4603      	mov	r3, r0
 8007482:	73fb      	strb	r3, [r7, #15]
 8007484:	7bfb      	ldrb	r3, [r7, #15]
 8007486:	2b00      	cmp	r3, #0
 8007488:	d107      	bne.n	800749a <USBH_Get_CfgDesc+0x4a>
 800748a:	887b      	ldrh	r3, [r7, #2]
 800748c:	461a      	mov	r2, r3
 800748e:	68b9      	ldr	r1, [r7, #8]
 8007490:	6878      	ldr	r0, [r7, #4]
 8007492:	f000 f9af 	bl	80077f4 <USBH_ParseCfgDesc>
 8007496:	4603      	mov	r3, r0
 8007498:	73fb      	strb	r3, [r7, #15]
 800749a:	7bfb      	ldrb	r3, [r7, #15]
 800749c:	4618      	mov	r0, r3
 800749e:	3710      	adds	r7, #16
 80074a0:	46bd      	mov	sp, r7
 80074a2:	bd80      	pop	{r7, pc}

080074a4 <USBH_Get_StringDesc>:
 80074a4:	b580      	push	{r7, lr}
 80074a6:	b088      	sub	sp, #32
 80074a8:	af02      	add	r7, sp, #8
 80074aa:	60f8      	str	r0, [r7, #12]
 80074ac:	607a      	str	r2, [r7, #4]
 80074ae:	461a      	mov	r2, r3
 80074b0:	460b      	mov	r3, r1
 80074b2:	72fb      	strb	r3, [r7, #11]
 80074b4:	4613      	mov	r3, r2
 80074b6:	813b      	strh	r3, [r7, #8]
 80074b8:	893b      	ldrh	r3, [r7, #8]
 80074ba:	f5b3 7f00 	cmp.w	r3, #512	@ 0x200
 80074be:	d802      	bhi.n	80074c6 <USBH_Get_StringDesc+0x22>
 80074c0:	687b      	ldr	r3, [r7, #4]
 80074c2:	2b00      	cmp	r3, #0
 80074c4:	d101      	bne.n	80074ca <USBH_Get_StringDesc+0x26>
 80074c6:	2303      	movs	r3, #3
 80074c8:	e01c      	b.n	8007504 <USBH_Get_StringDesc+0x60>
 80074ca:	7afb      	ldrb	r3, [r7, #11]
 80074cc:	b29b      	uxth	r3, r3
 80074ce:	f443 7340 	orr.w	r3, r3, #768	@ 0x300
 80074d2:	b29a      	uxth	r2, r3
 80074d4:	68fb      	ldr	r3, [r7, #12]
 80074d6:	f503 718e 	add.w	r1, r3, #284	@ 0x11c
 80074da:	893b      	ldrh	r3, [r7, #8]
 80074dc:	9300      	str	r3, [sp, #0]
 80074de:	460b      	mov	r3, r1
 80074e0:	2100      	movs	r1, #0
 80074e2:	68f8      	ldr	r0, [r7, #12]
 80074e4:	f000 f812 	bl	800750c <USBH_GetDescriptor>
 80074e8:	4603      	mov	r3, r0
 80074ea:	75fb      	strb	r3, [r7, #23]
 80074ec:	7dfb      	ldrb	r3, [r7, #23]
 80074ee:	2b00      	cmp	r3, #0
 80074f0:	d107      	bne.n	8007502 <USBH_Get_StringDesc+0x5e>
 80074f2:	68fb      	ldr	r3, [r7, #12]
 80074f4:	f503 738e 	add.w	r3, r3, #284	@ 0x11c
 80074f8:	893a      	ldrh	r2, [r7, #8]
 80074fa:	6879      	ldr	r1, [r7, #4]
 80074fc:	4618      	mov	r0, r3
 80074fe:	f000 fb8d 	bl	8007c1c <USBH_ParseStringDesc>
 8007502:	7dfb      	ldrb	r3, [r7, #23]
 8007504:	4618      	mov	r0, r3
 8007506:	3718      	adds	r7, #24
 8007508:	46bd      	mov	sp, r7
 800750a:	bd80      	pop	{r7, pc}

0800750c <USBH_GetDescriptor>:
 800750c:	b580      	push	{r7, lr}
 800750e:	b084      	sub	sp, #16
 8007510:	af00      	add	r7, sp, #0
 8007512:	60f8      	str	r0, [r7, #12]
 8007514:	607b      	str	r3, [r7, #4]
 8007516:	460b      	mov	r3, r1
 8007518:	72fb      	strb	r3, [r7, #11]
 800751a:	4613      	mov	r3, r2
 800751c:	813b      	strh	r3, [r7, #8]
 800751e:	68fb      	ldr	r3, [r7, #12]
 8007520:	789b      	ldrb	r3, [r3, #2]
 8007522:	2b01      	cmp	r3, #1
 8007524:	d11c      	bne.n	8007560 <USBH_GetDescriptor+0x54>
 8007526:	7afb      	ldrb	r3, [r7, #11]
 8007528:	f063 037f 	orn	r3, r3, #127	@ 0x7f
 800752c:	b2da      	uxtb	r2, r3
 800752e:	68fb      	ldr	r3, [r7, #12]
 8007530:	741a      	strb	r2, [r3, #16]
 8007532:	68fb      	ldr	r3, [r7, #12]
 8007534:	2206      	movs	r2, #6
 8007536:	745a      	strb	r2, [r3, #17]
 8007538:	68fb      	ldr	r3, [r7, #12]
 800753a:	893a      	ldrh	r2, [r7, #8]
 800753c:	825a      	strh	r2, [r3, #18]
 800753e:	893b      	ldrh	r3, [r7, #8]
 8007540:	f403 437f 	and.w	r3, r3, #65280	@ 0xff00
 8007544:	f5b3 7f40 	cmp.w	r3, #768	@ 0x300
 8007548:	d104      	bne.n	8007554 <USBH_GetDescriptor+0x48>
 800754a:	68fb      	ldr	r3, [r7, #12]
 800754c:	f240 4209 	movw	r2, #1033	@ 0x409
 8007550:	829a      	strh	r2, [r3, #20]
 8007552:	e002      	b.n	800755a <USBH_GetDescriptor+0x4e>
 8007554:	68fb      	ldr	r3, [r7, #12]
 8007556:	2200      	movs	r2, #0
 8007558:	829a      	strh	r2, [r3, #20]
 800755a:	68fb      	ldr	r3, [r7, #12]
 800755c:	8b3a      	ldrh	r2, [r7, #24]
 800755e:	82da      	strh	r2, [r3, #22]
 8007560:	8b3b      	ldrh	r3, [r7, #24]
 8007562:	461a      	mov	r2, r3
 8007564:	6879      	ldr	r1, [r7, #4]
 8007566:	68f8      	ldr	r0, [r7, #12]
 8007568:	f000 fba5 	bl	8007cb6 <USBH_CtlReq>
 800756c:	4603      	mov	r3, r0
 800756e:	4618      	mov	r0, r3
 8007570:	3710      	adds	r7, #16
 8007572:	46bd      	mov	sp, r7
 8007574:	bd80      	pop	{r7, pc}

08007576 <USBH_SetAddress>:
 8007576:	b580      	push	{r7, lr}
 8007578:	b082      	sub	sp, #8
 800757a:	af00      	add	r7, sp, #0
 800757c:	6078      	str	r0, [r7, #4]
 800757e:	460b      	mov	r3, r1
 8007580:	70fb      	strb	r3, [r7, #3]
 8007582:	687b      	ldr	r3, [r7, #4]
 8007584:	789b      	ldrb	r3, [r3, #2]
 8007586:	2b01      	cmp	r3, #1
 8007588:	d10f      	bne.n	80075aa <USBH_SetAddress+0x34>
 800758a:	687b      	ldr	r3, [r7, #4]
 800758c:	2200      	movs	r2, #0
 800758e:	741a      	strb	r2, [r3, #16]
 8007590:	687b      	ldr	r3, [r7, #4]
 8007592:	2205      	movs	r2, #5
 8007594:	745a      	strb	r2, [r3, #17]
 8007596:	78fb      	ldrb	r3, [r7, #3]
 8007598:	b29a      	uxth	r2, r3
 800759a:	687b      	ldr	r3, [r7, #4]
 800759c:	825a      	strh	r2, [r3, #18]
 800759e:	687b      	ldr	r3, [r7, #4]
 80075a0:	2200      	movs	r2, #0
 80075a2:	829a      	strh	r2, [r3, #20]
 80075a4:	687b      	ldr	r3, [r7, #4]
 80075a6:	2200      	movs	r2, #0
 80075a8:	82da      	strh	r2, [r3, #22]
 80075aa:	2200      	movs	r2, #0
 80075ac:	2100      	movs	r1, #0
 80075ae:	6878      	ldr	r0, [r7, #4]
 80075b0:	f000 fb81 	bl	8007cb6 <USBH_CtlReq>
 80075b4:	4603      	mov	r3, r0
 80075b6:	4618      	mov	r0, r3
 80075b8:	3708      	adds	r7, #8
 80075ba:	46bd      	mov	sp, r7
 80075bc:	bd80      	pop	{r7, pc}

080075be <USBH_SetCfg>:
 80075be:	b580      	push	{r7, lr}
 80075c0:	b082      	sub	sp, #8
 80075c2:	af00      	add	r7, sp, #0
 80075c4:	6078      	str	r0, [r7, #4]
 80075c6:	460b      	mov	r3, r1
 80075c8:	807b      	strh	r3, [r7, #2]
 80075ca:	687b      	ldr	r3, [r7, #4]
 80075cc:	789b      	ldrb	r3, [r3, #2]
 80075ce:	2b01      	cmp	r3, #1
 80075d0:	d10e      	bne.n	80075f0 <USBH_SetCfg+0x32>
 80075d2:	687b      	ldr	r3, [r7, #4]
 80075d4:	2200      	movs	r2, #0
 80075d6:	741a      	strb	r2, [r3, #16]
 80075d8:	687b      	ldr	r3, [r7, #4]
 80075da:	2209      	movs	r2, #9
 80075dc:	745a      	strb	r2, [r3, #17]
 80075de:	687b      	ldr	r3, [r7, #4]
 80075e0:	887a      	ldrh	r2, [r7, #2]
 80075e2:	825a      	strh	r2, [r3, #18]
 80075e4:	687b      	ldr	r3, [r7, #4]
 80075e6:	2200      	movs	r2, #0
 80075e8:	829a      	strh	r2, [r3, #20]
 80075ea:	687b      	ldr	r3, [r7, #4]
 80075ec:	2200      	movs	r2, #0
 80075ee:	82da      	strh	r2, [r3, #22]
 80075f0:	2200      	movs	r2, #0
 80075f2:	2100      	movs	r1, #0
 80075f4:	6878      	ldr	r0, [r7, #4]
 80075f6:	f000 fb5e 	bl	8007cb6 <USBH_CtlReq>
 80075fa:	4603      	mov	r3, r0
 80075fc:	4618      	mov	r0, r3
 80075fe:	3708      	adds	r7, #8
 8007600:	46bd      	mov	sp, r7
 8007602:	bd80      	pop	{r7, pc}

08007604 <USBH_SetFeature>:
 8007604:	b580      	push	{r7, lr}
 8007606:	b082      	sub	sp, #8
 8007608:	af00      	add	r7, sp, #0
 800760a:	6078      	str	r0, [r7, #4]
 800760c:	460b      	mov	r3, r1
 800760e:	70fb      	strb	r3, [r7, #3]
 8007610:	687b      	ldr	r3, [r7, #4]
 8007612:	789b      	ldrb	r3, [r3, #2]
 8007614:	2b01      	cmp	r3, #1
 8007616:	d10f      	bne.n	8007638 <USBH_SetFeature+0x34>
 8007618:	687b      	ldr	r3, [r7, #4]
 800761a:	2200      	movs	r2, #0
 800761c:	741a      	strb	r2, [r3, #16]
 800761e:	687b      	ldr	r3, [r7, #4]
 8007620:	2203      	movs	r2, #3
 8007622:	745a      	strb	r2, [r3, #17]
 8007624:	78fb      	ldrb	r3, [r7, #3]
 8007626:	b29a      	uxth	r2, r3
 8007628:	687b      	ldr	r3, [r7, #4]
 800762a:	825a      	strh	r2, [r3, #18]
 800762c:	687b      	ldr	r3, [r7, #4]
 800762e:	2200      	movs	r2, #0
 8007630:	829a      	strh	r2, [r3, #20]
 8007632:	687b      	ldr	r3, [r7, #4]
 8007634:	2200      	movs	r2, #0
 8007636:	82da      	strh	r2, [r3, #22]
 8007638:	2200      	movs	r2, #0
 800763a:	2100      	movs	r1, #0
 800763c:	6878      	ldr	r0, [r7, #4]
 800763e:	f000 fb3a 	bl	8007cb6 <USBH_CtlReq>
 8007642:	4603      	mov	r3, r0
 8007644:	4618      	mov	r0, r3
 8007646:	3708      	adds	r7, #8
 8007648:	46bd      	mov	sp, r7
 800764a:	bd80      	pop	{r7, pc}

0800764c <USBH_ClrFeature>:
 800764c:	b580      	push	{r7, lr}
 800764e:	b082      	sub	sp, #8
 8007650:	af00      	add	r7, sp, #0
 8007652:	6078      	str	r0, [r7, #4]
 8007654:	460b      	mov	r3, r1
 8007656:	70fb      	strb	r3, [r7, #3]
 8007658:	687b      	ldr	r3, [r7, #4]
 800765a:	789b      	ldrb	r3, [r3, #2]
 800765c:	2b01      	cmp	r3, #1
 800765e:	d10f      	bne.n	8007680 <USBH_ClrFeature+0x34>
 8007660:	687b      	ldr	r3, [r7, #4]
 8007662:	2202      	movs	r2, #2
 8007664:	741a      	strb	r2, [r3, #16]
 8007666:	687b      	ldr	r3, [r7, #4]
 8007668:	2201      	movs	r2, #1
 800766a:	745a      	strb	r2, [r3, #17]
 800766c:	687b      	ldr	r3, [r7, #4]
 800766e:	2200      	movs	r2, #0
 8007670:	825a      	strh	r2, [r3, #18]
 8007672:	78fb      	ldrb	r3, [r7, #3]
 8007674:	b29a      	uxth	r2, r3
 8007676:	687b      	ldr	r3, [r7, #4]
 8007678:	829a      	strh	r2, [r3, #20]
 800767a:	687b      	ldr	r3, [r7, #4]
 800767c:	2200      	movs	r2, #0
 800767e:	82da      	strh	r2, [r3, #22]
 8007680:	2200      	movs	r2, #0
 8007682:	2100      	movs	r1, #0
 8007684:	6878      	ldr	r0, [r7, #4]
 8007686:	f000 fb16 	bl	8007cb6 <USBH_CtlReq>
 800768a:	4603      	mov	r3, r0
 800768c:	4618      	mov	r0, r3
 800768e:	3708      	adds	r7, #8
 8007690:	46bd      	mov	sp, r7
 8007692:	bd80      	pop	{r7, pc}

08007694 <USBH_ParseDevDesc>:
 8007694:	b480      	push	{r7}
 8007696:	b087      	sub	sp, #28
 8007698:	af00      	add	r7, sp, #0
 800769a:	60f8      	str	r0, [r7, #12]
 800769c:	60b9      	str	r1, [r7, #8]
 800769e:	4613      	mov	r3, r2
 80076a0:	80fb      	strh	r3, [r7, #6]
 80076a2:	68fb      	ldr	r3, [r7, #12]
 80076a4:	f203 3326 	addw	r3, r3, #806	@ 0x326
 80076a8:	613b      	str	r3, [r7, #16]
 80076aa:	2300      	movs	r3, #0
 80076ac:	75fb      	strb	r3, [r7, #23]
 80076ae:	68bb      	ldr	r3, [r7, #8]
 80076b0:	2b00      	cmp	r3, #0
 80076b2:	d101      	bne.n	80076b8 <USBH_ParseDevDesc+0x24>
 80076b4:	2302      	movs	r3, #2
 80076b6:	e094      	b.n	80077e2 <USBH_ParseDevDesc+0x14e>
 80076b8:	68bb      	ldr	r3, [r7, #8]
 80076ba:	781a      	ldrb	r2, [r3, #0]
 80076bc:	693b      	ldr	r3, [r7, #16]
 80076be:	701a      	strb	r2, [r3, #0]
 80076c0:	68bb      	ldr	r3, [r7, #8]
 80076c2:	785a      	ldrb	r2, [r3, #1]
 80076c4:	693b      	ldr	r3, [r7, #16]
 80076c6:	705a      	strb	r2, [r3, #1]
 80076c8:	68bb      	ldr	r3, [r7, #8]
 80076ca:	3302      	adds	r3, #2
 80076cc:	781b      	ldrb	r3, [r3, #0]
 80076ce:	461a      	mov	r2, r3
 80076d0:	68bb      	ldr	r3, [r7, #8]
 80076d2:	3303      	adds	r3, #3
 80076d4:	781b      	ldrb	r3, [r3, #0]
 80076d6:	021b      	lsls	r3, r3, #8
 80076d8:	b29b      	uxth	r3, r3
 80076da:	4313      	orrs	r3, r2
 80076dc:	b29a      	uxth	r2, r3
 80076de:	693b      	ldr	r3, [r7, #16]
 80076e0:	805a      	strh	r2, [r3, #2]
 80076e2:	68bb      	ldr	r3, [r7, #8]
 80076e4:	791a      	ldrb	r2, [r3, #4]
 80076e6:	693b      	ldr	r3, [r7, #16]
 80076e8:	711a      	strb	r2, [r3, #4]
 80076ea:	68bb      	ldr	r3, [r7, #8]
 80076ec:	795a      	ldrb	r2, [r3, #5]
 80076ee:	693b      	ldr	r3, [r7, #16]
 80076f0:	715a      	strb	r2, [r3, #5]
 80076f2:	68bb      	ldr	r3, [r7, #8]
 80076f4:	799a      	ldrb	r2, [r3, #6]
 80076f6:	693b      	ldr	r3, [r7, #16]
 80076f8:	719a      	strb	r2, [r3, #6]
 80076fa:	68bb      	ldr	r3, [r7, #8]
 80076fc:	79da      	ldrb	r2, [r3, #7]
 80076fe:	693b      	ldr	r3, [r7, #16]
 8007700:	71da      	strb	r2, [r3, #7]
 8007702:	68fb      	ldr	r3, [r7, #12]
 8007704:	f893 331d 	ldrb.w	r3, [r3, #797]	@ 0x31d
 8007708:	2b00      	cmp	r3, #0
 800770a:	d004      	beq.n	8007716 <USBH_ParseDevDesc+0x82>
 800770c:	68fb      	ldr	r3, [r7, #12]
 800770e:	f893 331d 	ldrb.w	r3, [r3, #797]	@ 0x31d
 8007712:	2b01      	cmp	r3, #1
 8007714:	d11b      	bne.n	800774e <USBH_ParseDevDesc+0xba>
 8007716:	693b      	ldr	r3, [r7, #16]
 8007718:	79db      	ldrb	r3, [r3, #7]
 800771a:	2b20      	cmp	r3, #32
 800771c:	dc0f      	bgt.n	800773e <USBH_ParseDevDesc+0xaa>
 800771e:	2b08      	cmp	r3, #8
 8007720:	db0f      	blt.n	8007742 <USBH_ParseDevDesc+0xae>
 8007722:	3b08      	subs	r3, #8
 8007724:	4a32      	ldr	r2, [pc, #200]	@ (80077f0 <USBH_ParseDevDesc+0x15c>)
 8007726:	fa22 f303 	lsr.w	r3, r2, r3
 800772a:	f003 0301 	and.w	r3, r3, #1
 800772e:	2b00      	cmp	r3, #0
 8007730:	bf14      	ite	ne
 8007732:	2301      	movne	r3, #1
 8007734:	2300      	moveq	r3, #0
 8007736:	b2db      	uxtb	r3, r3
 8007738:	2b00      	cmp	r3, #0
 800773a:	d106      	bne.n	800774a <USBH_ParseDevDesc+0xb6>
 800773c:	e001      	b.n	8007742 <USBH_ParseDevDesc+0xae>
 800773e:	2b40      	cmp	r3, #64	@ 0x40
 8007740:	d003      	beq.n	800774a <USBH_ParseDevDesc+0xb6>
 8007742:	693b      	ldr	r3, [r7, #16]
 8007744:	2208      	movs	r2, #8
 8007746:	71da      	strb	r2, [r3, #7]
 8007748:	e000      	b.n	800774c <USBH_ParseDevDesc+0xb8>
 800774a:	bf00      	nop
 800774c:	e00e      	b.n	800776c <USBH_ParseDevDesc+0xd8>
 800774e:	68fb      	ldr	r3, [r7, #12]
 8007750:	f893 331d 	ldrb.w	r3, [r3, #797]	@ 0x31d
 8007754:	2b02      	cmp	r3, #2
 8007756:	d107      	bne.n	8007768 <USBH_ParseDevDesc+0xd4>
 8007758:	693b      	ldr	r3, [r7, #16]
 800775a:	79db      	ldrb	r3, [r3, #7]
 800775c:	2b08      	cmp	r3, #8
 800775e:	d005      	beq.n	800776c <USBH_ParseDevDesc+0xd8>
 8007760:	693b      	ldr	r3, [r7, #16]
 8007762:	2208      	movs	r2, #8
 8007764:	71da      	strb	r2, [r3, #7]
 8007766:	e001      	b.n	800776c <USBH_ParseDevDesc+0xd8>
 8007768:	2303      	movs	r3, #3
 800776a:	75fb      	strb	r3, [r7, #23]
 800776c:	88fb      	ldrh	r3, [r7, #6]
 800776e:	2b08      	cmp	r3, #8
 8007770:	d936      	bls.n	80077e0 <USBH_ParseDevDesc+0x14c>
 8007772:	68bb      	ldr	r3, [r7, #8]
 8007774:	3308      	adds	r3, #8
 8007776:	781b      	ldrb	r3, [r3, #0]
 8007778:	461a      	mov	r2, r3
 800777a:	68bb      	ldr	r3, [r7, #8]
 800777c:	3309      	adds	r3, #9
 800777e:	781b      	ldrb	r3, [r3, #0]
 8007780:	021b      	lsls	r3, r3, #8
 8007782:	b29b      	uxth	r3, r3
 8007784:	4313      	orrs	r3, r2
 8007786:	b29a      	uxth	r2, r3
 8007788:	693b      	ldr	r3, [r7, #16]
 800778a:	811a      	strh	r2, [r3, #8]
 800778c:	68bb      	ldr	r3, [r7, #8]
 800778e:	330a      	adds	r3, #10
 8007790:	781b      	ldrb	r3, [r3, #0]
 8007792:	461a      	mov	r2, r3
 8007794:	68bb      	ldr	r3, [r7, #8]
 8007796:	330b      	adds	r3, #11
 8007798:	781b      	ldrb	r3, [r3, #0]
 800779a:	021b      	lsls	r3, r3, #8
 800779c:	b29b      	uxth	r3, r3
 800779e:	4313      	orrs	r3, r2
 80077a0:	b29a      	uxth	r2, r3
 80077a2:	693b      	ldr	r3, [r7, #16]
 80077a4:	815a      	strh	r2, [r3, #10]
 80077a6:	68bb      	ldr	r3, [r7, #8]
 80077a8:	330c      	adds	r3, #12
 80077aa:	781b      	ldrb	r3, [r3, #0]
 80077ac:	461a      	mov	r2, r3
 80077ae:	68bb      	ldr	r3, [r7, #8]
 80077b0:	330d      	adds	r3, #13
 80077b2:	781b      	ldrb	r3, [r3, #0]
 80077b4:	021b      	lsls	r3, r3, #8
 80077b6:	b29b      	uxth	r3, r3
 80077b8:	4313      	orrs	r3, r2
 80077ba:	b29a      	uxth	r2, r3
 80077bc:	693b      	ldr	r3, [r7, #16]
 80077be:	819a      	strh	r2, [r3, #12]
 80077c0:	68bb      	ldr	r3, [r7, #8]
 80077c2:	7b9a      	ldrb	r2, [r3, #14]
 80077c4:	693b      	ldr	r3, [r7, #16]
 80077c6:	739a      	strb	r2, [r3, #14]
 80077c8:	68bb      	ldr	r3, [r7, #8]
 80077ca:	7bda      	ldrb	r2, [r3, #15]
 80077cc:	693b      	ldr	r3, [r7, #16]
 80077ce:	73da      	strb	r2, [r3, #15]
 80077d0:	68bb      	ldr	r3, [r7, #8]
 80077d2:	7c1a      	ldrb	r2, [r3, #16]
 80077d4:	693b      	ldr	r3, [r7, #16]
 80077d6:	741a      	strb	r2, [r3, #16]
 80077d8:	68bb      	ldr	r3, [r7, #8]
 80077da:	7c5a      	ldrb	r2, [r3, #17]
 80077dc:	693b      	ldr	r3, [r7, #16]
 80077de:	745a      	strb	r2, [r3, #17]
 80077e0:	7dfb      	ldrb	r3, [r7, #23]
 80077e2:	4618      	mov	r0, r3
 80077e4:	371c      	adds	r7, #28
 80077e6:	46bd      	mov	sp, r7
 80077e8:	f85d 7b04 	ldr.w	r7, [sp], #4
 80077ec:	4770      	bx	lr
 80077ee:	bf00      	nop
 80077f0:	01000101 	.word	0x01000101

080077f4 <USBH_ParseCfgDesc>:
 80077f4:	b580      	push	{r7, lr}
 80077f6:	b08c      	sub	sp, #48	@ 0x30
 80077f8:	af00      	add	r7, sp, #0
 80077fa:	60f8      	str	r0, [r7, #12]
 80077fc:	60b9      	str	r1, [r7, #8]
 80077fe:	4613      	mov	r3, r2
 8007800:	80fb      	strh	r3, [r7, #6]
 8007802:	68fb      	ldr	r3, [r7, #12]
 8007804:	f503 734e 	add.w	r3, r3, #824	@ 0x338
 8007808:	623b      	str	r3, [r7, #32]
 800780a:	2300      	movs	r3, #0
 800780c:	f887 302f 	strb.w	r3, [r7, #47]	@ 0x2f
 8007810:	2300      	movs	r3, #0
 8007812:	f887 3027 	strb.w	r3, [r7, #39]	@ 0x27
 8007816:	2300      	movs	r3, #0
 8007818:	f887 3026 	strb.w	r3, [r7, #38]	@ 0x26
 800781c:	68bb      	ldr	r3, [r7, #8]
 800781e:	2b00      	cmp	r3, #0
 8007820:	d101      	bne.n	8007826 <USBH_ParseCfgDesc+0x32>
 8007822:	2302      	movs	r3, #2
 8007824:	e0da      	b.n	80079dc <USBH_ParseCfgDesc+0x1e8>
 8007826:	68bb      	ldr	r3, [r7, #8]
 8007828:	62bb      	str	r3, [r7, #40]	@ 0x28
 800782a:	68bb      	ldr	r3, [r7, #8]
 800782c:	781a      	ldrb	r2, [r3, #0]
 800782e:	6a3b      	ldr	r3, [r7, #32]
 8007830:	701a      	strb	r2, [r3, #0]
 8007832:	68bb      	ldr	r3, [r7, #8]
 8007834:	785a      	ldrb	r2, [r3, #1]
 8007836:	6a3b      	ldr	r3, [r7, #32]
 8007838:	705a      	strb	r2, [r3, #1]
 800783a:	68bb      	ldr	r3, [r7, #8]
 800783c:	3302      	adds	r3, #2
 800783e:	781b      	ldrb	r3, [r3, #0]
 8007840:	461a      	mov	r2, r3
 8007842:	68bb      	ldr	r3, [r7, #8]
 8007844:	3303      	adds	r3, #3
 8007846:	781b      	ldrb	r3, [r3, #0]
 8007848:	021b      	lsls	r3, r3, #8
 800784a:	b29b      	uxth	r3, r3
 800784c:	4313      	orrs	r3, r2
 800784e:	b29b      	uxth	r3, r3
 8007850:	f5b3 7f80 	cmp.w	r3, #256	@ 0x100
 8007854:	bf28      	it	cs
 8007856:	f44f 7380 	movcs.w	r3, #256	@ 0x100
 800785a:	b29a      	uxth	r2, r3
 800785c:	6a3b      	ldr	r3, [r7, #32]
 800785e:	805a      	strh	r2, [r3, #2]
 8007860:	68bb      	ldr	r3, [r7, #8]
 8007862:	791a      	ldrb	r2, [r3, #4]
 8007864:	6a3b      	ldr	r3, [r7, #32]
 8007866:	711a      	strb	r2, [r3, #4]
 8007868:	68bb      	ldr	r3, [r7, #8]
 800786a:	795a      	ldrb	r2, [r3, #5]
 800786c:	6a3b      	ldr	r3, [r7, #32]
 800786e:	715a      	strb	r2, [r3, #5]
 8007870:	68bb      	ldr	r3, [r7, #8]
 8007872:	799a      	ldrb	r2, [r3, #6]
 8007874:	6a3b      	ldr	r3, [r7, #32]
 8007876:	719a      	strb	r2, [r3, #6]
 8007878:	68bb      	ldr	r3, [r7, #8]
 800787a:	79da      	ldrb	r2, [r3, #7]
 800787c:	6a3b      	ldr	r3, [r7, #32]
 800787e:	71da      	strb	r2, [r3, #7]
 8007880:	68bb      	ldr	r3, [r7, #8]
 8007882:	7a1a      	ldrb	r2, [r3, #8]
 8007884:	6a3b      	ldr	r3, [r7, #32]
 8007886:	721a      	strb	r2, [r3, #8]
 8007888:	6a3b      	ldr	r3, [r7, #32]
 800788a:	781b      	ldrb	r3, [r3, #0]
 800788c:	2b09      	cmp	r3, #9
 800788e:	d002      	beq.n	8007896 <USBH_ParseCfgDesc+0xa2>
 8007890:	6a3b      	ldr	r3, [r7, #32]
 8007892:	2209      	movs	r2, #9
 8007894:	701a      	strb	r2, [r3, #0]
 8007896:	88fb      	ldrh	r3, [r7, #6]
 8007898:	2b09      	cmp	r3, #9
 800789a:	f240 809d 	bls.w	80079d8 <USBH_ParseCfgDesc+0x1e4>
 800789e:	2309      	movs	r3, #9
 80078a0:	82fb      	strh	r3, [r7, #22]
 80078a2:	2300      	movs	r3, #0
 80078a4:	61fb      	str	r3, [r7, #28]
 80078a6:	e081      	b.n	80079ac <USBH_ParseCfgDesc+0x1b8>
 80078a8:	f107 0316 	add.w	r3, r7, #22
 80078ac:	4619      	mov	r1, r3
 80078ae:	6ab8      	ldr	r0, [r7, #40]	@ 0x28
 80078b0:	f000 f9e7 	bl	8007c82 <USBH_GetNextDesc>
 80078b4:	62b8      	str	r0, [r7, #40]	@ 0x28
 80078b6:	6abb      	ldr	r3, [r7, #40]	@ 0x28
 80078b8:	785b      	ldrb	r3, [r3, #1]
 80078ba:	2b04      	cmp	r3, #4
 80078bc:	d176      	bne.n	80079ac <USBH_ParseCfgDesc+0x1b8>
 80078be:	6abb      	ldr	r3, [r7, #40]	@ 0x28
 80078c0:	781b      	ldrb	r3, [r3, #0]
 80078c2:	2b09      	cmp	r3, #9
 80078c4:	d002      	beq.n	80078cc <USBH_ParseCfgDesc+0xd8>
 80078c6:	6abb      	ldr	r3, [r7, #40]	@ 0x28
 80078c8:	2209      	movs	r2, #9
 80078ca:	701a      	strb	r2, [r3, #0]
 80078cc:	f897 3027 	ldrb.w	r3, [r7, #39]	@ 0x27
 80078d0:	221a      	movs	r2, #26
 80078d2:	fb02 f303 	mul.w	r3, r2, r3
 80078d6:	3308      	adds	r3, #8
 80078d8:	6a3a      	ldr	r2, [r7, #32]
 80078da:	4413      	add	r3, r2
 80078dc:	3302      	adds	r3, #2
 80078de:	61fb      	str	r3, [r7, #28]
 80078e0:	6ab9      	ldr	r1, [r7, #40]	@ 0x28
 80078e2:	69f8      	ldr	r0, [r7, #28]
 80078e4:	f000 f87e 	bl	80079e4 <USBH_ParseInterfaceDesc>
 80078e8:	2300      	movs	r3, #0
 80078ea:	f887 3026 	strb.w	r3, [r7, #38]	@ 0x26
 80078ee:	2300      	movs	r3, #0
 80078f0:	61bb      	str	r3, [r7, #24]
 80078f2:	e043      	b.n	800797c <USBH_ParseCfgDesc+0x188>
 80078f4:	f107 0316 	add.w	r3, r7, #22
 80078f8:	4619      	mov	r1, r3
 80078fa:	6ab8      	ldr	r0, [r7, #40]	@ 0x28
 80078fc:	f000 f9c1 	bl	8007c82 <USBH_GetNextDesc>
 8007900:	62b8      	str	r0, [r7, #40]	@ 0x28
 8007902:	6abb      	ldr	r3, [r7, #40]	@ 0x28
 8007904:	785b      	ldrb	r3, [r3, #1]
 8007906:	2b05      	cmp	r3, #5
 8007908:	d138      	bne.n	800797c <USBH_ParseCfgDesc+0x188>
 800790a:	69fb      	ldr	r3, [r7, #28]
 800790c:	795b      	ldrb	r3, [r3, #5]
 800790e:	2b01      	cmp	r3, #1
 8007910:	d113      	bne.n	800793a <USBH_ParseCfgDesc+0x146>
 8007912:	69fb      	ldr	r3, [r7, #28]
 8007914:	799b      	ldrb	r3, [r3, #6]
 8007916:	2b02      	cmp	r3, #2
 8007918:	d003      	beq.n	8007922 <USBH_ParseCfgDesc+0x12e>
 800791a:	69fb      	ldr	r3, [r7, #28]
 800791c:	799b      	ldrb	r3, [r3, #6]
 800791e:	2b03      	cmp	r3, #3
 8007920:	d10b      	bne.n	800793a <USBH_ParseCfgDesc+0x146>
 8007922:	69fb      	ldr	r3, [r7, #28]
 8007924:	79db      	ldrb	r3, [r3, #7]
 8007926:	2b00      	cmp	r3, #0
 8007928:	d10b      	bne.n	8007942 <USBH_ParseCfgDesc+0x14e>
 800792a:	6abb      	ldr	r3, [r7, #40]	@ 0x28
 800792c:	781b      	ldrb	r3, [r3, #0]
 800792e:	2b09      	cmp	r3, #9
 8007930:	d007      	beq.n	8007942 <USBH_ParseCfgDesc+0x14e>
 8007932:	6abb      	ldr	r3, [r7, #40]	@ 0x28
 8007934:	2209      	movs	r2, #9
 8007936:	701a      	strb	r2, [r3, #0]
 8007938:	e003      	b.n	8007942 <USBH_ParseCfgDesc+0x14e>
 800793a:	6abb      	ldr	r3, [r7, #40]	@ 0x28
 800793c:	2207      	movs	r2, #7
 800793e:	701a      	strb	r2, [r3, #0]
 8007940:	e000      	b.n	8007944 <USBH_ParseCfgDesc+0x150>
 8007942:	bf00      	nop
 8007944:	f897 3027 	ldrb.w	r3, [r7, #39]	@ 0x27
 8007948:	f897 2026 	ldrb.w	r2, [r7, #38]	@ 0x26
 800794c:	3201      	adds	r2, #1
 800794e:	00d2      	lsls	r2, r2, #3
 8007950:	211a      	movs	r1, #26
 8007952:	fb01 f303 	mul.w	r3, r1, r3
 8007956:	4413      	add	r3, r2
 8007958:	3308      	adds	r3, #8
 800795a:	6a3a      	ldr	r2, [r7, #32]
 800795c:	4413      	add	r3, r2
 800795e:	3304      	adds	r3, #4
 8007960:	61bb      	str	r3, [r7, #24]
 8007962:	6aba      	ldr	r2, [r7, #40]	@ 0x28
 8007964:	69b9      	ldr	r1, [r7, #24]
 8007966:	68f8      	ldr	r0, [r7, #12]
 8007968:	f000 f870 	bl	8007a4c <USBH_ParseEPDesc>
 800796c:	4603      	mov	r3, r0
 800796e:	f887 302f 	strb.w	r3, [r7, #47]	@ 0x2f
 8007972:	f897 3026 	ldrb.w	r3, [r7, #38]	@ 0x26
 8007976:	3301      	adds	r3, #1
 8007978:	f887 3026 	strb.w	r3, [r7, #38]	@ 0x26
 800797c:	69fb      	ldr	r3, [r7, #28]
 800797e:	791b      	ldrb	r3, [r3, #4]
 8007980:	f897 2026 	ldrb.w	r2, [r7, #38]	@ 0x26
 8007984:	429a      	cmp	r2, r3
 8007986:	d204      	bcs.n	8007992 <USBH_ParseCfgDesc+0x19e>
 8007988:	6a3b      	ldr	r3, [r7, #32]
 800798a:	885a      	ldrh	r2, [r3, #2]
 800798c:	8afb      	ldrh	r3, [r7, #22]
 800798e:	429a      	cmp	r2, r3
 8007990:	d8b0      	bhi.n	80078f4 <USBH_ParseCfgDesc+0x100>
 8007992:	69fb      	ldr	r3, [r7, #28]
 8007994:	791b      	ldrb	r3, [r3, #4]
 8007996:	f897 2026 	ldrb.w	r2, [r7, #38]	@ 0x26
 800799a:	429a      	cmp	r2, r3
 800799c:	d201      	bcs.n	80079a2 <USBH_ParseCfgDesc+0x1ae>
 800799e:	2303      	movs	r3, #3
 80079a0:	e01c      	b.n	80079dc <USBH_ParseCfgDesc+0x1e8>
 80079a2:	f897 3027 	ldrb.w	r3, [r7, #39]	@ 0x27
 80079a6:	3301      	adds	r3, #1
 80079a8:	f887 3027 	strb.w	r3, [r7, #39]	@ 0x27
 80079ac:	f897 3027 	ldrb.w	r3, [r7, #39]	@ 0x27
 80079b0:	2b01      	cmp	r3, #1
 80079b2:	d805      	bhi.n	80079c0 <USBH_ParseCfgDesc+0x1cc>
 80079b4:	6a3b      	ldr	r3, [r7, #32]
 80079b6:	885a      	ldrh	r2, [r3, #2]
 80079b8:	8afb      	ldrh	r3, [r7, #22]
 80079ba:	429a      	cmp	r2, r3
 80079bc:	f63f af74 	bhi.w	80078a8 <USBH_ParseCfgDesc+0xb4>
 80079c0:	6a3b      	ldr	r3, [r7, #32]
 80079c2:	791b      	ldrb	r3, [r3, #4]
 80079c4:	2b02      	cmp	r3, #2
 80079c6:	bf28      	it	cs
 80079c8:	2302      	movcs	r3, #2
 80079ca:	b2db      	uxtb	r3, r3
 80079cc:	f897 2027 	ldrb.w	r2, [r7, #39]	@ 0x27
 80079d0:	429a      	cmp	r2, r3
 80079d2:	d201      	bcs.n	80079d8 <USBH_ParseCfgDesc+0x1e4>
 80079d4:	2303      	movs	r3, #3
 80079d6:	e001      	b.n	80079dc <USBH_ParseCfgDesc+0x1e8>
 80079d8:	f897 302f 	ldrb.w	r3, [r7, #47]	@ 0x2f
 80079dc:	4618      	mov	r0, r3
 80079de:	3730      	adds	r7, #48	@ 0x30
 80079e0:	46bd      	mov	sp, r7
 80079e2:	bd80      	pop	{r7, pc}

080079e4 <USBH_ParseInterfaceDesc>:
 80079e4:	b480      	push	{r7}
 80079e6:	b083      	sub	sp, #12
 80079e8:	af00      	add	r7, sp, #0
 80079ea:	6078      	str	r0, [r7, #4]
 80079ec:	6039      	str	r1, [r7, #0]
 80079ee:	683b      	ldr	r3, [r7, #0]
 80079f0:	781a      	ldrb	r2, [r3, #0]
 80079f2:	687b      	ldr	r3, [r7, #4]
 80079f4:	701a      	strb	r2, [r3, #0]
 80079f6:	683b      	ldr	r3, [r7, #0]
 80079f8:	785a      	ldrb	r2, [r3, #1]
 80079fa:	687b      	ldr	r3, [r7, #4]
 80079fc:	705a      	strb	r2, [r3, #1]
 80079fe:	683b      	ldr	r3, [r7, #0]
 8007a00:	789a      	ldrb	r2, [r3, #2]
 8007a02:	687b      	ldr	r3, [r7, #4]
 8007a04:	709a      	strb	r2, [r3, #2]
 8007a06:	683b      	ldr	r3, [r7, #0]
 8007a08:	78da      	ldrb	r2, [r3, #3]
 8007a0a:	687b      	ldr	r3, [r7, #4]
 8007a0c:	70da      	strb	r2, [r3, #3]
 8007a0e:	683b      	ldr	r3, [r7, #0]
 8007a10:	3304      	adds	r3, #4
 8007a12:	781b      	ldrb	r3, [r3, #0]
 8007a14:	2b02      	cmp	r3, #2
 8007a16:	bf28      	it	cs
 8007a18:	2302      	movcs	r3, #2
 8007a1a:	b2da      	uxtb	r2, r3
 8007a1c:	687b      	ldr	r3, [r7, #4]
 8007a1e:	711a      	strb	r2, [r3, #4]
 8007a20:	683b      	ldr	r3, [r7, #0]
 8007a22:	795a      	ldrb	r2, [r3, #5]
 8007a24:	687b      	ldr	r3, [r7, #4]
 8007a26:	715a      	strb	r2, [r3, #5]
 8007a28:	683b      	ldr	r3, [r7, #0]
 8007a2a:	799a      	ldrb	r2, [r3, #6]
 8007a2c:	687b      	ldr	r3, [r7, #4]
 8007a2e:	719a      	strb	r2, [r3, #6]
 8007a30:	683b      	ldr	r3, [r7, #0]
 8007a32:	79da      	ldrb	r2, [r3, #7]
 8007a34:	687b      	ldr	r3, [r7, #4]
 8007a36:	71da      	strb	r2, [r3, #7]
 8007a38:	683b      	ldr	r3, [r7, #0]
 8007a3a:	7a1a      	ldrb	r2, [r3, #8]
 8007a3c:	687b      	ldr	r3, [r7, #4]
 8007a3e:	721a      	strb	r2, [r3, #8]
 8007a40:	bf00      	nop
 8007a42:	370c      	adds	r7, #12
 8007a44:	46bd      	mov	sp, r7
 8007a46:	f85d 7b04 	ldr.w	r7, [sp], #4
 8007a4a:	4770      	bx	lr

08007a4c <USBH_ParseEPDesc>:
 8007a4c:	b480      	push	{r7}
 8007a4e:	b087      	sub	sp, #28
 8007a50:	af00      	add	r7, sp, #0
 8007a52:	60f8      	str	r0, [r7, #12]
 8007a54:	60b9      	str	r1, [r7, #8]
 8007a56:	607a      	str	r2, [r7, #4]
 8007a58:	2300      	movs	r3, #0
 8007a5a:	75fb      	strb	r3, [r7, #23]
 8007a5c:	687b      	ldr	r3, [r7, #4]
 8007a5e:	781a      	ldrb	r2, [r3, #0]
 8007a60:	68bb      	ldr	r3, [r7, #8]
 8007a62:	701a      	strb	r2, [r3, #0]
 8007a64:	687b      	ldr	r3, [r7, #4]
 8007a66:	785a      	ldrb	r2, [r3, #1]
 8007a68:	68bb      	ldr	r3, [r7, #8]
 8007a6a:	705a      	strb	r2, [r3, #1]
 8007a6c:	687b      	ldr	r3, [r7, #4]
 8007a6e:	789a      	ldrb	r2, [r3, #2]
 8007a70:	68bb      	ldr	r3, [r7, #8]
 8007a72:	709a      	strb	r2, [r3, #2]
 8007a74:	687b      	ldr	r3, [r7, #4]
 8007a76:	78da      	ldrb	r2, [r3, #3]
 8007a78:	68bb      	ldr	r3, [r7, #8]
 8007a7a:	70da      	strb	r2, [r3, #3]
 8007a7c:	687b      	ldr	r3, [r7, #4]
 8007a7e:	3304      	adds	r3, #4
 8007a80:	781b      	ldrb	r3, [r3, #0]
 8007a82:	461a      	mov	r2, r3
 8007a84:	687b      	ldr	r3, [r7, #4]
 8007a86:	3305      	adds	r3, #5
 8007a88:	781b      	ldrb	r3, [r3, #0]
 8007a8a:	021b      	lsls	r3, r3, #8
 8007a8c:	b29b      	uxth	r3, r3
 8007a8e:	4313      	orrs	r3, r2
 8007a90:	b29a      	uxth	r2, r3
 8007a92:	68bb      	ldr	r3, [r7, #8]
 8007a94:	809a      	strh	r2, [r3, #4]
 8007a96:	687b      	ldr	r3, [r7, #4]
 8007a98:	799a      	ldrb	r2, [r3, #6]
 8007a9a:	68bb      	ldr	r3, [r7, #8]
 8007a9c:	719a      	strb	r2, [r3, #6]
 8007a9e:	68bb      	ldr	r3, [r7, #8]
 8007aa0:	889b      	ldrh	r3, [r3, #4]
 8007aa2:	2b00      	cmp	r3, #0
 8007aa4:	d009      	beq.n	8007aba <USBH_ParseEPDesc+0x6e>
 8007aa6:	68bb      	ldr	r3, [r7, #8]
 8007aa8:	889b      	ldrh	r3, [r3, #4]
 8007aaa:	f5b3 6f80 	cmp.w	r3, #1024	@ 0x400
 8007aae:	d804      	bhi.n	8007aba <USBH_ParseEPDesc+0x6e>
 8007ab0:	68bb      	ldr	r3, [r7, #8]
 8007ab2:	889b      	ldrh	r3, [r3, #4]
 8007ab4:	f5b3 7f00 	cmp.w	r3, #512	@ 0x200
 8007ab8:	d901      	bls.n	8007abe <USBH_ParseEPDesc+0x72>
 8007aba:	2303      	movs	r3, #3
 8007abc:	75fb      	strb	r3, [r7, #23]
 8007abe:	68fb      	ldr	r3, [r7, #12]
 8007ac0:	f893 331d 	ldrb.w	r3, [r3, #797]	@ 0x31d
 8007ac4:	2b00      	cmp	r3, #0
 8007ac6:	d136      	bne.n	8007b36 <USBH_ParseEPDesc+0xea>
 8007ac8:	68bb      	ldr	r3, [r7, #8]
 8007aca:	78db      	ldrb	r3, [r3, #3]
 8007acc:	f003 0303 	and.w	r3, r3, #3
 8007ad0:	2b02      	cmp	r3, #2
 8007ad2:	d108      	bne.n	8007ae6 <USBH_ParseEPDesc+0x9a>
 8007ad4:	68bb      	ldr	r3, [r7, #8]
 8007ad6:	889b      	ldrh	r3, [r3, #4]
 8007ad8:	f5b3 7f00 	cmp.w	r3, #512	@ 0x200
 8007adc:	f240 8097 	bls.w	8007c0e <USBH_ParseEPDesc+0x1c2>
 8007ae0:	2303      	movs	r3, #3
 8007ae2:	75fb      	strb	r3, [r7, #23]
 8007ae4:	e093      	b.n	8007c0e <USBH_ParseEPDesc+0x1c2>
 8007ae6:	68bb      	ldr	r3, [r7, #8]
 8007ae8:	78db      	ldrb	r3, [r3, #3]
 8007aea:	f003 0303 	and.w	r3, r3, #3
 8007aee:	2b00      	cmp	r3, #0
 8007af0:	d107      	bne.n	8007b02 <USBH_ParseEPDesc+0xb6>
 8007af2:	68bb      	ldr	r3, [r7, #8]
 8007af4:	889b      	ldrh	r3, [r3, #4]
 8007af6:	2b40      	cmp	r3, #64	@ 0x40
 8007af8:	f240 8089 	bls.w	8007c0e <USBH_ParseEPDesc+0x1c2>
 8007afc:	2303      	movs	r3, #3
 8007afe:	75fb      	strb	r3, [r7, #23]
 8007b00:	e085      	b.n	8007c0e <USBH_ParseEPDesc+0x1c2>
 8007b02:	68bb      	ldr	r3, [r7, #8]
 8007b04:	78db      	ldrb	r3, [r3, #3]
 8007b06:	f003 0303 	and.w	r3, r3, #3
 8007b0a:	2b01      	cmp	r3, #1
 8007b0c:	d005      	beq.n	8007b1a <USBH_ParseEPDesc+0xce>
 8007b0e:	68bb      	ldr	r3, [r7, #8]
 8007b10:	78db      	ldrb	r3, [r3, #3]
 8007b12:	f003 0303 	and.w	r3, r3, #3
 8007b16:	2b03      	cmp	r3, #3
 8007b18:	d10a      	bne.n	8007b30 <USBH_ParseEPDesc+0xe4>
 8007b1a:	68bb      	ldr	r3, [r7, #8]
 8007b1c:	799b      	ldrb	r3, [r3, #6]
 8007b1e:	2b00      	cmp	r3, #0
 8007b20:	d003      	beq.n	8007b2a <USBH_ParseEPDesc+0xde>
 8007b22:	68bb      	ldr	r3, [r7, #8]
 8007b24:	799b      	ldrb	r3, [r3, #6]
 8007b26:	2b10      	cmp	r3, #16
 8007b28:	d970      	bls.n	8007c0c <USBH_ParseEPDesc+0x1c0>
 8007b2a:	2303      	movs	r3, #3
 8007b2c:	75fb      	strb	r3, [r7, #23]
 8007b2e:	e06d      	b.n	8007c0c <USBH_ParseEPDesc+0x1c0>
 8007b30:	2303      	movs	r3, #3
 8007b32:	75fb      	strb	r3, [r7, #23]
 8007b34:	e06b      	b.n	8007c0e <USBH_ParseEPDesc+0x1c2>
 8007b36:	68fb      	ldr	r3, [r7, #12]
 8007b38:	f893 331d 	ldrb.w	r3, [r3, #797]	@ 0x31d
 8007b3c:	2b01      	cmp	r3, #1
 8007b3e:	d13c      	bne.n	8007bba <USBH_ParseEPDesc+0x16e>
 8007b40:	68bb      	ldr	r3, [r7, #8]
 8007b42:	78db      	ldrb	r3, [r3, #3]
 8007b44:	f003 0303 	and.w	r3, r3, #3
 8007b48:	2b02      	cmp	r3, #2
 8007b4a:	d005      	beq.n	8007b58 <USBH_ParseEPDesc+0x10c>
 8007b4c:	68bb      	ldr	r3, [r7, #8]
 8007b4e:	78db      	ldrb	r3, [r3, #3]
 8007b50:	f003 0303 	and.w	r3, r3, #3
 8007b54:	2b00      	cmp	r3, #0
 8007b56:	d106      	bne.n	8007b66 <USBH_ParseEPDesc+0x11a>
 8007b58:	68bb      	ldr	r3, [r7, #8]
 8007b5a:	889b      	ldrh	r3, [r3, #4]
 8007b5c:	2b40      	cmp	r3, #64	@ 0x40
 8007b5e:	d956      	bls.n	8007c0e <USBH_ParseEPDesc+0x1c2>
 8007b60:	2303      	movs	r3, #3
 8007b62:	75fb      	strb	r3, [r7, #23]
 8007b64:	e053      	b.n	8007c0e <USBH_ParseEPDesc+0x1c2>
 8007b66:	68bb      	ldr	r3, [r7, #8]
 8007b68:	78db      	ldrb	r3, [r3, #3]
 8007b6a:	f003 0303 	and.w	r3, r3, #3
 8007b6e:	2b01      	cmp	r3, #1
 8007b70:	d10e      	bne.n	8007b90 <USBH_ParseEPDesc+0x144>
 8007b72:	68bb      	ldr	r3, [r7, #8]
 8007b74:	799b      	ldrb	r3, [r3, #6]
 8007b76:	2b00      	cmp	r3, #0
 8007b78:	d007      	beq.n	8007b8a <USBH_ParseEPDesc+0x13e>
 8007b7a:	68bb      	ldr	r3, [r7, #8]
 8007b7c:	799b      	ldrb	r3, [r3, #6]
 8007b7e:	2b10      	cmp	r3, #16
 8007b80:	d803      	bhi.n	8007b8a <USBH_ParseEPDesc+0x13e>
 8007b82:	68bb      	ldr	r3, [r7, #8]
 8007b84:	889b      	ldrh	r3, [r3, #4]
 8007b86:	2b40      	cmp	r3, #64	@ 0x40
 8007b88:	d941      	bls.n	8007c0e <USBH_ParseEPDesc+0x1c2>
 8007b8a:	2303      	movs	r3, #3
 8007b8c:	75fb      	strb	r3, [r7, #23]
 8007b8e:	e03e      	b.n	8007c0e <USBH_ParseEPDesc+0x1c2>
 8007b90:	68bb      	ldr	r3, [r7, #8]
 8007b92:	78db      	ldrb	r3, [r3, #3]
 8007b94:	f003 0303 	and.w	r3, r3, #3
 8007b98:	2b03      	cmp	r3, #3
 8007b9a:	d10b      	bne.n	8007bb4 <USBH_ParseEPDesc+0x168>
 8007b9c:	68bb      	ldr	r3, [r7, #8]
 8007b9e:	799b      	ldrb	r3, [r3, #6]
 8007ba0:	2b00      	cmp	r3, #0
 8007ba2:	d004      	beq.n	8007bae <USBH_ParseEPDesc+0x162>
 8007ba4:	68bb      	ldr	r3, [r7, #8]
 8007ba6:	889b      	ldrh	r3, [r3, #4]
 8007ba8:	f5b3 6f80 	cmp.w	r3, #1024	@ 0x400
 8007bac:	d32f      	bcc.n	8007c0e <USBH_ParseEPDesc+0x1c2>
 8007bae:	2303      	movs	r3, #3
 8007bb0:	75fb      	strb	r3, [r7, #23]
 8007bb2:	e02c      	b.n	8007c0e <USBH_ParseEPDesc+0x1c2>
 8007bb4:	2303      	movs	r3, #3
 8007bb6:	75fb      	strb	r3, [r7, #23]
 8007bb8:	e029      	b.n	8007c0e <USBH_ParseEPDesc+0x1c2>
 8007bba:	68fb      	ldr	r3, [r7, #12]
 8007bbc:	f893 331d 	ldrb.w	r3, [r3, #797]	@ 0x31d
 8007bc0:	2b02      	cmp	r3, #2
 8007bc2:	d120      	bne.n	8007c06 <USBH_ParseEPDesc+0x1ba>
 8007bc4:	68bb      	ldr	r3, [r7, #8]
 8007bc6:	78db      	ldrb	r3, [r3, #3]
 8007bc8:	f003 0303 	and.w	r3, r3, #3
 8007bcc:	2b00      	cmp	r3, #0
 8007bce:	d106      	bne.n	8007bde <USBH_ParseEPDesc+0x192>
 8007bd0:	68bb      	ldr	r3, [r7, #8]
 8007bd2:	889b      	ldrh	r3, [r3, #4]
 8007bd4:	2b08      	cmp	r3, #8
 8007bd6:	d01a      	beq.n	8007c0e <USBH_ParseEPDesc+0x1c2>
 8007bd8:	2303      	movs	r3, #3
 8007bda:	75fb      	strb	r3, [r7, #23]
 8007bdc:	e017      	b.n	8007c0e <USBH_ParseEPDesc+0x1c2>
 8007bde:	68bb      	ldr	r3, [r7, #8]
 8007be0:	78db      	ldrb	r3, [r3, #3]
 8007be2:	f003 0303 	and.w	r3, r3, #3
 8007be6:	2b03      	cmp	r3, #3
 8007be8:	d10a      	bne.n	8007c00 <USBH_ParseEPDesc+0x1b4>
 8007bea:	68bb      	ldr	r3, [r7, #8]
 8007bec:	799b      	ldrb	r3, [r3, #6]
 8007bee:	2b00      	cmp	r3, #0
 8007bf0:	d003      	beq.n	8007bfa <USBH_ParseEPDesc+0x1ae>
 8007bf2:	68bb      	ldr	r3, [r7, #8]
 8007bf4:	889b      	ldrh	r3, [r3, #4]
 8007bf6:	2b08      	cmp	r3, #8
 8007bf8:	d909      	bls.n	8007c0e <USBH_ParseEPDesc+0x1c2>
 8007bfa:	2303      	movs	r3, #3
 8007bfc:	75fb      	strb	r3, [r7, #23]
 8007bfe:	e006      	b.n	8007c0e <USBH_ParseEPDesc+0x1c2>
 8007c00:	2303      	movs	r3, #3
 8007c02:	75fb      	strb	r3, [r7, #23]
 8007c04:	e003      	b.n	8007c0e <USBH_ParseEPDesc+0x1c2>
 8007c06:	2303      	movs	r3, #3
 8007c08:	75fb      	strb	r3, [r7, #23]
 8007c0a:	e000      	b.n	8007c0e <USBH_ParseEPDesc+0x1c2>
 8007c0c:	bf00      	nop
 8007c0e:	7dfb      	ldrb	r3, [r7, #23]
 8007c10:	4618      	mov	r0, r3
 8007c12:	371c      	adds	r7, #28
 8007c14:	46bd      	mov	sp, r7
 8007c16:	f85d 7b04 	ldr.w	r7, [sp], #4
 8007c1a:	4770      	bx	lr

08007c1c <USBH_ParseStringDesc>:
 8007c1c:	b480      	push	{r7}
 8007c1e:	b087      	sub	sp, #28
 8007c20:	af00      	add	r7, sp, #0
 8007c22:	60f8      	str	r0, [r7, #12]
 8007c24:	60b9      	str	r1, [r7, #8]
 8007c26:	4613      	mov	r3, r2
 8007c28:	80fb      	strh	r3, [r7, #6]
 8007c2a:	68fb      	ldr	r3, [r7, #12]
 8007c2c:	3301      	adds	r3, #1
 8007c2e:	781b      	ldrb	r3, [r3, #0]
 8007c30:	2b03      	cmp	r3, #3
 8007c32:	d120      	bne.n	8007c76 <USBH_ParseStringDesc+0x5a>
 8007c34:	68fb      	ldr	r3, [r7, #12]
 8007c36:	781b      	ldrb	r3, [r3, #0]
 8007c38:	1e9a      	subs	r2, r3, #2
 8007c3a:	88fb      	ldrh	r3, [r7, #6]
 8007c3c:	4293      	cmp	r3, r2
 8007c3e:	bf28      	it	cs
 8007c40:	4613      	movcs	r3, r2
 8007c42:	82bb      	strh	r3, [r7, #20]
 8007c44:	68fb      	ldr	r3, [r7, #12]
 8007c46:	3302      	adds	r3, #2
 8007c48:	60fb      	str	r3, [r7, #12]
 8007c4a:	2300      	movs	r3, #0
 8007c4c:	82fb      	strh	r3, [r7, #22]
 8007c4e:	e00b      	b.n	8007c68 <USBH_ParseStringDesc+0x4c>
 8007c50:	8afb      	ldrh	r3, [r7, #22]
 8007c52:	68fa      	ldr	r2, [r7, #12]
 8007c54:	4413      	add	r3, r2
 8007c56:	781a      	ldrb	r2, [r3, #0]
 8007c58:	68bb      	ldr	r3, [r7, #8]
 8007c5a:	701a      	strb	r2, [r3, #0]
 8007c5c:	68bb      	ldr	r3, [r7, #8]
 8007c5e:	3301      	adds	r3, #1
 8007c60:	60bb      	str	r3, [r7, #8]
 8007c62:	8afb      	ldrh	r3, [r7, #22]
 8007c64:	3302      	adds	r3, #2
 8007c66:	82fb      	strh	r3, [r7, #22]
 8007c68:	8afa      	ldrh	r2, [r7, #22]
 8007c6a:	8abb      	ldrh	r3, [r7, #20]
 8007c6c:	429a      	cmp	r2, r3
 8007c6e:	d3ef      	bcc.n	8007c50 <USBH_ParseStringDesc+0x34>
 8007c70:	68bb      	ldr	r3, [r7, #8]
 8007c72:	2200      	movs	r2, #0
 8007c74:	701a      	strb	r2, [r3, #0]
 8007c76:	bf00      	nop
 8007c78:	371c      	adds	r7, #28
 8007c7a:	46bd      	mov	sp, r7
 8007c7c:	f85d 7b04 	ldr.w	r7, [sp], #4
 8007c80:	4770      	bx	lr

08007c82 <USBH_GetNextDesc>:
 8007c82:	b480      	push	{r7}
 8007c84:	b085      	sub	sp, #20
 8007c86:	af00      	add	r7, sp, #0
 8007c88:	6078      	str	r0, [r7, #4]
 8007c8a:	6039      	str	r1, [r7, #0]
 8007c8c:	683b      	ldr	r3, [r7, #0]
 8007c8e:	881b      	ldrh	r3, [r3, #0]
 8007c90:	687a      	ldr	r2, [r7, #4]
 8007c92:	7812      	ldrb	r2, [r2, #0]
 8007c94:	4413      	add	r3, r2
 8007c96:	b29a      	uxth	r2, r3
 8007c98:	683b      	ldr	r3, [r7, #0]
 8007c9a:	801a      	strh	r2, [r3, #0]
 8007c9c:	687b      	ldr	r3, [r7, #4]
 8007c9e:	781b      	ldrb	r3, [r3, #0]
 8007ca0:	461a      	mov	r2, r3
 8007ca2:	687b      	ldr	r3, [r7, #4]
 8007ca4:	4413      	add	r3, r2
 8007ca6:	60fb      	str	r3, [r7, #12]
 8007ca8:	68fb      	ldr	r3, [r7, #12]
 8007caa:	4618      	mov	r0, r3
 8007cac:	3714      	adds	r7, #20
 8007cae:	46bd      	mov	sp, r7
 8007cb0:	f85d 7b04 	ldr.w	r7, [sp], #4
 8007cb4:	4770      	bx	lr

08007cb6 <USBH_CtlReq>:
 8007cb6:	b580      	push	{r7, lr}
 8007cb8:	b086      	sub	sp, #24
 8007cba:	af00      	add	r7, sp, #0
 8007cbc:	60f8      	str	r0, [r7, #12]
 8007cbe:	60b9      	str	r1, [r7, #8]
 8007cc0:	4613      	mov	r3, r2
 8007cc2:	80fb      	strh	r3, [r7, #6]
 8007cc4:	2301      	movs	r3, #1
 8007cc6:	75fb      	strb	r3, [r7, #23]
 8007cc8:	68fb      	ldr	r3, [r7, #12]
 8007cca:	789b      	ldrb	r3, [r3, #2]
 8007ccc:	2b01      	cmp	r3, #1
 8007cce:	d002      	beq.n	8007cd6 <USBH_CtlReq+0x20>
 8007cd0:	2b02      	cmp	r3, #2
 8007cd2:	d00f      	beq.n	8007cf4 <USBH_CtlReq+0x3e>
 8007cd4:	e027      	b.n	8007d26 <USBH_CtlReq+0x70>
 8007cd6:	68fb      	ldr	r3, [r7, #12]
 8007cd8:	68ba      	ldr	r2, [r7, #8]
 8007cda:	609a      	str	r2, [r3, #8]
 8007cdc:	68fb      	ldr	r3, [r7, #12]
 8007cde:	88fa      	ldrh	r2, [r7, #6]
 8007ce0:	819a      	strh	r2, [r3, #12]
 8007ce2:	68fb      	ldr	r3, [r7, #12]
 8007ce4:	2201      	movs	r2, #1
 8007ce6:	761a      	strb	r2, [r3, #24]
 8007ce8:	68fb      	ldr	r3, [r7, #12]
 8007cea:	2202      	movs	r2, #2
 8007cec:	709a      	strb	r2, [r3, #2]
 8007cee:	2301      	movs	r3, #1
 8007cf0:	75fb      	strb	r3, [r7, #23]
 8007cf2:	e018      	b.n	8007d26 <USBH_CtlReq+0x70>
 8007cf4:	68f8      	ldr	r0, [r7, #12]
 8007cf6:	f000 f81b 	bl	8007d30 <USBH_HandleControl>
 8007cfa:	4603      	mov	r3, r0
 8007cfc:	75fb      	strb	r3, [r7, #23]
 8007cfe:	7dfb      	ldrb	r3, [r7, #23]
 8007d00:	2b00      	cmp	r3, #0
 8007d02:	d002      	beq.n	8007d0a <USBH_CtlReq+0x54>
 8007d04:	7dfb      	ldrb	r3, [r7, #23]
 8007d06:	2b03      	cmp	r3, #3
 8007d08:	d106      	bne.n	8007d18 <USBH_CtlReq+0x62>
 8007d0a:	68fb      	ldr	r3, [r7, #12]
 8007d0c:	2201      	movs	r2, #1
 8007d0e:	709a      	strb	r2, [r3, #2]
 8007d10:	68fb      	ldr	r3, [r7, #12]
 8007d12:	2200      	movs	r2, #0
 8007d14:	761a      	strb	r2, [r3, #24]
 8007d16:	e005      	b.n	8007d24 <USBH_CtlReq+0x6e>
 8007d18:	7dfb      	ldrb	r3, [r7, #23]
 8007d1a:	2b02      	cmp	r3, #2
 8007d1c:	d102      	bne.n	8007d24 <USBH_CtlReq+0x6e>
 8007d1e:	68fb      	ldr	r3, [r7, #12]
 8007d20:	2201      	movs	r2, #1
 8007d22:	709a      	strb	r2, [r3, #2]
 8007d24:	bf00      	nop
 8007d26:	7dfb      	ldrb	r3, [r7, #23]
 8007d28:	4618      	mov	r0, r3
 8007d2a:	3718      	adds	r7, #24
 8007d2c:	46bd      	mov	sp, r7
 8007d2e:	bd80      	pop	{r7, pc}

08007d30 <USBH_HandleControl>:
 8007d30:	b580      	push	{r7, lr}
 8007d32:	b086      	sub	sp, #24
 8007d34:	af02      	add	r7, sp, #8
 8007d36:	6078      	str	r0, [r7, #4]
 8007d38:	2301      	movs	r3, #1
 8007d3a:	73fb      	strb	r3, [r7, #15]
 8007d3c:	2300      	movs	r3, #0
 8007d3e:	73bb      	strb	r3, [r7, #14]
 8007d40:	687b      	ldr	r3, [r7, #4]
 8007d42:	7e1b      	ldrb	r3, [r3, #24]
 8007d44:	3b01      	subs	r3, #1
 8007d46:	2b0a      	cmp	r3, #10
 8007d48:	f200 8156 	bhi.w	8007ff8 <USBH_HandleControl+0x2c8>
 8007d4c:	a201      	add	r2, pc, #4	@ (adr r2, 8007d54 <USBH_HandleControl+0x24>)
 8007d4e:	f852 f023 	ldr.w	pc, [r2, r3, lsl #2]
 8007d52:	bf00      	nop
 8007d54:	08007d81 	.word	0x08007d81
 8007d58:	08007d9b 	.word	0x08007d9b
 8007d5c:	08007e05 	.word	0x08007e05
 8007d60:	08007e2b 	.word	0x08007e2b
 8007d64:	08007e63 	.word	0x08007e63
 8007d68:	08007e8d 	.word	0x08007e8d
 8007d6c:	08007edf 	.word	0x08007edf
 8007d70:	08007f01 	.word	0x08007f01
 8007d74:	08007f3d 	.word	0x08007f3d
 8007d78:	08007f63 	.word	0x08007f63
 8007d7c:	08007fa1 	.word	0x08007fa1
 8007d80:	687b      	ldr	r3, [r7, #4]
 8007d82:	f103 0110 	add.w	r1, r3, #16
 8007d86:	687b      	ldr	r3, [r7, #4]
 8007d88:	795b      	ldrb	r3, [r3, #5]
 8007d8a:	461a      	mov	r2, r3
 8007d8c:	6878      	ldr	r0, [r7, #4]
 8007d8e:	f000 f943 	bl	8008018 <USBH_CtlSendSetup>
 8007d92:	687b      	ldr	r3, [r7, #4]
 8007d94:	2202      	movs	r2, #2
 8007d96:	761a      	strb	r2, [r3, #24]
 8007d98:	e139      	b.n	800800e <USBH_HandleControl+0x2de>
 8007d9a:	687b      	ldr	r3, [r7, #4]
 8007d9c:	795b      	ldrb	r3, [r3, #5]
 8007d9e:	4619      	mov	r1, r3
 8007da0:	6878      	ldr	r0, [r7, #4]
 8007da2:	f000 fcc5 	bl	8008730 <USBH_LL_GetURBState>
 8007da6:	4603      	mov	r3, r0
 8007da8:	73bb      	strb	r3, [r7, #14]
 8007daa:	7bbb      	ldrb	r3, [r7, #14]
 8007dac:	2b01      	cmp	r3, #1
 8007dae:	d11e      	bne.n	8007dee <USBH_HandleControl+0xbe>
 8007db0:	687b      	ldr	r3, [r7, #4]
 8007db2:	7c1b      	ldrb	r3, [r3, #16]
 8007db4:	f023 037f 	bic.w	r3, r3, #127	@ 0x7f
 8007db8:	737b      	strb	r3, [r7, #13]
 8007dba:	687b      	ldr	r3, [r7, #4]
 8007dbc:	8adb      	ldrh	r3, [r3, #22]
 8007dbe:	2b00      	cmp	r3, #0
 8007dc0:	d00a      	beq.n	8007dd8 <USBH_HandleControl+0xa8>
 8007dc2:	7b7b      	ldrb	r3, [r7, #13]
 8007dc4:	2b80      	cmp	r3, #128	@ 0x80
 8007dc6:	d103      	bne.n	8007dd0 <USBH_HandleControl+0xa0>
 8007dc8:	687b      	ldr	r3, [r7, #4]
 8007dca:	2203      	movs	r2, #3
 8007dcc:	761a      	strb	r2, [r3, #24]
 8007dce:	e115      	b.n	8007ffc <USBH_HandleControl+0x2cc>
 8007dd0:	687b      	ldr	r3, [r7, #4]
 8007dd2:	2205      	movs	r2, #5
 8007dd4:	761a      	strb	r2, [r3, #24]
 8007dd6:	e111      	b.n	8007ffc <USBH_HandleControl+0x2cc>
 8007dd8:	7b7b      	ldrb	r3, [r7, #13]
 8007dda:	2b80      	cmp	r3, #128	@ 0x80
 8007ddc:	d103      	bne.n	8007de6 <USBH_HandleControl+0xb6>
 8007dde:	687b      	ldr	r3, [r7, #4]
 8007de0:	2209      	movs	r2, #9
 8007de2:	761a      	strb	r2, [r3, #24]
 8007de4:	e10a      	b.n	8007ffc <USBH_HandleControl+0x2cc>
 8007de6:	687b      	ldr	r3, [r7, #4]
 8007de8:	2207      	movs	r2, #7
 8007dea:	761a      	strb	r2, [r3, #24]
 8007dec:	e106      	b.n	8007ffc <USBH_HandleControl+0x2cc>
 8007dee:	7bbb      	ldrb	r3, [r7, #14]
 8007df0:	2b04      	cmp	r3, #4
 8007df2:	d003      	beq.n	8007dfc <USBH_HandleControl+0xcc>
 8007df4:	7bbb      	ldrb	r3, [r7, #14]
 8007df6:	2b02      	cmp	r3, #2
 8007df8:	f040 8100 	bne.w	8007ffc <USBH_HandleControl+0x2cc>
 8007dfc:	687b      	ldr	r3, [r7, #4]
 8007dfe:	220b      	movs	r2, #11
 8007e00:	761a      	strb	r2, [r3, #24]
 8007e02:	e0fb      	b.n	8007ffc <USBH_HandleControl+0x2cc>
 8007e04:	687b      	ldr	r3, [r7, #4]
 8007e06:	f8d3 33c4 	ldr.w	r3, [r3, #964]	@ 0x3c4
 8007e0a:	b29a      	uxth	r2, r3
 8007e0c:	687b      	ldr	r3, [r7, #4]
 8007e0e:	81da      	strh	r2, [r3, #14]
 8007e10:	687b      	ldr	r3, [r7, #4]
 8007e12:	6899      	ldr	r1, [r3, #8]
 8007e14:	687b      	ldr	r3, [r7, #4]
 8007e16:	899a      	ldrh	r2, [r3, #12]
 8007e18:	687b      	ldr	r3, [r7, #4]
 8007e1a:	791b      	ldrb	r3, [r3, #4]
 8007e1c:	6878      	ldr	r0, [r7, #4]
 8007e1e:	f000 f93a 	bl	8008096 <USBH_CtlReceiveData>
 8007e22:	687b      	ldr	r3, [r7, #4]
 8007e24:	2204      	movs	r2, #4
 8007e26:	761a      	strb	r2, [r3, #24]
 8007e28:	e0f1      	b.n	800800e <USBH_HandleControl+0x2de>
 8007e2a:	687b      	ldr	r3, [r7, #4]
 8007e2c:	791b      	ldrb	r3, [r3, #4]
 8007e2e:	4619      	mov	r1, r3
 8007e30:	6878      	ldr	r0, [r7, #4]
 8007e32:	f000 fc7d 	bl	8008730 <USBH_LL_GetURBState>
 8007e36:	4603      	mov	r3, r0
 8007e38:	73bb      	strb	r3, [r7, #14]
 8007e3a:	7bbb      	ldrb	r3, [r7, #14]
 8007e3c:	2b01      	cmp	r3, #1
 8007e3e:	d102      	bne.n	8007e46 <USBH_HandleControl+0x116>
 8007e40:	687b      	ldr	r3, [r7, #4]
 8007e42:	2209      	movs	r2, #9
 8007e44:	761a      	strb	r2, [r3, #24]
 8007e46:	7bbb      	ldrb	r3, [r7, #14]
 8007e48:	2b05      	cmp	r3, #5
 8007e4a:	d102      	bne.n	8007e52 <USBH_HandleControl+0x122>
 8007e4c:	2303      	movs	r3, #3
 8007e4e:	73fb      	strb	r3, [r7, #15]
 8007e50:	e0d6      	b.n	8008000 <USBH_HandleControl+0x2d0>
 8007e52:	7bbb      	ldrb	r3, [r7, #14]
 8007e54:	2b04      	cmp	r3, #4
 8007e56:	f040 80d3 	bne.w	8008000 <USBH_HandleControl+0x2d0>
 8007e5a:	687b      	ldr	r3, [r7, #4]
 8007e5c:	220b      	movs	r2, #11
 8007e5e:	761a      	strb	r2, [r3, #24]
 8007e60:	e0ce      	b.n	8008000 <USBH_HandleControl+0x2d0>
 8007e62:	687b      	ldr	r3, [r7, #4]
 8007e64:	6899      	ldr	r1, [r3, #8]
 8007e66:	687b      	ldr	r3, [r7, #4]
 8007e68:	899a      	ldrh	r2, [r3, #12]
 8007e6a:	687b      	ldr	r3, [r7, #4]
 8007e6c:	795b      	ldrb	r3, [r3, #5]
 8007e6e:	2001      	movs	r0, #1
 8007e70:	9000      	str	r0, [sp, #0]
 8007e72:	6878      	ldr	r0, [r7, #4]
 8007e74:	f000 f8ea 	bl	800804c <USBH_CtlSendData>
 8007e78:	687b      	ldr	r3, [r7, #4]
 8007e7a:	f8d3 33c4 	ldr.w	r3, [r3, #964]	@ 0x3c4
 8007e7e:	b29a      	uxth	r2, r3
 8007e80:	687b      	ldr	r3, [r7, #4]
 8007e82:	81da      	strh	r2, [r3, #14]
 8007e84:	687b      	ldr	r3, [r7, #4]
 8007e86:	2206      	movs	r2, #6
 8007e88:	761a      	strb	r2, [r3, #24]
 8007e8a:	e0c0      	b.n	800800e <USBH_HandleControl+0x2de>
 8007e8c:	687b      	ldr	r3, [r7, #4]
 8007e8e:	795b      	ldrb	r3, [r3, #5]
 8007e90:	4619      	mov	r1, r3
 8007e92:	6878      	ldr	r0, [r7, #4]
 8007e94:	f000 fc4c 	bl	8008730 <USBH_LL_GetURBState>
 8007e98:	4603      	mov	r3, r0
 8007e9a:	73bb      	strb	r3, [r7, #14]
 8007e9c:	7bbb      	ldrb	r3, [r7, #14]
 8007e9e:	2b01      	cmp	r3, #1
 8007ea0:	d103      	bne.n	8007eaa <USBH_HandleControl+0x17a>
 8007ea2:	687b      	ldr	r3, [r7, #4]
 8007ea4:	2207      	movs	r2, #7
 8007ea6:	761a      	strb	r2, [r3, #24]
 8007ea8:	e0ac      	b.n	8008004 <USBH_HandleControl+0x2d4>
 8007eaa:	7bbb      	ldrb	r3, [r7, #14]
 8007eac:	2b05      	cmp	r3, #5
 8007eae:	d105      	bne.n	8007ebc <USBH_HandleControl+0x18c>
 8007eb0:	687b      	ldr	r3, [r7, #4]
 8007eb2:	220c      	movs	r2, #12
 8007eb4:	761a      	strb	r2, [r3, #24]
 8007eb6:	2303      	movs	r3, #3
 8007eb8:	73fb      	strb	r3, [r7, #15]
 8007eba:	e0a3      	b.n	8008004 <USBH_HandleControl+0x2d4>
 8007ebc:	7bbb      	ldrb	r3, [r7, #14]
 8007ebe:	2b02      	cmp	r3, #2
 8007ec0:	d103      	bne.n	8007eca <USBH_HandleControl+0x19a>
 8007ec2:	687b      	ldr	r3, [r7, #4]
 8007ec4:	2205      	movs	r2, #5
 8007ec6:	761a      	strb	r2, [r3, #24]
 8007ec8:	e09c      	b.n	8008004 <USBH_HandleControl+0x2d4>
 8007eca:	7bbb      	ldrb	r3, [r7, #14]
 8007ecc:	2b04      	cmp	r3, #4
 8007ece:	f040 8099 	bne.w	8008004 <USBH_HandleControl+0x2d4>
 8007ed2:	687b      	ldr	r3, [r7, #4]
 8007ed4:	220b      	movs	r2, #11
 8007ed6:	761a      	strb	r2, [r3, #24]
 8007ed8:	2302      	movs	r3, #2
 8007eda:	73fb      	strb	r3, [r7, #15]
 8007edc:	e092      	b.n	8008004 <USBH_HandleControl+0x2d4>
 8007ede:	687b      	ldr	r3, [r7, #4]
 8007ee0:	791b      	ldrb	r3, [r3, #4]
 8007ee2:	2200      	movs	r2, #0
 8007ee4:	2100      	movs	r1, #0
 8007ee6:	6878      	ldr	r0, [r7, #4]
 8007ee8:	f000 f8d5 	bl	8008096 <USBH_CtlReceiveData>
 8007eec:	687b      	ldr	r3, [r7, #4]
 8007eee:	f8d3 33c4 	ldr.w	r3, [r3, #964]	@ 0x3c4
 8007ef2:	b29a      	uxth	r2, r3
 8007ef4:	687b      	ldr	r3, [r7, #4]
 8007ef6:	81da      	strh	r2, [r3, #14]
 8007ef8:	687b      	ldr	r3, [r7, #4]
 8007efa:	2208      	movs	r2, #8
 8007efc:	761a      	strb	r2, [r3, #24]
 8007efe:	e086      	b.n	800800e <USBH_HandleControl+0x2de>
 8007f00:	687b      	ldr	r3, [r7, #4]
 8007f02:	791b      	ldrb	r3, [r3, #4]
 8007f04:	4619      	mov	r1, r3
 8007f06:	6878      	ldr	r0, [r7, #4]
 8007f08:	f000 fc12 	bl	8008730 <USBH_LL_GetURBState>
 8007f0c:	4603      	mov	r3, r0
 8007f0e:	73bb      	strb	r3, [r7, #14]
 8007f10:	7bbb      	ldrb	r3, [r7, #14]
 8007f12:	2b01      	cmp	r3, #1
 8007f14:	d105      	bne.n	8007f22 <USBH_HandleControl+0x1f2>
 8007f16:	687b      	ldr	r3, [r7, #4]
 8007f18:	220d      	movs	r2, #13
 8007f1a:	761a      	strb	r2, [r3, #24]
 8007f1c:	2300      	movs	r3, #0
 8007f1e:	73fb      	strb	r3, [r7, #15]
 8007f20:	e072      	b.n	8008008 <USBH_HandleControl+0x2d8>
 8007f22:	7bbb      	ldrb	r3, [r7, #14]
 8007f24:	2b04      	cmp	r3, #4
 8007f26:	d103      	bne.n	8007f30 <USBH_HandleControl+0x200>
 8007f28:	687b      	ldr	r3, [r7, #4]
 8007f2a:	220b      	movs	r2, #11
 8007f2c:	761a      	strb	r2, [r3, #24]
 8007f2e:	e06b      	b.n	8008008 <USBH_HandleControl+0x2d8>
 8007f30:	7bbb      	ldrb	r3, [r7, #14]
 8007f32:	2b05      	cmp	r3, #5
 8007f34:	d168      	bne.n	8008008 <USBH_HandleControl+0x2d8>
 8007f36:	2303      	movs	r3, #3
 8007f38:	73fb      	strb	r3, [r7, #15]
 8007f3a:	e065      	b.n	8008008 <USBH_HandleControl+0x2d8>
 8007f3c:	687b      	ldr	r3, [r7, #4]
 8007f3e:	795b      	ldrb	r3, [r3, #5]
 8007f40:	2201      	movs	r2, #1
 8007f42:	9200      	str	r2, [sp, #0]
 8007f44:	2200      	movs	r2, #0
 8007f46:	2100      	movs	r1, #0
 8007f48:	6878      	ldr	r0, [r7, #4]
 8007f4a:	f000 f87f 	bl	800804c <USBH_CtlSendData>
 8007f4e:	687b      	ldr	r3, [r7, #4]
 8007f50:	f8d3 33c4 	ldr.w	r3, [r3, #964]	@ 0x3c4
 8007f54:	b29a      	uxth	r2, r3
 8007f56:	687b      	ldr	r3, [r7, #4]
 8007f58:	81da      	strh	r2, [r3, #14]
 8007f5a:	687b      	ldr	r3, [r7, #4]
 8007f5c:	220a      	movs	r2, #10
 8007f5e:	761a      	strb	r2, [r3, #24]
 8007f60:	e055      	b.n	800800e <USBH_HandleControl+0x2de>
 8007f62:	687b      	ldr	r3, [r7, #4]
 8007f64:	795b      	ldrb	r3, [r3, #5]
 8007f66:	4619      	mov	r1, r3
 8007f68:	6878      	ldr	r0, [r7, #4]
 8007f6a:	f000 fbe1 	bl	8008730 <USBH_LL_GetURBState>
 8007f6e:	4603      	mov	r3, r0
 8007f70:	73bb      	strb	r3, [r7, #14]
 8007f72:	7bbb      	ldrb	r3, [r7, #14]
 8007f74:	2b01      	cmp	r3, #1
 8007f76:	d105      	bne.n	8007f84 <USBH_HandleControl+0x254>
 8007f78:	2300      	movs	r3, #0
 8007f7a:	73fb      	strb	r3, [r7, #15]
 8007f7c:	687b      	ldr	r3, [r7, #4]
 8007f7e:	220d      	movs	r2, #13
 8007f80:	761a      	strb	r2, [r3, #24]
 8007f82:	e043      	b.n	800800c <USBH_HandleControl+0x2dc>
 8007f84:	7bbb      	ldrb	r3, [r7, #14]
 8007f86:	2b02      	cmp	r3, #2
 8007f88:	d103      	bne.n	8007f92 <USBH_HandleControl+0x262>
 8007f8a:	687b      	ldr	r3, [r7, #4]
 8007f8c:	2209      	movs	r2, #9
 8007f8e:	761a      	strb	r2, [r3, #24]
 8007f90:	e03c      	b.n	800800c <USBH_HandleControl+0x2dc>
 8007f92:	7bbb      	ldrb	r3, [r7, #14]
 8007f94:	2b04      	cmp	r3, #4
 8007f96:	d139      	bne.n	800800c <USBH_HandleControl+0x2dc>
 8007f98:	687b      	ldr	r3, [r7, #4]
 8007f9a:	220b      	movs	r2, #11
 8007f9c:	761a      	strb	r2, [r3, #24]
 8007f9e:	e035      	b.n	800800c <USBH_HandleControl+0x2dc>
 8007fa0:	687b      	ldr	r3, [r7, #4]
 8007fa2:	7e5b      	ldrb	r3, [r3, #25]
 8007fa4:	3301      	adds	r3, #1
 8007fa6:	b2da      	uxtb	r2, r3
 8007fa8:	687b      	ldr	r3, [r7, #4]
 8007faa:	765a      	strb	r2, [r3, #25]
 8007fac:	687b      	ldr	r3, [r7, #4]
 8007fae:	7e5b      	ldrb	r3, [r3, #25]
 8007fb0:	2b02      	cmp	r3, #2
 8007fb2:	d806      	bhi.n	8007fc2 <USBH_HandleControl+0x292>
 8007fb4:	687b      	ldr	r3, [r7, #4]
 8007fb6:	2201      	movs	r2, #1
 8007fb8:	761a      	strb	r2, [r3, #24]
 8007fba:	687b      	ldr	r3, [r7, #4]
 8007fbc:	2201      	movs	r2, #1
 8007fbe:	709a      	strb	r2, [r3, #2]
 8007fc0:	e025      	b.n	800800e <USBH_HandleControl+0x2de>
 8007fc2:	687b      	ldr	r3, [r7, #4]
 8007fc4:	f8d3 33d4 	ldr.w	r3, [r3, #980]	@ 0x3d4
 8007fc8:	2106      	movs	r1, #6
 8007fca:	6878      	ldr	r0, [r7, #4]
 8007fcc:	4798      	blx	r3
 8007fce:	687b      	ldr	r3, [r7, #4]
 8007fd0:	2200      	movs	r2, #0
 8007fd2:	765a      	strb	r2, [r3, #25]
 8007fd4:	687b      	ldr	r3, [r7, #4]
 8007fd6:	795b      	ldrb	r3, [r3, #5]
 8007fd8:	4619      	mov	r1, r3
 8007fda:	6878      	ldr	r0, [r7, #4]
 8007fdc:	f000 f90c 	bl	80081f8 <USBH_FreePipe>
 8007fe0:	687b      	ldr	r3, [r7, #4]
 8007fe2:	791b      	ldrb	r3, [r3, #4]
 8007fe4:	4619      	mov	r1, r3
 8007fe6:	6878      	ldr	r0, [r7, #4]
 8007fe8:	f000 f906 	bl	80081f8 <USBH_FreePipe>
 8007fec:	687b      	ldr	r3, [r7, #4]
 8007fee:	2200      	movs	r2, #0
 8007ff0:	701a      	strb	r2, [r3, #0]
 8007ff2:	2302      	movs	r3, #2
 8007ff4:	73fb      	strb	r3, [r7, #15]
 8007ff6:	e00a      	b.n	800800e <USBH_HandleControl+0x2de>
 8007ff8:	bf00      	nop
 8007ffa:	e008      	b.n	800800e <USBH_HandleControl+0x2de>
 8007ffc:	bf00      	nop
 8007ffe:	e006      	b.n	800800e <USBH_HandleControl+0x2de>
 8008000:	bf00      	nop
 8008002:	e004      	b.n	800800e <USBH_HandleControl+0x2de>
 8008004:	bf00      	nop
 8008006:	e002      	b.n	800800e <USBH_HandleControl+0x2de>
 8008008:	bf00      	nop
 800800a:	e000      	b.n	800800e <USBH_HandleControl+0x2de>
 800800c:	bf00      	nop
 800800e:	7bfb      	ldrb	r3, [r7, #15]
 8008010:	4618      	mov	r0, r3
 8008012:	3710      	adds	r7, #16
 8008014:	46bd      	mov	sp, r7
 8008016:	bd80      	pop	{r7, pc}

08008018 <USBH_CtlSendSetup>:
 8008018:	b580      	push	{r7, lr}
 800801a:	b088      	sub	sp, #32
 800801c:	af04      	add	r7, sp, #16
 800801e:	60f8      	str	r0, [r7, #12]
 8008020:	60b9      	str	r1, [r7, #8]
 8008022:	4613      	mov	r3, r2
 8008024:	71fb      	strb	r3, [r7, #7]
 8008026:	79f9      	ldrb	r1, [r7, #7]
 8008028:	2300      	movs	r3, #0
 800802a:	9303      	str	r3, [sp, #12]
 800802c:	2308      	movs	r3, #8
 800802e:	9302      	str	r3, [sp, #8]
 8008030:	68bb      	ldr	r3, [r7, #8]
 8008032:	9301      	str	r3, [sp, #4]
 8008034:	2300      	movs	r3, #0
 8008036:	9300      	str	r3, [sp, #0]
 8008038:	2300      	movs	r3, #0
 800803a:	2200      	movs	r2, #0
 800803c:	68f8      	ldr	r0, [r7, #12]
 800803e:	f000 fb46 	bl	80086ce <USBH_LL_SubmitURB>
 8008042:	2300      	movs	r3, #0
 8008044:	4618      	mov	r0, r3
 8008046:	3710      	adds	r7, #16
 8008048:	46bd      	mov	sp, r7
 800804a:	bd80      	pop	{r7, pc}

0800804c <USBH_CtlSendData>:
 800804c:	b580      	push	{r7, lr}
 800804e:	b088      	sub	sp, #32
 8008050:	af04      	add	r7, sp, #16
 8008052:	60f8      	str	r0, [r7, #12]
 8008054:	60b9      	str	r1, [r7, #8]
 8008056:	4611      	mov	r1, r2
 8008058:	461a      	mov	r2, r3
 800805a:	460b      	mov	r3, r1
 800805c:	80fb      	strh	r3, [r7, #6]
 800805e:	4613      	mov	r3, r2
 8008060:	717b      	strb	r3, [r7, #5]
 8008062:	68fb      	ldr	r3, [r7, #12]
 8008064:	f893 331d 	ldrb.w	r3, [r3, #797]	@ 0x31d
 8008068:	2b00      	cmp	r3, #0
 800806a:	d001      	beq.n	8008070 <USBH_CtlSendData+0x24>
 800806c:	2300      	movs	r3, #0
 800806e:	763b      	strb	r3, [r7, #24]
 8008070:	7979      	ldrb	r1, [r7, #5]
 8008072:	7e3b      	ldrb	r3, [r7, #24]
 8008074:	9303      	str	r3, [sp, #12]
 8008076:	88fb      	ldrh	r3, [r7, #6]
 8008078:	9302      	str	r3, [sp, #8]
 800807a:	68bb      	ldr	r3, [r7, #8]
 800807c:	9301      	str	r3, [sp, #4]
 800807e:	2301      	movs	r3, #1
 8008080:	9300      	str	r3, [sp, #0]
 8008082:	2300      	movs	r3, #0
 8008084:	2200      	movs	r2, #0
 8008086:	68f8      	ldr	r0, [r7, #12]
 8008088:	f000 fb21 	bl	80086ce <USBH_LL_SubmitURB>
 800808c:	2300      	movs	r3, #0
 800808e:	4618      	mov	r0, r3
 8008090:	3710      	adds	r7, #16
 8008092:	46bd      	mov	sp, r7
 8008094:	bd80      	pop	{r7, pc}

08008096 <USBH_CtlReceiveData>:
 8008096:	b580      	push	{r7, lr}
 8008098:	b088      	sub	sp, #32
 800809a:	af04      	add	r7, sp, #16
 800809c:	60f8      	str	r0, [r7, #12]
 800809e:	60b9      	str	r1, [r7, #8]
 80080a0:	4611      	mov	r1, r2
 80080a2:	461a      	mov	r2, r3
 80080a4:	460b      	mov	r3, r1
 80080a6:	80fb      	strh	r3, [r7, #6]
 80080a8:	4613      	mov	r3, r2
 80080aa:	717b      	strb	r3, [r7, #5]
 80080ac:	7979      	ldrb	r1, [r7, #5]
 80080ae:	2300      	movs	r3, #0
 80080b0:	9303      	str	r3, [sp, #12]
 80080b2:	88fb      	ldrh	r3, [r7, #6]
 80080b4:	9302      	str	r3, [sp, #8]
 80080b6:	68bb      	ldr	r3, [r7, #8]
 80080b8:	9301      	str	r3, [sp, #4]
 80080ba:	2301      	movs	r3, #1
 80080bc:	9300      	str	r3, [sp, #0]
 80080be:	2300      	movs	r3, #0
 80080c0:	2201      	movs	r2, #1
 80080c2:	68f8      	ldr	r0, [r7, #12]
 80080c4:	f000 fb03 	bl	80086ce <USBH_LL_SubmitURB>
 80080c8:	2300      	movs	r3, #0
 80080ca:	4618      	mov	r0, r3
 80080cc:	3710      	adds	r7, #16
 80080ce:	46bd      	mov	sp, r7
 80080d0:	bd80      	pop	{r7, pc}

080080d2 <USBH_BulkSendData>:
 80080d2:	b580      	push	{r7, lr}
 80080d4:	b088      	sub	sp, #32
 80080d6:	af04      	add	r7, sp, #16
 80080d8:	60f8      	str	r0, [r7, #12]
 80080da:	60b9      	str	r1, [r7, #8]
 80080dc:	4611      	mov	r1, r2
 80080de:	461a      	mov	r2, r3
 80080e0:	460b      	mov	r3, r1
 80080e2:	80fb      	strh	r3, [r7, #6]
 80080e4:	4613      	mov	r3, r2
 80080e6:	717b      	strb	r3, [r7, #5]
 80080e8:	68fb      	ldr	r3, [r7, #12]
 80080ea:	f893 331d 	ldrb.w	r3, [r3, #797]	@ 0x31d
 80080ee:	2b00      	cmp	r3, #0
 80080f0:	d001      	beq.n	80080f6 <USBH_BulkSendData+0x24>
 80080f2:	2300      	movs	r3, #0
 80080f4:	763b      	strb	r3, [r7, #24]
 80080f6:	7979      	ldrb	r1, [r7, #5]
 80080f8:	7e3b      	ldrb	r3, [r7, #24]
 80080fa:	9303      	str	r3, [sp, #12]
 80080fc:	88fb      	ldrh	r3, [r7, #6]
 80080fe:	9302      	str	r3, [sp, #8]
 8008100:	68bb      	ldr	r3, [r7, #8]
 8008102:	9301      	str	r3, [sp, #4]
 8008104:	2301      	movs	r3, #1
 8008106:	9300      	str	r3, [sp, #0]
 8008108:	2302      	movs	r3, #2
 800810a:	2200      	movs	r2, #0
 800810c:	68f8      	ldr	r0, [r7, #12]
 800810e:	f000 fade 	bl	80086ce <USBH_LL_SubmitURB>
 8008112:	2300      	movs	r3, #0
 8008114:	4618      	mov	r0, r3
 8008116:	3710      	adds	r7, #16
 8008118:	46bd      	mov	sp, r7
 800811a:	bd80      	pop	{r7, pc}

0800811c <USBH_BulkReceiveData>:
 800811c:	b580      	push	{r7, lr}
 800811e:	b088      	sub	sp, #32
 8008120:	af04      	add	r7, sp, #16
 8008122:	60f8      	str	r0, [r7, #12]
 8008124:	60b9      	str	r1, [r7, #8]
 8008126:	4611      	mov	r1, r2
 8008128:	461a      	mov	r2, r3
 800812a:	460b      	mov	r3, r1
 800812c:	80fb      	strh	r3, [r7, #6]
 800812e:	4613      	mov	r3, r2
 8008130:	717b      	strb	r3, [r7, #5]
 8008132:	7979      	ldrb	r1, [r7, #5]
 8008134:	2300      	movs	r3, #0
 8008136:	9303      	str	r3, [sp, #12]
 8008138:	88fb      	ldrh	r3, [r7, #6]
 800813a:	9302      	str	r3, [sp, #8]
 800813c:	68bb      	ldr	r3, [r7, #8]
 800813e:	9301      	str	r3, [sp, #4]
 8008140:	2301      	movs	r3, #1
 8008142:	9300      	str	r3, [sp, #0]
 8008144:	2302      	movs	r3, #2
 8008146:	2201      	movs	r2, #1
 8008148:	68f8      	ldr	r0, [r7, #12]
 800814a:	f000 fac0 	bl	80086ce <USBH_LL_SubmitURB>
 800814e:	2300      	movs	r3, #0
 8008150:	4618      	mov	r0, r3
 8008152:	3710      	adds	r7, #16
 8008154:	46bd      	mov	sp, r7
 8008156:	bd80      	pop	{r7, pc}

08008158 <USBH_OpenPipe>:
 8008158:	b580      	push	{r7, lr}
 800815a:	b086      	sub	sp, #24
 800815c:	af04      	add	r7, sp, #16
 800815e:	6078      	str	r0, [r7, #4]
 8008160:	4608      	mov	r0, r1
 8008162:	4611      	mov	r1, r2
 8008164:	461a      	mov	r2, r3
 8008166:	4603      	mov	r3, r0
 8008168:	70fb      	strb	r3, [r7, #3]
 800816a:	460b      	mov	r3, r1
 800816c:	70bb      	strb	r3, [r7, #2]
 800816e:	4613      	mov	r3, r2
 8008170:	707b      	strb	r3, [r7, #1]
 8008172:	7878      	ldrb	r0, [r7, #1]
 8008174:	78ba      	ldrb	r2, [r7, #2]
 8008176:	78f9      	ldrb	r1, [r7, #3]
 8008178:	8b3b      	ldrh	r3, [r7, #24]
 800817a:	9302      	str	r3, [sp, #8]
 800817c:	7d3b      	ldrb	r3, [r7, #20]
 800817e:	9301      	str	r3, [sp, #4]
 8008180:	7c3b      	ldrb	r3, [r7, #16]
 8008182:	9300      	str	r3, [sp, #0]
 8008184:	4603      	mov	r3, r0
 8008186:	6878      	ldr	r0, [r7, #4]
 8008188:	f000 fa53 	bl	8008632 <USBH_LL_OpenPipe>
 800818c:	2300      	movs	r3, #0
 800818e:	4618      	mov	r0, r3
 8008190:	3708      	adds	r7, #8
 8008192:	46bd      	mov	sp, r7
 8008194:	bd80      	pop	{r7, pc}

08008196 <USBH_ClosePipe>:
 8008196:	b580      	push	{r7, lr}
 8008198:	b082      	sub	sp, #8
 800819a:	af00      	add	r7, sp, #0
 800819c:	6078      	str	r0, [r7, #4]
 800819e:	460b      	mov	r3, r1
 80081a0:	70fb      	strb	r3, [r7, #3]
 80081a2:	78fb      	ldrb	r3, [r7, #3]
 80081a4:	4619      	mov	r1, r3
 80081a6:	6878      	ldr	r0, [r7, #4]
 80081a8:	f000 fa72 	bl	8008690 <USBH_LL_ClosePipe>
 80081ac:	2300      	movs	r3, #0
 80081ae:	4618      	mov	r0, r3
 80081b0:	3708      	adds	r7, #8
 80081b2:	46bd      	mov	sp, r7
 80081b4:	bd80      	pop	{r7, pc}

080081b6 <USBH_AllocPipe>:
 80081b6:	b580      	push	{r7, lr}
 80081b8:	b084      	sub	sp, #16
 80081ba:	af00      	add	r7, sp, #0
 80081bc:	6078      	str	r0, [r7, #4]
 80081be:	460b      	mov	r3, r1
 80081c0:	70fb      	strb	r3, [r7, #3]
 80081c2:	6878      	ldr	r0, [r7, #4]
 80081c4:	f000 f836 	bl	8008234 <USBH_GetFreePipe>
 80081c8:	4603      	mov	r3, r0
 80081ca:	81fb      	strh	r3, [r7, #14]
 80081cc:	89fb      	ldrh	r3, [r7, #14]
 80081ce:	f64f 72ff 	movw	r2, #65535	@ 0xffff
 80081d2:	4293      	cmp	r3, r2
 80081d4:	d00a      	beq.n	80081ec <USBH_AllocPipe+0x36>
 80081d6:	78fa      	ldrb	r2, [r7, #3]
 80081d8:	89fb      	ldrh	r3, [r7, #14]
 80081da:	f003 030f 	and.w	r3, r3, #15
 80081de:	f442 4200 	orr.w	r2, r2, #32768	@ 0x8000
 80081e2:	6879      	ldr	r1, [r7, #4]
 80081e4:	33e0      	adds	r3, #224	@ 0xe0
 80081e6:	009b      	lsls	r3, r3, #2
 80081e8:	440b      	add	r3, r1
 80081ea:	605a      	str	r2, [r3, #4]
 80081ec:	89fb      	ldrh	r3, [r7, #14]
 80081ee:	b2db      	uxtb	r3, r3
 80081f0:	4618      	mov	r0, r3
 80081f2:	3710      	adds	r7, #16
 80081f4:	46bd      	mov	sp, r7
 80081f6:	bd80      	pop	{r7, pc}

080081f8 <USBH_FreePipe>:
 80081f8:	b480      	push	{r7}
 80081fa:	b083      	sub	sp, #12
 80081fc:	af00      	add	r7, sp, #0
 80081fe:	6078      	str	r0, [r7, #4]
 8008200:	460b      	mov	r3, r1
 8008202:	70fb      	strb	r3, [r7, #3]
 8008204:	78fb      	ldrb	r3, [r7, #3]
 8008206:	2b0f      	cmp	r3, #15
 8008208:	d80d      	bhi.n	8008226 <USBH_FreePipe+0x2e>
 800820a:	78fb      	ldrb	r3, [r7, #3]
 800820c:	687a      	ldr	r2, [r7, #4]
 800820e:	33e0      	adds	r3, #224	@ 0xe0
 8008210:	009b      	lsls	r3, r3, #2
 8008212:	4413      	add	r3, r2
 8008214:	685a      	ldr	r2, [r3, #4]
 8008216:	78fb      	ldrb	r3, [r7, #3]
 8008218:	f3c2 020e 	ubfx	r2, r2, #0, #15
 800821c:	6879      	ldr	r1, [r7, #4]
 800821e:	33e0      	adds	r3, #224	@ 0xe0
 8008220:	009b      	lsls	r3, r3, #2
 8008222:	440b      	add	r3, r1
 8008224:	605a      	str	r2, [r3, #4]
 8008226:	2300      	movs	r3, #0
 8008228:	4618      	mov	r0, r3
 800822a:	370c      	adds	r7, #12
 800822c:	46bd      	mov	sp, r7
 800822e:	f85d 7b04 	ldr.w	r7, [sp], #4
 8008232:	4770      	bx	lr

08008234 <USBH_GetFreePipe>:
 8008234:	b480      	push	{r7}
 8008236:	b085      	sub	sp, #20
 8008238:	af00      	add	r7, sp, #0
 800823a:	6078      	str	r0, [r7, #4]
 800823c:	2300      	movs	r3, #0
 800823e:	73fb      	strb	r3, [r7, #15]
 8008240:	2300      	movs	r3, #0
 8008242:	73fb      	strb	r3, [r7, #15]
 8008244:	e00f      	b.n	8008266 <USBH_GetFreePipe+0x32>
 8008246:	7bfb      	ldrb	r3, [r7, #15]
 8008248:	687a      	ldr	r2, [r7, #4]
 800824a:	33e0      	adds	r3, #224	@ 0xe0
 800824c:	009b      	lsls	r3, r3, #2
 800824e:	4413      	add	r3, r2
 8008250:	685b      	ldr	r3, [r3, #4]
 8008252:	f403 4300 	and.w	r3, r3, #32768	@ 0x8000
 8008256:	2b00      	cmp	r3, #0
 8008258:	d102      	bne.n	8008260 <USBH_GetFreePipe+0x2c>
 800825a:	7bfb      	ldrb	r3, [r7, #15]
 800825c:	b29b      	uxth	r3, r3
 800825e:	e007      	b.n	8008270 <USBH_GetFreePipe+0x3c>
 8008260:	7bfb      	ldrb	r3, [r7, #15]
 8008262:	3301      	adds	r3, #1
 8008264:	73fb      	strb	r3, [r7, #15]
 8008266:	7bfb      	ldrb	r3, [r7, #15]
 8008268:	2b0f      	cmp	r3, #15
 800826a:	d9ec      	bls.n	8008246 <USBH_GetFreePipe+0x12>
 800826c:	f64f 73ff 	movw	r3, #65535	@ 0xffff
 8008270:	4618      	mov	r0, r3
 8008272:	3714      	adds	r7, #20
 8008274:	46bd      	mov	sp, r7
 8008276:	f85d 7b04 	ldr.w	r7, [sp], #4
 800827a:	4770      	bx	lr

0800827c <MX_USB_HOST_Init>:
 800827c:	b580      	push	{r7, lr}
 800827e:	af00      	add	r7, sp, #0
 8008280:	2201      	movs	r2, #1
 8008282:	490e      	ldr	r1, [pc, #56]	@ (80082bc <MX_USB_HOST_Init+0x40>)
 8008284:	480e      	ldr	r0, [pc, #56]	@ (80082c0 <MX_USB_HOST_Init+0x44>)
 8008286:	f7fe fb15 	bl	80068b4 <USBH_Init>
 800828a:	4603      	mov	r3, r0
 800828c:	2b00      	cmp	r3, #0
 800828e:	d001      	beq.n	8008294 <MX_USB_HOST_Init+0x18>
 8008290:	f7f8 fb5a 	bl	8000948 <Error_Handler>
 8008294:	490b      	ldr	r1, [pc, #44]	@ (80082c4 <MX_USB_HOST_Init+0x48>)
 8008296:	480a      	ldr	r0, [pc, #40]	@ (80082c0 <MX_USB_HOST_Init+0x44>)
 8008298:	f7fe fbb9 	bl	8006a0e <USBH_RegisterClass>
 800829c:	4603      	mov	r3, r0
 800829e:	2b00      	cmp	r3, #0
 80082a0:	d001      	beq.n	80082a6 <MX_USB_HOST_Init+0x2a>
 80082a2:	f7f8 fb51 	bl	8000948 <Error_Handler>
 80082a6:	4806      	ldr	r0, [pc, #24]	@ (80082c0 <MX_USB_HOST_Init+0x44>)
 80082a8:	f7fe fc3d 	bl	8006b26 <USBH_Start>
 80082ac:	4603      	mov	r3, r0
 80082ae:	2b00      	cmp	r3, #0
 80082b0:	d001      	beq.n	80082b6 <MX_USB_HOST_Init+0x3a>
 80082b2:	f7f8 fb49 	bl	8000948 <Error_Handler>
 80082b6:	bf00      	nop
 80082b8:	bd80      	pop	{r7, pc}
 80082ba:	bf00      	nop
 80082bc:	080082dd 	.word	0x080082dd
 80082c0:	20000194 	.word	0x20000194
 80082c4:	2000000c 	.word	0x2000000c

080082c8 <MX_USB_HOST_Process>:
 80082c8:	b580      	push	{r7, lr}
 80082ca:	af00      	add	r7, sp, #0
 80082cc:	4802      	ldr	r0, [pc, #8]	@ (80082d8 <MX_USB_HOST_Process+0x10>)
 80082ce:	f7fe fc3b 	bl	8006b48 <USBH_Process>
 80082d2:	bf00      	nop
 80082d4:	bd80      	pop	{r7, pc}
 80082d6:	bf00      	nop
 80082d8:	20000194 	.word	0x20000194

080082dc <USBH_UserProcess>:
 80082dc:	b480      	push	{r7}
 80082de:	b083      	sub	sp, #12
 80082e0:	af00      	add	r7, sp, #0
 80082e2:	6078      	str	r0, [r7, #4]
 80082e4:	460b      	mov	r3, r1
 80082e6:	70fb      	strb	r3, [r7, #3]
 80082e8:	78fb      	ldrb	r3, [r7, #3]
 80082ea:	3b01      	subs	r3, #1
 80082ec:	2b04      	cmp	r3, #4
 80082ee:	d819      	bhi.n	8008324 <USBH_UserProcess+0x48>
 80082f0:	a201      	add	r2, pc, #4	@ (adr r2, 80082f8 <USBH_UserProcess+0x1c>)
 80082f2:	f852 f023 	ldr.w	pc, [r2, r3, lsl #2]
 80082f6:	bf00      	nop
 80082f8:	08008325 	.word	0x08008325
 80082fc:	08008315 	.word	0x08008315
 8008300:	08008325 	.word	0x08008325
 8008304:	0800831d 	.word	0x0800831d
 8008308:	0800830d 	.word	0x0800830d
 800830c:	4b09      	ldr	r3, [pc, #36]	@ (8008334 <USBH_UserProcess+0x58>)
 800830e:	2203      	movs	r2, #3
 8008310:	701a      	strb	r2, [r3, #0]
 8008312:	e008      	b.n	8008326 <USBH_UserProcess+0x4a>
 8008314:	4b07      	ldr	r3, [pc, #28]	@ (8008334 <USBH_UserProcess+0x58>)
 8008316:	2202      	movs	r2, #2
 8008318:	701a      	strb	r2, [r3, #0]
 800831a:	e004      	b.n	8008326 <USBH_UserProcess+0x4a>
 800831c:	4b05      	ldr	r3, [pc, #20]	@ (8008334 <USBH_UserProcess+0x58>)
 800831e:	2201      	movs	r2, #1
 8008320:	701a      	strb	r2, [r3, #0]
 8008322:	e000      	b.n	8008326 <USBH_UserProcess+0x4a>
 8008324:	bf00      	nop
 8008326:	bf00      	nop
 8008328:	370c      	adds	r7, #12
 800832a:	46bd      	mov	sp, r7
 800832c:	f85d 7b04 	ldr.w	r7, [sp], #4
 8008330:	4770      	bx	lr
 8008332:	bf00      	nop
 8008334:	2000056c 	.word	0x2000056c

08008338 <HAL_HCD_MspInit>:
 8008338:	b580      	push	{r7, lr}
 800833a:	b08a      	sub	sp, #40	@ 0x28
 800833c:	af00      	add	r7, sp, #0
 800833e:	6078      	str	r0, [r7, #4]
 8008340:	f107 0314 	add.w	r3, r7, #20
 8008344:	2200      	movs	r2, #0
 8008346:	601a      	str	r2, [r3, #0]
 8008348:	605a      	str	r2, [r3, #4]
 800834a:	609a      	str	r2, [r3, #8]
 800834c:	60da      	str	r2, [r3, #12]
 800834e:	611a      	str	r2, [r3, #16]
 8008350:	687b      	ldr	r3, [r7, #4]
 8008352:	681b      	ldr	r3, [r3, #0]
 8008354:	f1b3 4fa0 	cmp.w	r3, #1342177280	@ 0x50000000
 8008358:	d147      	bne.n	80083ea <HAL_HCD_MspInit+0xb2>
 800835a:	2300      	movs	r3, #0
 800835c:	613b      	str	r3, [r7, #16]
 800835e:	4b25      	ldr	r3, [pc, #148]	@ (80083f4 <HAL_HCD_MspInit+0xbc>)
 8008360:	6b1b      	ldr	r3, [r3, #48]	@ 0x30
 8008362:	4a24      	ldr	r2, [pc, #144]	@ (80083f4 <HAL_HCD_MspInit+0xbc>)
 8008364:	f043 0301 	orr.w	r3, r3, #1
 8008368:	6313      	str	r3, [r2, #48]	@ 0x30
 800836a:	4b22      	ldr	r3, [pc, #136]	@ (80083f4 <HAL_HCD_MspInit+0xbc>)
 800836c:	6b1b      	ldr	r3, [r3, #48]	@ 0x30
 800836e:	f003 0301 	and.w	r3, r3, #1
 8008372:	613b      	str	r3, [r7, #16]
 8008374:	693b      	ldr	r3, [r7, #16]
 8008376:	f44f 7300 	mov.w	r3, #512	@ 0x200
 800837a:	617b      	str	r3, [r7, #20]
 800837c:	2300      	movs	r3, #0
 800837e:	61bb      	str	r3, [r7, #24]
 8008380:	2300      	movs	r3, #0
 8008382:	61fb      	str	r3, [r7, #28]
 8008384:	f107 0314 	add.w	r3, r7, #20
 8008388:	4619      	mov	r1, r3
 800838a:	481b      	ldr	r0, [pc, #108]	@ (80083f8 <HAL_HCD_MspInit+0xc0>)
 800838c:	f7f8 fe6e 	bl	800106c <HAL_GPIO_Init>
 8008390:	f44f 53e0 	mov.w	r3, #7168	@ 0x1c00
 8008394:	617b      	str	r3, [r7, #20]
 8008396:	2302      	movs	r3, #2
 8008398:	61bb      	str	r3, [r7, #24]
 800839a:	2300      	movs	r3, #0
 800839c:	61fb      	str	r3, [r7, #28]
 800839e:	2300      	movs	r3, #0
 80083a0:	623b      	str	r3, [r7, #32]
 80083a2:	230a      	movs	r3, #10
 80083a4:	627b      	str	r3, [r7, #36]	@ 0x24
 80083a6:	f107 0314 	add.w	r3, r7, #20
 80083aa:	4619      	mov	r1, r3
 80083ac:	4812      	ldr	r0, [pc, #72]	@ (80083f8 <HAL_HCD_MspInit+0xc0>)
 80083ae:	f7f8 fe5d 	bl	800106c <HAL_GPIO_Init>
 80083b2:	4b10      	ldr	r3, [pc, #64]	@ (80083f4 <HAL_HCD_MspInit+0xbc>)
 80083b4:	6b5b      	ldr	r3, [r3, #52]	@ 0x34
 80083b6:	4a0f      	ldr	r2, [pc, #60]	@ (80083f4 <HAL_HCD_MspInit+0xbc>)
 80083b8:	f043 0380 	orr.w	r3, r3, #128	@ 0x80
 80083bc:	6353      	str	r3, [r2, #52]	@ 0x34
 80083be:	2300      	movs	r3, #0
 80083c0:	60fb      	str	r3, [r7, #12]
 80083c2:	4b0c      	ldr	r3, [pc, #48]	@ (80083f4 <HAL_HCD_MspInit+0xbc>)
 80083c4:	6c5b      	ldr	r3, [r3, #68]	@ 0x44
 80083c6:	4a0b      	ldr	r2, [pc, #44]	@ (80083f4 <HAL_HCD_MspInit+0xbc>)
 80083c8:	f443 4380 	orr.w	r3, r3, #16384	@ 0x4000
 80083cc:	6453      	str	r3, [r2, #68]	@ 0x44
 80083ce:	4b09      	ldr	r3, [pc, #36]	@ (80083f4 <HAL_HCD_MspInit+0xbc>)
 80083d0:	6c5b      	ldr	r3, [r3, #68]	@ 0x44
 80083d2:	f403 4380 	and.w	r3, r3, #16384	@ 0x4000
 80083d6:	60fb      	str	r3, [r7, #12]
 80083d8:	68fb      	ldr	r3, [r7, #12]
 80083da:	2200      	movs	r2, #0
 80083dc:	2100      	movs	r1, #0
 80083de:	2043      	movs	r0, #67	@ 0x43
 80083e0:	f7f8 fe0d 	bl	8000ffe <HAL_NVIC_SetPriority>
 80083e4:	2043      	movs	r0, #67	@ 0x43
 80083e6:	f7f8 fe26 	bl	8001036 <HAL_NVIC_EnableIRQ>
 80083ea:	bf00      	nop
 80083ec:	3728      	adds	r7, #40	@ 0x28
 80083ee:	46bd      	mov	sp, r7
 80083f0:	bd80      	pop	{r7, pc}
 80083f2:	bf00      	nop
 80083f4:	40023800 	.word	0x40023800
 80083f8:	40020000 	.word	0x40020000

080083fc <HAL_HCD_SOF_Callback>:
 80083fc:	b580      	push	{r7, lr}
 80083fe:	b082      	sub	sp, #8
 8008400:	af00      	add	r7, sp, #0
 8008402:	6078      	str	r0, [r7, #4]
 8008404:	687b      	ldr	r3, [r7, #4]
 8008406:	f8d3 33dc 	ldr.w	r3, [r3, #988]	@ 0x3dc
 800840a:	4618      	mov	r0, r3
 800840c:	f7fe ff73 	bl	80072f6 <USBH_LL_IncTimer>
 8008410:	bf00      	nop
 8008412:	3708      	adds	r7, #8
 8008414:	46bd      	mov	sp, r7
 8008416:	bd80      	pop	{r7, pc}

08008418 <HAL_HCD_Connect_Callback>:
 8008418:	b580      	push	{r7, lr}
 800841a:	b082      	sub	sp, #8
 800841c:	af00      	add	r7, sp, #0
 800841e:	6078      	str	r0, [r7, #4]
 8008420:	687b      	ldr	r3, [r7, #4]
 8008422:	f8d3 33dc 	ldr.w	r3, [r3, #988]	@ 0x3dc
 8008426:	4618      	mov	r0, r3
 8008428:	f7fe ffab 	bl	8007382 <USBH_LL_Connect>
 800842c:	bf00      	nop
 800842e:	3708      	adds	r7, #8
 8008430:	46bd      	mov	sp, r7
 8008432:	bd80      	pop	{r7, pc}

08008434 <HAL_HCD_Disconnect_Callback>:
 8008434:	b580      	push	{r7, lr}
 8008436:	b082      	sub	sp, #8
 8008438:	af00      	add	r7, sp, #0
 800843a:	6078      	str	r0, [r7, #4]
 800843c:	687b      	ldr	r3, [r7, #4]
 800843e:	f8d3 33dc 	ldr.w	r3, [r3, #988]	@ 0x3dc
 8008442:	4618      	mov	r0, r3
 8008444:	f7fe ffb4 	bl	80073b0 <USBH_LL_Disconnect>
 8008448:	bf00      	nop
 800844a:	3708      	adds	r7, #8
 800844c:	46bd      	mov	sp, r7
 800844e:	bd80      	pop	{r7, pc}

08008450 <HAL_HCD_HC_NotifyURBChange_Callback>:
 8008450:	b480      	push	{r7}
 8008452:	b083      	sub	sp, #12
 8008454:	af00      	add	r7, sp, #0
 8008456:	6078      	str	r0, [r7, #4]
 8008458:	460b      	mov	r3, r1
 800845a:	70fb      	strb	r3, [r7, #3]
 800845c:	4613      	mov	r3, r2
 800845e:	70bb      	strb	r3, [r7, #2]
 8008460:	bf00      	nop
 8008462:	370c      	adds	r7, #12
 8008464:	46bd      	mov	sp, r7
 8008466:	f85d 7b04 	ldr.w	r7, [sp], #4
 800846a:	4770      	bx	lr

0800846c <HAL_HCD_PortEnabled_Callback>:
 800846c:	b580      	push	{r7, lr}
 800846e:	b082      	sub	sp, #8
 8008470:	af00      	add	r7, sp, #0
 8008472:	6078      	str	r0, [r7, #4]
 8008474:	687b      	ldr	r3, [r7, #4]
 8008476:	f8d3 33dc 	ldr.w	r3, [r3, #988]	@ 0x3dc
 800847a:	4618      	mov	r0, r3
 800847c:	f7fe ff65 	bl	800734a <USBH_LL_PortEnabled>
 8008480:	bf00      	nop
 8008482:	3708      	adds	r7, #8
 8008484:	46bd      	mov	sp, r7
 8008486:	bd80      	pop	{r7, pc}

08008488 <HAL_HCD_PortDisabled_Callback>:
 8008488:	b580      	push	{r7, lr}
 800848a:	b082      	sub	sp, #8
 800848c:	af00      	add	r7, sp, #0
 800848e:	6078      	str	r0, [r7, #4]
 8008490:	687b      	ldr	r3, [r7, #4]
 8008492:	f8d3 33dc 	ldr.w	r3, [r3, #988]	@ 0x3dc
 8008496:	4618      	mov	r0, r3
 8008498:	f7fe ff65 	bl	8007366 <USBH_LL_PortDisabled>
 800849c:	bf00      	nop
 800849e:	3708      	adds	r7, #8
 80084a0:	46bd      	mov	sp, r7
 80084a2:	bd80      	pop	{r7, pc}

080084a4 <USBH_LL_Init>:
 80084a4:	b580      	push	{r7, lr}
 80084a6:	b082      	sub	sp, #8
 80084a8:	af00      	add	r7, sp, #0
 80084aa:	6078      	str	r0, [r7, #4]
 80084ac:	687b      	ldr	r3, [r7, #4]
 80084ae:	f893 33cc 	ldrb.w	r3, [r3, #972]	@ 0x3cc
 80084b2:	2b01      	cmp	r3, #1
 80084b4:	d12a      	bne.n	800850c <USBH_LL_Init+0x68>
 80084b6:	4a18      	ldr	r2, [pc, #96]	@ (8008518 <USBH_LL_Init+0x74>)
 80084b8:	687b      	ldr	r3, [r7, #4]
 80084ba:	f8c2 33dc 	str.w	r3, [r2, #988]	@ 0x3dc
 80084be:	687b      	ldr	r3, [r7, #4]
 80084c0:	4a15      	ldr	r2, [pc, #84]	@ (8008518 <USBH_LL_Init+0x74>)
 80084c2:	f8c3 23d0 	str.w	r2, [r3, #976]	@ 0x3d0
 80084c6:	4b14      	ldr	r3, [pc, #80]	@ (8008518 <USBH_LL_Init+0x74>)
 80084c8:	f04f 42a0 	mov.w	r2, #1342177280	@ 0x50000000
 80084cc:	601a      	str	r2, [r3, #0]
 80084ce:	4b12      	ldr	r3, [pc, #72]	@ (8008518 <USBH_LL_Init+0x74>)
 80084d0:	2208      	movs	r2, #8
 80084d2:	715a      	strb	r2, [r3, #5]
 80084d4:	4b10      	ldr	r3, [pc, #64]	@ (8008518 <USBH_LL_Init+0x74>)
 80084d6:	2201      	movs	r2, #1
 80084d8:	71da      	strb	r2, [r3, #7]
 80084da:	4b0f      	ldr	r3, [pc, #60]	@ (8008518 <USBH_LL_Init+0x74>)
 80084dc:	2200      	movs	r2, #0
 80084de:	719a      	strb	r2, [r3, #6]
 80084e0:	4b0d      	ldr	r3, [pc, #52]	@ (8008518 <USBH_LL_Init+0x74>)
 80084e2:	2202      	movs	r2, #2
 80084e4:	725a      	strb	r2, [r3, #9]
 80084e6:	4b0c      	ldr	r3, [pc, #48]	@ (8008518 <USBH_LL_Init+0x74>)
 80084e8:	2200      	movs	r2, #0
 80084ea:	729a      	strb	r2, [r3, #10]
 80084ec:	480a      	ldr	r0, [pc, #40]	@ (8008518 <USBH_LL_Init+0x74>)
 80084ee:	f7f8 ff8a 	bl	8001406 <HAL_HCD_Init>
 80084f2:	4603      	mov	r3, r0
 80084f4:	2b00      	cmp	r3, #0
 80084f6:	d001      	beq.n	80084fc <USBH_LL_Init+0x58>
 80084f8:	f7f8 fa26 	bl	8000948 <Error_Handler>
 80084fc:	4806      	ldr	r0, [pc, #24]	@ (8008518 <USBH_LL_Init+0x74>)
 80084fe:	f7f9 fbeb 	bl	8001cd8 <HAL_HCD_GetCurrentFrame>
 8008502:	4603      	mov	r3, r0
 8008504:	4619      	mov	r1, r3
 8008506:	6878      	ldr	r0, [r7, #4]
 8008508:	f7fe fee6 	bl	80072d8 <USBH_LL_SetTimer>
 800850c:	2300      	movs	r3, #0
 800850e:	4618      	mov	r0, r3
 8008510:	3708      	adds	r7, #8
 8008512:	46bd      	mov	sp, r7
 8008514:	bd80      	pop	{r7, pc}
 8008516:	bf00      	nop
 8008518:	20000570 	.word	0x20000570

0800851c <USBH_LL_Start>:
 800851c:	b580      	push	{r7, lr}
 800851e:	b084      	sub	sp, #16
 8008520:	af00      	add	r7, sp, #0
 8008522:	6078      	str	r0, [r7, #4]
 8008524:	2300      	movs	r3, #0
 8008526:	73fb      	strb	r3, [r7, #15]
 8008528:	2300      	movs	r3, #0
 800852a:	73bb      	strb	r3, [r7, #14]
 800852c:	687b      	ldr	r3, [r7, #4]
 800852e:	f8d3 33d0 	ldr.w	r3, [r3, #976]	@ 0x3d0
 8008532:	4618      	mov	r0, r3
 8008534:	f7f9 fb58 	bl	8001be8 <HAL_HCD_Start>
 8008538:	4603      	mov	r3, r0
 800853a:	73fb      	strb	r3, [r7, #15]
 800853c:	7bfb      	ldrb	r3, [r7, #15]
 800853e:	4618      	mov	r0, r3
 8008540:	f000 f95e 	bl	8008800 <USBH_Get_USB_Status>
 8008544:	4603      	mov	r3, r0
 8008546:	73bb      	strb	r3, [r7, #14]
 8008548:	7bbb      	ldrb	r3, [r7, #14]
 800854a:	4618      	mov	r0, r3
 800854c:	3710      	adds	r7, #16
 800854e:	46bd      	mov	sp, r7
 8008550:	bd80      	pop	{r7, pc}

08008552 <USBH_LL_Stop>:
 8008552:	b580      	push	{r7, lr}
 8008554:	b084      	sub	sp, #16
 8008556:	af00      	add	r7, sp, #0
 8008558:	6078      	str	r0, [r7, #4]
 800855a:	2300      	movs	r3, #0
 800855c:	73fb      	strb	r3, [r7, #15]
 800855e:	2300      	movs	r3, #0
 8008560:	73bb      	strb	r3, [r7, #14]
 8008562:	687b      	ldr	r3, [r7, #4]
 8008564:	f8d3 33d0 	ldr.w	r3, [r3, #976]	@ 0x3d0
 8008568:	4618      	mov	r0, r3
 800856a:	f7f9 fb60 	bl	8001c2e <HAL_HCD_Stop>
 800856e:	4603      	mov	r3, r0
 8008570:	73fb      	strb	r3, [r7, #15]
 8008572:	7bfb      	ldrb	r3, [r7, #15]
 8008574:	4618      	mov	r0, r3
 8008576:	f000 f943 	bl	8008800 <USBH_Get_USB_Status>
 800857a:	4603      	mov	r3, r0
 800857c:	73bb      	strb	r3, [r7, #14]
 800857e:	7bbb      	ldrb	r3, [r7, #14]
 8008580:	4618      	mov	r0, r3
 8008582:	3710      	adds	r7, #16
 8008584:	46bd      	mov	sp, r7
 8008586:	bd80      	pop	{r7, pc}

08008588 <USBH_LL_GetSpeed>:
 8008588:	b580      	push	{r7, lr}
 800858a:	b084      	sub	sp, #16
 800858c:	af00      	add	r7, sp, #0
 800858e:	6078      	str	r0, [r7, #4]
 8008590:	2301      	movs	r3, #1
 8008592:	73fb      	strb	r3, [r7, #15]
 8008594:	687b      	ldr	r3, [r7, #4]
 8008596:	f8d3 33d0 	ldr.w	r3, [r3, #976]	@ 0x3d0
 800859a:	4618      	mov	r0, r3
 800859c:	f7f9 fbaa 	bl	8001cf4 <HAL_HCD_GetCurrentSpeed>
 80085a0:	4603      	mov	r3, r0
 80085a2:	2b02      	cmp	r3, #2
 80085a4:	d00c      	beq.n	80085c0 <USBH_LL_GetSpeed+0x38>
 80085a6:	2b02      	cmp	r3, #2
 80085a8:	d80d      	bhi.n	80085c6 <USBH_LL_GetSpeed+0x3e>
 80085aa:	2b00      	cmp	r3, #0
 80085ac:	d002      	beq.n	80085b4 <USBH_LL_GetSpeed+0x2c>
 80085ae:	2b01      	cmp	r3, #1
 80085b0:	d003      	beq.n	80085ba <USBH_LL_GetSpeed+0x32>
 80085b2:	e008      	b.n	80085c6 <USBH_LL_GetSpeed+0x3e>
 80085b4:	2300      	movs	r3, #0
 80085b6:	73fb      	strb	r3, [r7, #15]
 80085b8:	e008      	b.n	80085cc <USBH_LL_GetSpeed+0x44>
 80085ba:	2301      	movs	r3, #1
 80085bc:	73fb      	strb	r3, [r7, #15]
 80085be:	e005      	b.n	80085cc <USBH_LL_GetSpeed+0x44>
 80085c0:	2302      	movs	r3, #2
 80085c2:	73fb      	strb	r3, [r7, #15]
 80085c4:	e002      	b.n	80085cc <USBH_LL_GetSpeed+0x44>
 80085c6:	2301      	movs	r3, #1
 80085c8:	73fb      	strb	r3, [r7, #15]
 80085ca:	bf00      	nop
 80085cc:	7bfb      	ldrb	r3, [r7, #15]
 80085ce:	4618      	mov	r0, r3
 80085d0:	3710      	adds	r7, #16
 80085d2:	46bd      	mov	sp, r7
 80085d4:	bd80      	pop	{r7, pc}

080085d6 <USBH_LL_ResetPort>:
 80085d6:	b580      	push	{r7, lr}
 80085d8:	b084      	sub	sp, #16
 80085da:	af00      	add	r7, sp, #0
 80085dc:	6078      	str	r0, [r7, #4]
 80085de:	2300      	movs	r3, #0
 80085e0:	73fb      	strb	r3, [r7, #15]
 80085e2:	2300      	movs	r3, #0
 80085e4:	73bb      	strb	r3, [r7, #14]
 80085e6:	687b      	ldr	r3, [r7, #4]
 80085e8:	f8d3 33d0 	ldr.w	r3, [r3, #976]	@ 0x3d0
 80085ec:	4618      	mov	r0, r3
 80085ee:	f7f9 fb3b 	bl	8001c68 <HAL_HCD_ResetPort>
 80085f2:	4603      	mov	r3, r0
 80085f4:	73fb      	strb	r3, [r7, #15]
 80085f6:	7bfb      	ldrb	r3, [r7, #15]
 80085f8:	4618      	mov	r0, r3
 80085fa:	f000 f901 	bl	8008800 <USBH_Get_USB_Status>
 80085fe:	4603      	mov	r3, r0
 8008600:	73bb      	strb	r3, [r7, #14]
 8008602:	7bbb      	ldrb	r3, [r7, #14]
 8008604:	4618      	mov	r0, r3
 8008606:	3710      	adds	r7, #16
 8008608:	46bd      	mov	sp, r7
 800860a:	bd80      	pop	{r7, pc}

0800860c <USBH_LL_GetLastXferSize>:
 800860c:	b580      	push	{r7, lr}
 800860e:	b082      	sub	sp, #8
 8008610:	af00      	add	r7, sp, #0
 8008612:	6078      	str	r0, [r7, #4]
 8008614:	460b      	mov	r3, r1
 8008616:	70fb      	strb	r3, [r7, #3]
 8008618:	687b      	ldr	r3, [r7, #4]
 800861a:	f8d3 33d0 	ldr.w	r3, [r3, #976]	@ 0x3d0
 800861e:	78fa      	ldrb	r2, [r7, #3]
 8008620:	4611      	mov	r1, r2
 8008622:	4618      	mov	r0, r3
 8008624:	f7f9 fb43 	bl	8001cae <HAL_HCD_HC_GetXferCount>
 8008628:	4603      	mov	r3, r0
 800862a:	4618      	mov	r0, r3
 800862c:	3708      	adds	r7, #8
 800862e:	46bd      	mov	sp, r7
 8008630:	bd80      	pop	{r7, pc}

08008632 <USBH_LL_OpenPipe>:
 8008632:	b590      	push	{r4, r7, lr}
 8008634:	b089      	sub	sp, #36	@ 0x24
 8008636:	af04      	add	r7, sp, #16
 8008638:	6078      	str	r0, [r7, #4]
 800863a:	4608      	mov	r0, r1
 800863c:	4611      	mov	r1, r2
 800863e:	461a      	mov	r2, r3
 8008640:	4603      	mov	r3, r0
 8008642:	70fb      	strb	r3, [r7, #3]
 8008644:	460b      	mov	r3, r1
 8008646:	70bb      	strb	r3, [r7, #2]
 8008648:	4613      	mov	r3, r2
 800864a:	707b      	strb	r3, [r7, #1]
 800864c:	2300      	movs	r3, #0
 800864e:	73fb      	strb	r3, [r7, #15]
 8008650:	2300      	movs	r3, #0
 8008652:	73bb      	strb	r3, [r7, #14]
 8008654:	687b      	ldr	r3, [r7, #4]
 8008656:	f8d3 03d0 	ldr.w	r0, [r3, #976]	@ 0x3d0
 800865a:	787c      	ldrb	r4, [r7, #1]
 800865c:	78ba      	ldrb	r2, [r7, #2]
 800865e:	78f9      	ldrb	r1, [r7, #3]
 8008660:	8d3b      	ldrh	r3, [r7, #40]	@ 0x28
 8008662:	9302      	str	r3, [sp, #8]
 8008664:	f897 3024 	ldrb.w	r3, [r7, #36]	@ 0x24
 8008668:	9301      	str	r3, [sp, #4]
 800866a:	f897 3020 	ldrb.w	r3, [r7, #32]
 800866e:	9300      	str	r3, [sp, #0]
 8008670:	4623      	mov	r3, r4
 8008672:	f7f8 ff2f 	bl	80014d4 <HAL_HCD_HC_Init>
 8008676:	4603      	mov	r3, r0
 8008678:	73fb      	strb	r3, [r7, #15]
 800867a:	7bfb      	ldrb	r3, [r7, #15]
 800867c:	4618      	mov	r0, r3
 800867e:	f000 f8bf 	bl	8008800 <USBH_Get_USB_Status>
 8008682:	4603      	mov	r3, r0
 8008684:	73bb      	strb	r3, [r7, #14]
 8008686:	7bbb      	ldrb	r3, [r7, #14]
 8008688:	4618      	mov	r0, r3
 800868a:	3714      	adds	r7, #20
 800868c:	46bd      	mov	sp, r7
 800868e:	bd90      	pop	{r4, r7, pc}

08008690 <USBH_LL_ClosePipe>:
 8008690:	b580      	push	{r7, lr}
 8008692:	b084      	sub	sp, #16
 8008694:	af00      	add	r7, sp, #0
 8008696:	6078      	str	r0, [r7, #4]
 8008698:	460b      	mov	r3, r1
 800869a:	70fb      	strb	r3, [r7, #3]
 800869c:	2300      	movs	r3, #0
 800869e:	73fb      	strb	r3, [r7, #15]
 80086a0:	2300      	movs	r3, #0
 80086a2:	73bb      	strb	r3, [r7, #14]
 80086a4:	687b      	ldr	r3, [r7, #4]
 80086a6:	f8d3 33d0 	ldr.w	r3, [r3, #976]	@ 0x3d0
 80086aa:	78fa      	ldrb	r2, [r7, #3]
 80086ac:	4611      	mov	r1, r2
 80086ae:	4618      	mov	r0, r3
 80086b0:	f7f8 ffc8 	bl	8001644 <HAL_HCD_HC_Halt>
 80086b4:	4603      	mov	r3, r0
 80086b6:	73fb      	strb	r3, [r7, #15]
 80086b8:	7bfb      	ldrb	r3, [r7, #15]
 80086ba:	4618      	mov	r0, r3
 80086bc:	f000 f8a0 	bl	8008800 <USBH_Get_USB_Status>
 80086c0:	4603      	mov	r3, r0
 80086c2:	73bb      	strb	r3, [r7, #14]
 80086c4:	7bbb      	ldrb	r3, [r7, #14]
 80086c6:	4618      	mov	r0, r3
 80086c8:	3710      	adds	r7, #16
 80086ca:	46bd      	mov	sp, r7
 80086cc:	bd80      	pop	{r7, pc}

080086ce <USBH_LL_SubmitURB>:
 80086ce:	b590      	push	{r4, r7, lr}
 80086d0:	b089      	sub	sp, #36	@ 0x24
 80086d2:	af04      	add	r7, sp, #16
 80086d4:	6078      	str	r0, [r7, #4]
 80086d6:	4608      	mov	r0, r1
 80086d8:	4611      	mov	r1, r2
 80086da:	461a      	mov	r2, r3
 80086dc:	4603      	mov	r3, r0
 80086de:	70fb      	strb	r3, [r7, #3]
 80086e0:	460b      	mov	r3, r1
 80086e2:	70bb      	strb	r3, [r7, #2]
 80086e4:	4613      	mov	r3, r2
 80086e6:	707b      	strb	r3, [r7, #1]
 80086e8:	2300      	movs	r3, #0
 80086ea:	73fb      	strb	r3, [r7, #15]
 80086ec:	2300      	movs	r3, #0
 80086ee:	73bb      	strb	r3, [r7, #14]
 80086f0:	687b      	ldr	r3, [r7, #4]
 80086f2:	f8d3 03d0 	ldr.w	r0, [r3, #976]	@ 0x3d0
 80086f6:	787c      	ldrb	r4, [r7, #1]
 80086f8:	78ba      	ldrb	r2, [r7, #2]
 80086fa:	78f9      	ldrb	r1, [r7, #3]
 80086fc:	f897 302c 	ldrb.w	r3, [r7, #44]	@ 0x2c
 8008700:	9303      	str	r3, [sp, #12]
 8008702:	8d3b      	ldrh	r3, [r7, #40]	@ 0x28
 8008704:	9302      	str	r3, [sp, #8]
 8008706:	6a7b      	ldr	r3, [r7, #36]	@ 0x24
 8008708:	9301      	str	r3, [sp, #4]
 800870a:	f897 3020 	ldrb.w	r3, [r7, #32]
 800870e:	9300      	str	r3, [sp, #0]
 8008710:	4623      	mov	r3, r4
 8008712:	f7f8 ffbb 	bl	800168c <HAL_HCD_HC_SubmitRequest>
 8008716:	4603      	mov	r3, r0
 8008718:	73fb      	strb	r3, [r7, #15]
 800871a:	7bfb      	ldrb	r3, [r7, #15]
 800871c:	4618      	mov	r0, r3
 800871e:	f000 f86f 	bl	8008800 <USBH_Get_USB_Status>
 8008722:	4603      	mov	r3, r0
 8008724:	73bb      	strb	r3, [r7, #14]
 8008726:	7bbb      	ldrb	r3, [r7, #14]
 8008728:	4618      	mov	r0, r3
 800872a:	3714      	adds	r7, #20
 800872c:	46bd      	mov	sp, r7
 800872e:	bd90      	pop	{r4, r7, pc}

08008730 <USBH_LL_GetURBState>:
 8008730:	b580      	push	{r7, lr}
 8008732:	b082      	sub	sp, #8
 8008734:	af00      	add	r7, sp, #0
 8008736:	6078      	str	r0, [r7, #4]
 8008738:	460b      	mov	r3, r1
 800873a:	70fb      	strb	r3, [r7, #3]
 800873c:	687b      	ldr	r3, [r7, #4]
 800873e:	f8d3 33d0 	ldr.w	r3, [r3, #976]	@ 0x3d0
 8008742:	78fa      	ldrb	r2, [r7, #3]
 8008744:	4611      	mov	r1, r2
 8008746:	4618      	mov	r0, r3
 8008748:	f7f9 fa9c 	bl	8001c84 <HAL_HCD_HC_GetURBState>
 800874c:	4603      	mov	r3, r0
 800874e:	4618      	mov	r0, r3
 8008750:	3708      	adds	r7, #8
 8008752:	46bd      	mov	sp, r7
 8008754:	bd80      	pop	{r7, pc}

08008756 <USBH_LL_DriverVBUS>:
 8008756:	b580      	push	{r7, lr}
 8008758:	b082      	sub	sp, #8
 800875a:	af00      	add	r7, sp, #0
 800875c:	6078      	str	r0, [r7, #4]
 800875e:	460b      	mov	r3, r1
 8008760:	70fb      	strb	r3, [r7, #3]
 8008762:	687b      	ldr	r3, [r7, #4]
 8008764:	f893 33cc 	ldrb.w	r3, [r3, #972]	@ 0x3cc
 8008768:	2b01      	cmp	r3, #1
 800876a:	d103      	bne.n	8008774 <USBH_LL_DriverVBUS+0x1e>
 800876c:	78fb      	ldrb	r3, [r7, #3]
 800876e:	4618      	mov	r0, r3
 8008770:	f000 f872 	bl	8008858 <MX_DriverVbusFS>
 8008774:	20c8      	movs	r0, #200	@ 0xc8
 8008776:	f7f8 fb43 	bl	8000e00 <HAL_Delay>
 800877a:	2300      	movs	r3, #0
 800877c:	4618      	mov	r0, r3
 800877e:	3708      	adds	r7, #8
 8008780:	46bd      	mov	sp, r7
 8008782:	bd80      	pop	{r7, pc}

08008784 <USBH_LL_SetToggle>:
 8008784:	b480      	push	{r7}
 8008786:	b085      	sub	sp, #20
 8008788:	af00      	add	r7, sp, #0
 800878a:	6078      	str	r0, [r7, #4]
 800878c:	460b      	mov	r3, r1
 800878e:	70fb      	strb	r3, [r7, #3]
 8008790:	4613      	mov	r3, r2
 8008792:	70bb      	strb	r3, [r7, #2]
 8008794:	687b      	ldr	r3, [r7, #4]
 8008796:	f8d3 33d0 	ldr.w	r3, [r3, #976]	@ 0x3d0
 800879a:	60fb      	str	r3, [r7, #12]
 800879c:	78fa      	ldrb	r2, [r7, #3]
 800879e:	68f9      	ldr	r1, [r7, #12]
 80087a0:	4613      	mov	r3, r2
 80087a2:	011b      	lsls	r3, r3, #4
 80087a4:	1a9b      	subs	r3, r3, r2
 80087a6:	009b      	lsls	r3, r3, #2
 80087a8:	440b      	add	r3, r1
 80087aa:	3317      	adds	r3, #23
 80087ac:	781b      	ldrb	r3, [r3, #0]
 80087ae:	2b00      	cmp	r3, #0
 80087b0:	d00a      	beq.n	80087c8 <USBH_LL_SetToggle+0x44>
 80087b2:	78fa      	ldrb	r2, [r7, #3]
 80087b4:	68f9      	ldr	r1, [r7, #12]
 80087b6:	4613      	mov	r3, r2
 80087b8:	011b      	lsls	r3, r3, #4
 80087ba:	1a9b      	subs	r3, r3, r2
 80087bc:	009b      	lsls	r3, r3, #2
 80087be:	440b      	add	r3, r1
 80087c0:	333c      	adds	r3, #60	@ 0x3c
 80087c2:	78ba      	ldrb	r2, [r7, #2]
 80087c4:	701a      	strb	r2, [r3, #0]
 80087c6:	e009      	b.n	80087dc <USBH_LL_SetToggle+0x58>
 80087c8:	78fa      	ldrb	r2, [r7, #3]
 80087ca:	68f9      	ldr	r1, [r7, #12]
 80087cc:	4613      	mov	r3, r2
 80087ce:	011b      	lsls	r3, r3, #4
 80087d0:	1a9b      	subs	r3, r3, r2
 80087d2:	009b      	lsls	r3, r3, #2
 80087d4:	440b      	add	r3, r1
 80087d6:	333d      	adds	r3, #61	@ 0x3d
 80087d8:	78ba      	ldrb	r2, [r7, #2]
 80087da:	701a      	strb	r2, [r3, #0]
 80087dc:	2300      	movs	r3, #0
 80087de:	4618      	mov	r0, r3
 80087e0:	3714      	adds	r7, #20
 80087e2:	46bd      	mov	sp, r7
 80087e4:	f85d 7b04 	ldr.w	r7, [sp], #4
 80087e8:	4770      	bx	lr

080087ea <USBH_Delay>:
 80087ea:	b580      	push	{r7, lr}
 80087ec:	b082      	sub	sp, #8
 80087ee:	af00      	add	r7, sp, #0
 80087f0:	6078      	str	r0, [r7, #4]
 80087f2:	6878      	ldr	r0, [r7, #4]
 80087f4:	f7f8 fb04 	bl	8000e00 <HAL_Delay>
 80087f8:	bf00      	nop
 80087fa:	3708      	adds	r7, #8
 80087fc:	46bd      	mov	sp, r7
 80087fe:	bd80      	pop	{r7, pc}

08008800 <USBH_Get_USB_Status>:
 8008800:	b480      	push	{r7}
 8008802:	b085      	sub	sp, #20
 8008804:	af00      	add	r7, sp, #0
 8008806:	4603      	mov	r3, r0
 8008808:	71fb      	strb	r3, [r7, #7]
 800880a:	2300      	movs	r3, #0
 800880c:	73fb      	strb	r3, [r7, #15]
 800880e:	79fb      	ldrb	r3, [r7, #7]
 8008810:	2b03      	cmp	r3, #3
 8008812:	d817      	bhi.n	8008844 <USBH_Get_USB_Status+0x44>
 8008814:	a201      	add	r2, pc, #4	@ (adr r2, 800881c <USBH_Get_USB_Status+0x1c>)
 8008816:	f852 f023 	ldr.w	pc, [r2, r3, lsl #2]
 800881a:	bf00      	nop
 800881c:	0800882d 	.word	0x0800882d
 8008820:	08008833 	.word	0x08008833
 8008824:	08008839 	.word	0x08008839
 8008828:	0800883f 	.word	0x0800883f
 800882c:	2300      	movs	r3, #0
 800882e:	73fb      	strb	r3, [r7, #15]
 8008830:	e00b      	b.n	800884a <USBH_Get_USB_Status+0x4a>
 8008832:	2302      	movs	r3, #2
 8008834:	73fb      	strb	r3, [r7, #15]
 8008836:	e008      	b.n	800884a <USBH_Get_USB_Status+0x4a>
 8008838:	2301      	movs	r3, #1
 800883a:	73fb      	strb	r3, [r7, #15]
 800883c:	e005      	b.n	800884a <USBH_Get_USB_Status+0x4a>
 800883e:	2302      	movs	r3, #2
 8008840:	73fb      	strb	r3, [r7, #15]
 8008842:	e002      	b.n	800884a <USBH_Get_USB_Status+0x4a>
 8008844:	2302      	movs	r3, #2
 8008846:	73fb      	strb	r3, [r7, #15]
 8008848:	bf00      	nop
 800884a:	7bfb      	ldrb	r3, [r7, #15]
 800884c:	4618      	mov	r0, r3
 800884e:	3714      	adds	r7, #20
 8008850:	46bd      	mov	sp, r7
 8008852:	f85d 7b04 	ldr.w	r7, [sp], #4
 8008856:	4770      	bx	lr

08008858 <MX_DriverVbusFS>:
 8008858:	b580      	push	{r7, lr}
 800885a:	b084      	sub	sp, #16
 800885c:	af00      	add	r7, sp, #0
 800885e:	4603      	mov	r3, r0
 8008860:	71fb      	strb	r3, [r7, #7]
 8008862:	79fb      	ldrb	r3, [r7, #7]
 8008864:	73fb      	strb	r3, [r7, #15]
 8008866:	79fb      	ldrb	r3, [r7, #7]
 8008868:	2b00      	cmp	r3, #0
 800886a:	d102      	bne.n	8008872 <MX_DriverVbusFS+0x1a>
 800886c:	2300      	movs	r3, #0
 800886e:	73fb      	strb	r3, [r7, #15]
 8008870:	e001      	b.n	8008876 <MX_DriverVbusFS+0x1e>
 8008872:	2301      	movs	r3, #1
 8008874:	73fb      	strb	r3, [r7, #15]
 8008876:	7bfb      	ldrb	r3, [r7, #15]
 8008878:	461a      	mov	r2, r3
 800887a:	2101      	movs	r1, #1
 800887c:	4803      	ldr	r0, [pc, #12]	@ (800888c <MX_DriverVbusFS+0x34>)
 800887e:	f7f8 fda9 	bl	80013d4 <HAL_GPIO_WritePin>
 8008882:	bf00      	nop
 8008884:	3710      	adds	r7, #16
 8008886:	46bd      	mov	sp, r7
 8008888:	bd80      	pop	{r7, pc}
 800888a:	bf00      	nop
 800888c:	40020800 	.word	0x40020800

08008890 <malloc>:
 8008890:	4b02      	ldr	r3, [pc, #8]	@ (800889c <malloc+0xc>)
 8008892:	4601      	mov	r1, r0
 8008894:	6818      	ldr	r0, [r3, #0]
 8008896:	f000 b82d 	b.w	80088f4 <_malloc_r>
 800889a:	bf00      	nop
 800889c:	2000002c 	.word	0x2000002c

080088a0 <free>:
 80088a0:	4b02      	ldr	r3, [pc, #8]	@ (80088ac <free+0xc>)
 80088a2:	4601      	mov	r1, r0
 80088a4:	6818      	ldr	r0, [r3, #0]
 80088a6:	f000 b8f5 	b.w	8008a94 <_free_r>
 80088aa:	bf00      	nop
 80088ac:	2000002c 	.word	0x2000002c

080088b0 <sbrk_aligned>:
 80088b0:	b570      	push	{r4, r5, r6, lr}
 80088b2:	4e0f      	ldr	r6, [pc, #60]	@ (80088f0 <sbrk_aligned+0x40>)
 80088b4:	460c      	mov	r4, r1
 80088b6:	6831      	ldr	r1, [r6, #0]
 80088b8:	4605      	mov	r5, r0
 80088ba:	b911      	cbnz	r1, 80088c2 <sbrk_aligned+0x12>
 80088bc:	f000 f8ae 	bl	8008a1c <_sbrk_r>
 80088c0:	6030      	str	r0, [r6, #0]
 80088c2:	4621      	mov	r1, r4
 80088c4:	4628      	mov	r0, r5
 80088c6:	f000 f8a9 	bl	8008a1c <_sbrk_r>
 80088ca:	1c43      	adds	r3, r0, #1
 80088cc:	d103      	bne.n	80088d6 <sbrk_aligned+0x26>
 80088ce:	f04f 34ff 	mov.w	r4, #4294967295
 80088d2:	4620      	mov	r0, r4
 80088d4:	bd70      	pop	{r4, r5, r6, pc}
 80088d6:	1cc4      	adds	r4, r0, #3
 80088d8:	f024 0403 	bic.w	r4, r4, #3
 80088dc:	42a0      	cmp	r0, r4
 80088de:	d0f8      	beq.n	80088d2 <sbrk_aligned+0x22>
 80088e0:	1a21      	subs	r1, r4, r0
 80088e2:	4628      	mov	r0, r5
 80088e4:	f000 f89a 	bl	8008a1c <_sbrk_r>
 80088e8:	3001      	adds	r0, #1
 80088ea:	d1f2      	bne.n	80088d2 <sbrk_aligned+0x22>
 80088ec:	e7ef      	b.n	80088ce <sbrk_aligned+0x1e>
 80088ee:	bf00      	nop
 80088f0:	20000950 	.word	0x20000950

080088f4 <_malloc_r>:
 80088f4:	e92d 43f8 	stmdb	sp!, {r3, r4, r5, r6, r7, r8, r9, lr}
 80088f8:	1ccd      	adds	r5, r1, #3
 80088fa:	f025 0503 	bic.w	r5, r5, #3
 80088fe:	3508      	adds	r5, #8
 8008900:	2d0c      	cmp	r5, #12
 8008902:	bf38      	it	cc
 8008904:	250c      	movcc	r5, #12
 8008906:	2d00      	cmp	r5, #0
 8008908:	4606      	mov	r6, r0
 800890a:	db01      	blt.n	8008910 <_malloc_r+0x1c>
 800890c:	42a9      	cmp	r1, r5
 800890e:	d904      	bls.n	800891a <_malloc_r+0x26>
 8008910:	230c      	movs	r3, #12
 8008912:	6033      	str	r3, [r6, #0]
 8008914:	2000      	movs	r0, #0
 8008916:	e8bd 83f8 	ldmia.w	sp!, {r3, r4, r5, r6, r7, r8, r9, pc}
 800891a:	f8df 80d4 	ldr.w	r8, [pc, #212]	@ 80089f0 <_malloc_r+0xfc>
 800891e:	f000 f869 	bl	80089f4 <__malloc_lock>
 8008922:	f8d8 3000 	ldr.w	r3, [r8]
 8008926:	461c      	mov	r4, r3
 8008928:	bb44      	cbnz	r4, 800897c <_malloc_r+0x88>
 800892a:	4629      	mov	r1, r5
 800892c:	4630      	mov	r0, r6
 800892e:	f7ff ffbf 	bl	80088b0 <sbrk_aligned>
 8008932:	1c43      	adds	r3, r0, #1
 8008934:	4604      	mov	r4, r0
 8008936:	d158      	bne.n	80089ea <_malloc_r+0xf6>
 8008938:	f8d8 4000 	ldr.w	r4, [r8]
 800893c:	4627      	mov	r7, r4
 800893e:	2f00      	cmp	r7, #0
 8008940:	d143      	bne.n	80089ca <_malloc_r+0xd6>
 8008942:	2c00      	cmp	r4, #0
 8008944:	d04b      	beq.n	80089de <_malloc_r+0xea>
 8008946:	6823      	ldr	r3, [r4, #0]
 8008948:	4639      	mov	r1, r7
 800894a:	4630      	mov	r0, r6
 800894c:	eb04 0903 	add.w	r9, r4, r3
 8008950:	f000 f864 	bl	8008a1c <_sbrk_r>
 8008954:	4581      	cmp	r9, r0
 8008956:	d142      	bne.n	80089de <_malloc_r+0xea>
 8008958:	6821      	ldr	r1, [r4, #0]
 800895a:	1a6d      	subs	r5, r5, r1
 800895c:	4629      	mov	r1, r5
 800895e:	4630      	mov	r0, r6
 8008960:	f7ff ffa6 	bl	80088b0 <sbrk_aligned>
 8008964:	3001      	adds	r0, #1
 8008966:	d03a      	beq.n	80089de <_malloc_r+0xea>
 8008968:	6823      	ldr	r3, [r4, #0]
 800896a:	442b      	add	r3, r5
 800896c:	6023      	str	r3, [r4, #0]
 800896e:	f8d8 3000 	ldr.w	r3, [r8]
 8008972:	685a      	ldr	r2, [r3, #4]
 8008974:	bb62      	cbnz	r2, 80089d0 <_malloc_r+0xdc>
 8008976:	f8c8 7000 	str.w	r7, [r8]
 800897a:	e00f      	b.n	800899c <_malloc_r+0xa8>
 800897c:	6822      	ldr	r2, [r4, #0]
 800897e:	1b52      	subs	r2, r2, r5
 8008980:	d420      	bmi.n	80089c4 <_malloc_r+0xd0>
 8008982:	2a0b      	cmp	r2, #11
 8008984:	d917      	bls.n	80089b6 <_malloc_r+0xc2>
 8008986:	1961      	adds	r1, r4, r5
 8008988:	42a3      	cmp	r3, r4
 800898a:	6025      	str	r5, [r4, #0]
 800898c:	bf18      	it	ne
 800898e:	6059      	strne	r1, [r3, #4]
 8008990:	6863      	ldr	r3, [r4, #4]
 8008992:	bf08      	it	eq
 8008994:	f8c8 1000 	streq.w	r1, [r8]
 8008998:	5162      	str	r2, [r4, r5]
 800899a:	604b      	str	r3, [r1, #4]
 800899c:	4630      	mov	r0, r6
 800899e:	f000 f82f 	bl	8008a00 <__malloc_unlock>
 80089a2:	f104 000b 	add.w	r0, r4, #11
 80089a6:	1d23      	adds	r3, r4, #4
 80089a8:	f020 0007 	bic.w	r0, r0, #7
 80089ac:	1ac2      	subs	r2, r0, r3
 80089ae:	bf1c      	itt	ne
 80089b0:	1a1b      	subne	r3, r3, r0
 80089b2:	50a3      	strne	r3, [r4, r2]
 80089b4:	e7af      	b.n	8008916 <_malloc_r+0x22>
 80089b6:	6862      	ldr	r2, [r4, #4]
 80089b8:	42a3      	cmp	r3, r4
 80089ba:	bf0c      	ite	eq
 80089bc:	f8c8 2000 	streq.w	r2, [r8]
 80089c0:	605a      	strne	r2, [r3, #4]
 80089c2:	e7eb      	b.n	800899c <_malloc_r+0xa8>
 80089c4:	4623      	mov	r3, r4
 80089c6:	6864      	ldr	r4, [r4, #4]
 80089c8:	e7ae      	b.n	8008928 <_malloc_r+0x34>
 80089ca:	463c      	mov	r4, r7
 80089cc:	687f      	ldr	r7, [r7, #4]
 80089ce:	e7b6      	b.n	800893e <_malloc_r+0x4a>
 80089d0:	461a      	mov	r2, r3
 80089d2:	685b      	ldr	r3, [r3, #4]
 80089d4:	42a3      	cmp	r3, r4
 80089d6:	d1fb      	bne.n	80089d0 <_malloc_r+0xdc>
 80089d8:	2300      	movs	r3, #0
 80089da:	6053      	str	r3, [r2, #4]
 80089dc:	e7de      	b.n	800899c <_malloc_r+0xa8>
 80089de:	230c      	movs	r3, #12
 80089e0:	6033      	str	r3, [r6, #0]
 80089e2:	4630      	mov	r0, r6
 80089e4:	f000 f80c 	bl	8008a00 <__malloc_unlock>
 80089e8:	e794      	b.n	8008914 <_malloc_r+0x20>
 80089ea:	6005      	str	r5, [r0, #0]
 80089ec:	e7d6      	b.n	800899c <_malloc_r+0xa8>
 80089ee:	bf00      	nop
 80089f0:	20000954 	.word	0x20000954

080089f4 <__malloc_lock>:
 80089f4:	4801      	ldr	r0, [pc, #4]	@ (80089fc <__malloc_lock+0x8>)
 80089f6:	f000 b84b 	b.w	8008a90 <__retarget_lock_acquire_recursive>
 80089fa:	bf00      	nop
 80089fc:	20000a94 	.word	0x20000a94

08008a00 <__malloc_unlock>:
 8008a00:	4801      	ldr	r0, [pc, #4]	@ (8008a08 <__malloc_unlock+0x8>)
 8008a02:	f000 b846 	b.w	8008a92 <__retarget_lock_release_recursive>
 8008a06:	bf00      	nop
 8008a08:	20000a94 	.word	0x20000a94

08008a0c <memset>:
 8008a0c:	4402      	add	r2, r0
 8008a0e:	4603      	mov	r3, r0
 8008a10:	4293      	cmp	r3, r2
 8008a12:	d100      	bne.n	8008a16 <memset+0xa>
 8008a14:	4770      	bx	lr
 8008a16:	f803 1b01 	strb.w	r1, [r3], #1
 8008a1a:	e7f9      	b.n	8008a10 <memset+0x4>

08008a1c <_sbrk_r>:
 8008a1c:	b538      	push	{r3, r4, r5, lr}
 8008a1e:	4d06      	ldr	r5, [pc, #24]	@ (8008a38 <_sbrk_r+0x1c>)
 8008a20:	2300      	movs	r3, #0
 8008a22:	4604      	mov	r4, r0
 8008a24:	4608      	mov	r0, r1
 8008a26:	602b      	str	r3, [r5, #0]
 8008a28:	f7f8 f906 	bl	8000c38 <_sbrk>
 8008a2c:	1c43      	adds	r3, r0, #1
 8008a2e:	d102      	bne.n	8008a36 <_sbrk_r+0x1a>
 8008a30:	682b      	ldr	r3, [r5, #0]
 8008a32:	b103      	cbz	r3, 8008a36 <_sbrk_r+0x1a>
 8008a34:	6023      	str	r3, [r4, #0]
 8008a36:	bd38      	pop	{r3, r4, r5, pc}
 8008a38:	20000a90 	.word	0x20000a90

08008a3c <__errno>:
 8008a3c:	4b01      	ldr	r3, [pc, #4]	@ (8008a44 <__errno+0x8>)
 8008a3e:	6818      	ldr	r0, [r3, #0]
 8008a40:	4770      	bx	lr
 8008a42:	bf00      	nop
 8008a44:	2000002c 	.word	0x2000002c

08008a48 <__libc_init_array>:
 8008a48:	b570      	push	{r4, r5, r6, lr}
 8008a4a:	4d0d      	ldr	r5, [pc, #52]	@ (8008a80 <__libc_init_array+0x38>)
 8008a4c:	4c0d      	ldr	r4, [pc, #52]	@ (8008a84 <__libc_init_array+0x3c>)
 8008a4e:	1b64      	subs	r4, r4, r5
 8008a50:	10a4      	asrs	r4, r4, #2
 8008a52:	2600      	movs	r6, #0
 8008a54:	42a6      	cmp	r6, r4
 8008a56:	d109      	bne.n	8008a6c <__libc_init_array+0x24>
 8008a58:	4d0b      	ldr	r5, [pc, #44]	@ (8008a88 <__libc_init_array+0x40>)
 8008a5a:	4c0c      	ldr	r4, [pc, #48]	@ (8008a8c <__libc_init_array+0x44>)
 8008a5c:	f000 f864 	bl	8008b28 <_init>
 8008a60:	1b64      	subs	r4, r4, r5
 8008a62:	10a4      	asrs	r4, r4, #2
 8008a64:	2600      	movs	r6, #0
 8008a66:	42a6      	cmp	r6, r4
 8008a68:	d105      	bne.n	8008a76 <__libc_init_array+0x2e>
 8008a6a:	bd70      	pop	{r4, r5, r6, pc}
 8008a6c:	f855 3b04 	ldr.w	r3, [r5], #4
 8008a70:	4798      	blx	r3
 8008a72:	3601      	adds	r6, #1
 8008a74:	e7ee      	b.n	8008a54 <__libc_init_array+0xc>
 8008a76:	f855 3b04 	ldr.w	r3, [r5], #4
 8008a7a:	4798      	blx	r3
 8008a7c:	3601      	adds	r6, #1
 8008a7e:	e7f2      	b.n	8008a66 <__libc_init_array+0x1e>
 8008a80:	08008b64 	.word	0x08008b64
 8008a84:	08008b64 	.word	0x08008b64
 8008a88:	08008b64 	.word	0x08008b64
 8008a8c:	08008b68 	.word	0x08008b68

08008a90 <__retarget_lock_acquire_recursive>:
 8008a90:	4770      	bx	lr

08008a92 <__retarget_lock_release_recursive>:
 8008a92:	4770      	bx	lr

08008a94 <_free_r>:
 8008a94:	b538      	push	{r3, r4, r5, lr}
 8008a96:	4605      	mov	r5, r0
 8008a98:	2900      	cmp	r1, #0
 8008a9a:	d041      	beq.n	8008b20 <_free_r+0x8c>
 8008a9c:	f851 3c04 	ldr.w	r3, [r1, #-4]
 8008aa0:	1f0c      	subs	r4, r1, #4
 8008aa2:	2b00      	cmp	r3, #0
 8008aa4:	bfb8      	it	lt
 8008aa6:	18e4      	addlt	r4, r4, r3
 8008aa8:	f7ff ffa4 	bl	80089f4 <__malloc_lock>
 8008aac:	4a1d      	ldr	r2, [pc, #116]	@ (8008b24 <_free_r+0x90>)
 8008aae:	6813      	ldr	r3, [r2, #0]
 8008ab0:	b933      	cbnz	r3, 8008ac0 <_free_r+0x2c>
 8008ab2:	6063      	str	r3, [r4, #4]
 8008ab4:	6014      	str	r4, [r2, #0]
 8008ab6:	4628      	mov	r0, r5
 8008ab8:	e8bd 4038 	ldmia.w	sp!, {r3, r4, r5, lr}
 8008abc:	f7ff bfa0 	b.w	8008a00 <__malloc_unlock>
 8008ac0:	42a3      	cmp	r3, r4
 8008ac2:	d908      	bls.n	8008ad6 <_free_r+0x42>
 8008ac4:	6820      	ldr	r0, [r4, #0]
 8008ac6:	1821      	adds	r1, r4, r0
 8008ac8:	428b      	cmp	r3, r1
 8008aca:	bf01      	itttt	eq
 8008acc:	6819      	ldreq	r1, [r3, #0]
 8008ace:	685b      	ldreq	r3, [r3, #4]
 8008ad0:	1809      	addeq	r1, r1, r0
 8008ad2:	6021      	streq	r1, [r4, #0]
 8008ad4:	e7ed      	b.n	8008ab2 <_free_r+0x1e>
 8008ad6:	461a      	mov	r2, r3
 8008ad8:	685b      	ldr	r3, [r3, #4]
 8008ada:	b10b      	cbz	r3, 8008ae0 <_free_r+0x4c>
 8008adc:	42a3      	cmp	r3, r4
 8008ade:	d9fa      	bls.n	8008ad6 <_free_r+0x42>
 8008ae0:	6811      	ldr	r1, [r2, #0]
 8008ae2:	1850      	adds	r0, r2, r1
 8008ae4:	42a0      	cmp	r0, r4
 8008ae6:	d10b      	bne.n	8008b00 <_free_r+0x6c>
 8008ae8:	6820      	ldr	r0, [r4, #0]
 8008aea:	4401      	add	r1, r0
 8008aec:	1850      	adds	r0, r2, r1
 8008aee:	4283      	cmp	r3, r0
 8008af0:	6011      	str	r1, [r2, #0]
 8008af2:	d1e0      	bne.n	8008ab6 <_free_r+0x22>
 8008af4:	6818      	ldr	r0, [r3, #0]
 8008af6:	685b      	ldr	r3, [r3, #4]
 8008af8:	6053      	str	r3, [r2, #4]
 8008afa:	4408      	add	r0, r1
 8008afc:	6010      	str	r0, [r2, #0]
 8008afe:	e7da      	b.n	8008ab6 <_free_r+0x22>
 8008b00:	d902      	bls.n	8008b08 <_free_r+0x74>
 8008b02:	230c      	movs	r3, #12
 8008b04:	602b      	str	r3, [r5, #0]
 8008b06:	e7d6      	b.n	8008ab6 <_free_r+0x22>
 8008b08:	6820      	ldr	r0, [r4, #0]
 8008b0a:	1821      	adds	r1, r4, r0
 8008b0c:	428b      	cmp	r3, r1
 8008b0e:	bf04      	itt	eq
 8008b10:	6819      	ldreq	r1, [r3, #0]
 8008b12:	685b      	ldreq	r3, [r3, #4]
 8008b14:	6063      	str	r3, [r4, #4]
 8008b16:	bf04      	itt	eq
 8008b18:	1809      	addeq	r1, r1, r0
 8008b1a:	6021      	streq	r1, [r4, #0]
 8008b1c:	6054      	str	r4, [r2, #4]
 8008b1e:	e7ca      	b.n	8008ab6 <_free_r+0x22>
 8008b20:	bd38      	pop	{r3, r4, r5, pc}
 8008b22:	bf00      	nop
 8008b24:	20000954 	.word	0x20000954

08008b28 <_init>:
 8008b28:	b5f8      	push	{r3, r4, r5, r6, r7, lr}
 8008b2a:	bf00      	nop
 8008b2c:	bcf8      	pop	{r3, r4, r5, r6, r7}
 8008b2e:	bc08      	pop	{r3}
 8008b30:	469e      	mov	lr, r3
 8008b32:	4770      	bx	lr

08008b34 <_fini>:
 8008b34:	b5f8      	push	{r3, r4, r5, r6, r7, lr}
 8008b36:	bf00      	nop
 8008b38:	bcf8      	pop	{r3, r4, r5, r6, r7}
 8008b3a:	bc08      	pop	{r3}
 8008b3c:	469e      	mov	lr, r3
 8008b3e:	4770      	bx	lr
